 PMSConn

 Timestamp is 4b6bc52c (Fri Feb 05 16:13:48 2010)

 Preferred load address is 10b00000

 Start         Length     Name                   Class
 0001:00000000 00029a98H .text                   CODE
 0001:00029aa0 000016ceH .text$x                 CODE
 0001:0002b170 0000003cH .text$yc                CODE
 0001:0002b1b0 00000033H .text$yd                CODE
 0002:00000000 00000254H .idata$5                DATA
 0002:00000254 00000004H .CRT$XCA                DATA
 0002:00000258 00000008H .CRT$XCU                DATA
 0002:00000260 00000004H .CRT$XCZ                DATA
 0002:00000264 00000004H .CRT$XIA                DATA
 0002:00000268 00000010H .CRT$XIC                DATA
 0002:00000278 00000004H .CRT$XIZ                DATA
 0002:0000027c 00000004H .CRT$XPA                DATA
 0002:00000280 00000004H .CRT$XPX                DATA
 0002:00000284 00000004H .CRT$XPXA               DATA
 0002:00000288 00000004H .CRT$XPZ                DATA
 0002:0000028c 00000004H .CRT$XTA                DATA
 0002:00000290 00000004H .CRT$XTZ                DATA
 0002:000002a0 00002d20H .rdata                  DATA
 0002:00002fc0 0000005cH .rdata$debug            DATA
 0002:0000301c 00000dd4H .rdata$r                DATA
 0002:00003df0 00000204H .rdata$sxdata           DATA
 0002:00003ff4 00000004H .rtc$IAA                DATA
 0002:00003ff8 00000004H .rtc$IZZ                DATA
 0002:00003ffc 00000004H .rtc$TAA                DATA
 0002:00004000 00000004H .rtc$TZZ                DATA
 0002:00004008 0000225cH .xdata$x                DATA
 0002:00006264 00000078H .idata$2                DATA
 0002:000062dc 00000014H .idata$3                DATA
 0002:000062f0 00000254H .idata$4                DATA
 0002:00006544 0000080cH .idata$6                DATA
 0002:00006d50 00000115H .edata                  DATA
 0003:00000000 00001a50H .data                   DATA
 0003:00001a60 00001e8cH .bss                    DATA
 0004:00000000 00000058H .rsrc$01                DATA
 0004:00000060 00000318H .rsrc$02                DATA

  Address         Publics by Value              Rva+Base       Lib:Object

 0000:00000000       __except_list              00000000     <absolute>
 0000:00000081       ___safe_se_handler_count   00000081     <absolute>
 0000:00000000       ___ImageBase               10b00000     <linker-defined>
 0001:00000000       ??0CErrorLog@@QAE@XZ       10b01000 f   ErrorLog.obj
 0001:000001a0       ??1CErrorLog@@QAE@XZ       10b011a0 f   ErrorLog.obj
 0001:000001c0       ?LOG@CErrorLog@@QAAXHPADZZ 10b011c0 f   ErrorLog.obj
 0001:00000300       ?SetIsLog@CErrorLog@@QAEHXZ 10b01300 f   ErrorLog.obj
 0001:000003a0       ?NewLogFile@CErrorLog@@QAEXXZ 10b013a0 f   ErrorLog.obj
 0001:000003b0       ??0GCriticalSection@@QAE@XZ 10b013b0 f i ErrorLog.obj
 0001:000003d0       ??1GCriticalSection@@QAE@XZ 10b013d0 f i ErrorLog.obj
 0001:000003f0       ?rfind@?$basic_string@DU?$char_traits@D@std@@V?$allocator@D@2@@std@@QBEIDI@Z 10b013f0 f i ErrorLog.obj
 0001:00000410       ?substr@?$basic_string@DU?$char_traits@D@std@@V?$allocator@D@2@@std@@QBE?AV12@II@Z 10b01410 f i ErrorLog.obj
 0001:00000460       ??0?$basic_string@DU?$char_traits@D@std@@V?$allocator@D@2@@std@@QAE@ABV01@IIABV?$allocator@D@1@@Z 10b01460 f i ErrorLog.obj
 0001:000004b0       ?rfind@?$basic_string@DU?$char_traits@D@std@@V?$allocator@D@2@@std@@QBEIPBDII@Z 10b014b0 f i ErrorLog.obj
 0001:00000590       ?get_allocator@?$basic_string@DU?$char_traits@D@std@@V?$allocator@D@2@@std@@QBE?AV?$allocator@D@2@XZ 10b01590 f i ErrorLog.obj
 0001:00000590       ?get_allocator@?$basic_string@GU?$char_traits@G@std@@V?$allocator@G@2@@std@@QBE?AV?$allocator@G@2@XZ 10b01590 f i GString.obj
 0001:000005b0       ?eq@?$char_traits@D@std@@SA_NABD0@Z 10b015b0 f i ErrorLog.obj
 0001:000005d0       ?compare@?$char_traits@D@std@@SAHPBD0I@Z 10b015d0 f i ErrorLog.obj
 0001:000005f0       ??0GCRITICAL_SECTION@@QAE@K@Z 10b015f0 f i ErrorLog.obj
 0001:00000620       ??1GCRITICAL_SECTION@@QAE@XZ 10b01620 f i ErrorLog.obj
 0001:00000640       ??0?$basic_string@DU?$char_traits@D@std@@V?$allocator@D@2@@std@@QAE@PBD@Z 10b01640 f i ErrorLog.obj
 0001:00000680       ??1?$basic_string@DU?$char_traits@D@std@@V?$allocator@D@2@@std@@QAE@XZ 10b01680 f i ErrorLog.obj
 0001:000006a0       ?c_str@?$basic_string@DU?$char_traits@D@std@@V?$allocator@D@2@@std@@QBEPBDXZ 10b016a0 f i ErrorLog.obj
 0001:000006c0       ?assign@?$basic_string@DU?$char_traits@D@std@@V?$allocator@D@2@@std@@QAEAAV12@ABV12@II@Z 10b016c0 f i ErrorLog.obj
 0001:00000780       ?assign@?$basic_string@DU?$char_traits@D@std@@V?$allocator@D@2@@std@@QAEAAV12@PBD@Z 10b01780 f i ErrorLog.obj
 0001:000007b0       ?length@?$char_traits@D@std@@SAIPBD@Z 10b017b0 f i ErrorLog.obj
 0001:000007d0       ?assign@?$basic_string@DU?$char_traits@D@std@@V?$allocator@D@2@@std@@QAEAAV12@PBDI@Z 10b017d0 f i ErrorLog.obj
 0001:00000860       ?_Eos@?$basic_string@DU?$char_traits@D@std@@V?$allocator@D@2@@std@@IAEXI@Z 10b01860 f i ErrorLog.obj
 0001:000008a0       ?assign@?$char_traits@D@std@@SAXAADABD@Z 10b018a0 f i ErrorLog.obj
 0001:000008b0       ?_Grow@?$basic_string@DU?$char_traits@D@std@@V?$allocator@D@2@@std@@IAE_NI_N@Z 10b018b0 f i ErrorLog.obj
 0001:00000950       ?_Inside@?$basic_string@DU?$char_traits@D@std@@V?$allocator@D@2@@std@@IAE_NPBD@Z 10b01950 f i ErrorLog.obj
 0001:00000990       ?_Tidy@?$basic_string@DU?$char_traits@D@std@@V?$allocator@D@2@@std@@IAEX_NI@Z 10b01990 f i ErrorLog.obj
 0001:00000a10       ?_Myptr@?$basic_string@DU?$char_traits@D@std@@V?$allocator@D@2@@std@@IAEPADXZ 10b01a10 f i ErrorLog.obj
 0001:00000a10       ?_Myptr@?$basic_string@DU?$char_traits@D@std@@V?$allocator@D@2@@std@@IBEPBDXZ 10b01a10 f i ErrorLog.obj
 0001:00000a40       ?erase@?$basic_string@DU?$char_traits@D@std@@V?$allocator@D@2@@std@@QAEAAV12@II@Z 10b01a40 f i ErrorLog.obj
 0001:00000ae0       ?max_size@?$basic_string@DU?$char_traits@D@std@@V?$allocator@D@2@@std@@QBEIXZ 10b01ae0 f i ErrorLog.obj
 0001:00000b20       ?_Copy@?$basic_string@DU?$char_traits@D@std@@V?$allocator@D@2@@std@@IAEXII@Z 10b01b20 f i ErrorLog.obj
 0001:00000ca0       ?allocate@?$allocator@D@std@@QAEPADI@Z 10b01ca0 f i ErrorLog.obj
 0001:00000cc0       ?max_size@?$allocator@D@std@@QBEIXZ 10b01cc0 f i ErrorLog.obj
 0001:00000cf0       ??$copy_s@U?$char_traits@D@std@@@_Traits_helper@std@@YAPADPADIPBDI@Z 10b01cf0 f i ErrorLog.obj
 0001:00000d20       ??$move_s@U?$char_traits@D@std@@@_Traits_helper@std@@YAPADPADIPBDI@Z 10b01d20 f i ErrorLog.obj
 0001:00000d50       ??$_Allocate@D@std@@YAPADIPAD@Z 10b01d50 f i ErrorLog.obj
 0001:00000da0       ??0bad_alloc@std@@QAE@PBD@Z 10b01da0 f i ErrorLog.obj
 0001:00000dd0       ??1bad_alloc@std@@UAE@XZ   10b01dd0 f i ErrorLog.obj
 0001:00000df0       ??_Gbad_alloc@std@@UAEPAXI@Z 10b01df0 f i ErrorLog.obj
 0001:00000df0       ??_Ebad_alloc@std@@UAEPAXI@Z 10b01df0 f i ErrorLog.obj
 0001:00000e20       ??0bad_alloc@std@@QAE@ABV01@@Z 10b01e20 f i ErrorLog.obj
 0001:00000e50       ??$copy_s@U?$char_traits@D@std@@@_Traits_helper@std@@YAPADPADIPBDIU_Secure_char_traits_tag@1@@Z 10b01e50 f i ErrorLog.obj
 0001:00000e70       ?_Copy_s@?$char_traits@D@std@@SAPADPADIPBDI@Z 10b01e70 f i ErrorLog.obj
 0001:00000e90       ??$move_s@U?$char_traits@D@std@@@_Traits_helper@std@@YAPADPADIPBDIU_Secure_char_traits_tag@1@@Z 10b01e90 f i ErrorLog.obj
 0001:00000eb0       ?_Move_s@?$char_traits@D@std@@SAPADPADIPBDI@Z 10b01eb0 f i ErrorLog.obj
 0001:00000ed0       ?_ThreadRoutine@@YGKPAX@Z  10b01ed0 f   LinkManager.obj
 0001:00000ef0       ?GetOptValue@@YAPADHQAPADPBD@Z 10b01ef0 f   LinkManager.obj
 0001:00000f80       ?GetOptValueInt@@YAKHQAPADPBD@Z 10b01f80 f   LinkManager.obj
 0001:00000fc0       ?IsExsistOptValue@@YAHHQAPADPBD@Z 10b01fc0 f   LinkManager.obj
 0001:00001040       ?GetExecuteFileName@@YAXPAD@Z 10b02040 f   LinkManager.obj
 0001:000011b0       ??0CLinkManager@@QAE@XZ    10b021b0 f   LinkManager.obj
 0001:00001290       ??1CLinkManager@@UAE@XZ    10b02290 f   LinkManager.obj
 0001:00001310       ?Stop@CLinkManager@@QAEXXZ 10b02310 f   LinkManager.obj
 0001:00001450       ?Init@CLinkManager@@QAEKHQAPAD@Z 10b02450 f   LinkManager.obj
 0001:00001650       ?TryConnectToHA@CLinkManager@@AAEXXZ 10b02650 f   LinkManager.obj
 0001:00001cb0       ?Main@CLinkManager@@QAEKXZ 10b02cb0 f   LinkManager.obj
 0001:00001e10       ?Run@CLinkManager@@QAEKPAUIPMSObject@@@Z 10b02e10 f   LinkManager.obj
 0001:00001f30       ?_tcsstr@@YAPADPADPBD@Z    10b02f30 f i LinkManager.obj
 0001:00001f50       __tcsstr                   10b02f50 f i LinkManager.obj
 0001:00001f70       ?Lock@CLinkManager@@UBGXXZ 10b02f70 f i LinkManager.obj
 0001:00001f90       ?Unlock@CLinkManager@@UBGXXZ 10b02f90 f i LinkManager.obj
 0001:00001fb0       ??_ECLinkManager@@UAEPAXI@Z 10b02fb0 f i LinkManager.obj
 0001:00001fb0       ??_GCLinkManager@@UAEPAXI@Z 10b02fb0 f i LinkManager.obj
 0001:00001fe0       ??0?$AdlSocketSingleT@VGSocketHandler@@VGBufSocket@@VPayloadGS@@@@QAE@XZ 10b02fe0 f i LinkManager.obj
 0001:00002000       ??1?$AdlSocketSingleT@VGSocketHandler@@VGBufSocket@@VPayloadGS@@@@QAE@XZ 10b03000 f i LinkManager.obj
 0001:00002020       ??0_PMSConfig@@QAE@XZ      10b03020 f i LinkManager.obj
 0001:00002080       ??1_PMSConfig@@QAE@XZ      10b03080 f i LinkManager.obj
 0001:000020e0       ??0GSafeBufQ@@QAE@XZ       10b030e0 f i LinkManager.obj
 0001:00002150       ??0?$AdlSocketDispatcherImplT@V?$BufSocketSingleT@VGSocketHandler@@VGBufSocket@@@@VPayloadGS@@@@QAE@XZ 10b03150 f i LinkManager.obj
 0001:00002170       ??1?$AdlSocketDispatcherImplT@V?$BufSocketSingleT@VGSocketHandler@@VGBufSocket@@@@VPayloadGS@@@@QAE@XZ 10b03170 f i LinkManager.obj
 0001:00002190       ??0?$BufSocketSingleT@VGSocketHandler@@VGBufSocket@@@@QAE@XZ 10b03190 f i LinkManager.obj
 0001:000021b0       ??1?$BufSocketSingleT@VGSocketHandler@@VGBufSocket@@@@QAE@XZ 10b031b0 f i LinkManager.obj
 0001:000021d0       ??0?$BufSocketDispatcherImplT@V?$SocketSingleT@VGSocketHandler@@VGBufSocket@@@@@@QAE@XZ 10b031d0 f i LinkManager.obj
 0001:000021f0       ??1?$BufSocketDispatcherImplT@V?$SocketSingleT@VGSocketHandler@@VGBufSocket@@@@@@QAE@XZ 10b031f0 f i LinkManager.obj
 0001:00002210       ??0?$SocketSingleT@VGSocketHandler@@VGBufSocket@@@@QAE@XZ 10b03210 f i LinkManager.obj
 0001:00002280       ??1?$SocketSingleT@VGSocketHandler@@VGBufSocket@@@@QAE@XZ 10b03280 f i LinkManager.obj
 0001:000022e0       ??0?$SocketDispatcherT@VGSocketHandler@@VGBufSocket@@@@QAE@XZ 10b032e0 f i LinkManager.obj
 0001:00002300       ??1?$SocketDispatcherT@VGSocketHandler@@VGBufSocket@@@@QAE@XZ 10b03300 f i LinkManager.obj
 0001:00002320       ??0GSocketHandler@@QAE@XZ  10b03320 f i LinkManager.obj
 0001:00002350       ??1GSocketHandler@@QAE@XZ  10b03350 f i LinkManager.obj
 0001:00002370       ??1GSafeBufQ@@QAE@XZ       10b03370 f i LinkManager.obj
 0001:000023d0       ??0PMSNSAP@@QAE@XZ         10b033d0 f i LinkManager.obj
 0001:000023f0       ?Clear@PMSNSAP@@QAEXXZ     10b033f0 f i LinkManager.obj
 0001:00002410       ??0PayloadHA@@QAE@I@Z      10b03410 f i LinkManager.obj
 0001:00002800       ??0PMSAGSInitNtf@@QAE@XZ   10b03800 f i LinkManager.obj
 0001:00002870       ??1?$ArcVectorT@VPMSNSAP@@@@QAE@XZ 10b03870 f i LinkManager.obj
 0001:00002890       ?Clear@PMSAGSInitNtf@@QAEXXZ 10b03890 f i LinkManager.obj
 0001:000028e0       ??0PMSAInitFaultNtf@@QAE@XZ 10b038e0 f i LinkManager.obj
 0001:00002900       ??0PMSUnitID@@QAE@XZ       10b03900 f i LinkManager.obj
 0001:00002920       ?Clear@PMSUnitID@@UAEXXZ   10b03920 f i LinkManager.obj
 0001:00002950       ?Clear@PMSAInitFaultNtf@@QAEXXZ 10b03950 f i LinkManager.obj
 0001:00002980       ??0PMSAPerformAns@@QAE@XZ  10b03980 f i LinkManager.obj
 0001:000029a0       ??0PMSARegionInfoAns@@QAE@XZ 10b039a0 f i LinkManager.obj
 0001:000029a0       ??0PMSARegionInfoPCAns@@QAE@XZ 10b039a0 f i LinkManager.obj
 0001:000029c0       ??0PMSAOrderAns@@QAE@XZ    10b039c0 f i LinkManager.obj
 0001:00002a70       ??0PMSAWarningNtf@@QAE@XZ  10b03a70 f i LinkManager.obj
 0001:00002af0       ??0PMSAStatInfoPCAns@@QAE@XZ 10b03af0 f i LinkManager.obj
 0001:00002af0       ??0PMSAStatInfoAns@@QAE@XZ 10b03af0 f i LinkManager.obj
 0001:00002b10       ??1PayloadHA@@QAE@XZ       10b03b10 f i LinkManager.obj
 0001:00002b30       ?Destroy@PayloadHA@@QAEXXZ 10b03b30 f i LinkManager.obj
 0001:00002d60       ??_GPMSAGSInitNtf@@QAEPAXI@Z 10b03d60 f i LinkManager.obj
 0001:00002d90       ??_GPMSAPerformAns@@QAEPAXI@Z 10b03d90 f i LinkManager.obj
 0001:00002dc0       ??_GPMSAStatInfoPCAns@@QAEPAXI@Z 10b03dc0 f i LinkManager.obj
 0001:00002dc0       ??_GPMSAStatInfoAns@@QAEPAXI@Z 10b03dc0 f i LinkManager.obj
 0001:00002df0       ??_GPMSARegionInfoAns@@QAEPAXI@Z 10b03df0 f i LinkManager.obj
 0001:00002df0       ??_GPMSARegionInfoPCAns@@QAEPAXI@Z 10b03df0 f i LinkManager.obj
 0001:00002e20       ??_GPMSAOrderAns@@QAEPAXI@Z 10b03e20 f i LinkManager.obj
 0001:00002e50       ??_GPMSAWarningNtf@@QAEPAXI@Z 10b03e50 f i LinkManager.obj
 0001:00002e80       ??1PMSAGSInitNtf@@QAE@XZ   10b03e80 f i LinkManager.obj
 0001:00002ee0       ??1PMSAPerformAns@@QAE@XZ  10b03ee0 f i LinkManager.obj
 0001:00002f00       ??1?$ArcVectorT@J@@QAE@XZ  10b03f00 f i LinkManager.obj
 0001:00002f20       ??1PMSAStatInfoAns@@QAE@XZ 10b03f20 f i LinkManager.obj
 0001:00002f20       ??1PMSAStatInfoPCAns@@QAE@XZ 10b03f20 f i LinkManager.obj
 0001:00002f40       ??1?$ArcVectorT@VPMSStatBase@@@@QAE@XZ 10b03f40 f i LinkManager.obj
 0001:00002f60       ??1PMSARegionInfoAns@@QAE@XZ 10b03f60 f i LinkManager.obj
 0001:00002f60       ??1PMSARegionInfoPCAns@@QAE@XZ 10b03f60 f i LinkManager.obj
 0001:00002f80       ??1?$ArcVectorT@VPMSRegionInfo@@@@QAE@XZ 10b03f80 f i LinkManager.obj
 0001:00002fa0       ??1PMSAOrderAns@@QAE@XZ    10b03fa0 f i LinkManager.obj
 0001:00003020       ??1PMSAWarningNtf@@QAE@XZ  10b04020 f i LinkManager.obj
 0001:00003080       ?BeginThread@@YAPAXPAU_SECURITY_ATTRIBUTES@@KP6GKPAX@Z1KPAK@Z 10b04080 f i LinkManager.obj
 0001:000030b0       ?find_last_of@?$basic_string@DU?$char_traits@D@std@@V?$allocator@D@2@@std@@QBEIPBDI@Z 10b040b0 f i LinkManager.obj
 0001:000030e0       ??0?$ArcVectorT@J@@QAE@XZ  10b040e0 f i LinkManager.obj
 0001:00003100       ??0?$ArcVectorT@VPMSNSAP@@@@QAE@XZ 10b04100 f i LinkManager.obj
 0001:00003120       ??1?$vector@VPMSNSAP@@V?$allocator@VPMSNSAP@@@std@@@std@@QAE@XZ 10b04120 f i LinkManager.obj
 0001:00003180       ?push_back@?$vector@VPMSNSAP@@V?$allocator@VPMSNSAP@@@std@@@std@@QAEXABVPMSNSAP@@@Z 10b04180 f i LinkManager.obj
 0001:00003200       ?clear@?$vector@VPMSNSAP@@V?$allocator@VPMSNSAP@@@std@@@std@@QAEXXZ 10b04200 f i LinkManager.obj
 0001:00003260       ??0?$ArcVectorT@VPMSStatBase@@@@QAE@XZ 10b04260 f i LinkManager.obj
 0001:00003280       ??1?$vector@VPMSStatBase@@V?$allocator@VPMSStatBase@@@std@@@std@@QAE@XZ 10b04280 f i LinkManager.obj
 0001:000032e0       ??0?$ArcVectorT@VPMSRegionInfo@@@@QAE@XZ 10b042e0 f i LinkManager.obj
 0001:00003300       ??1?$vector@VPMSRegionInfo@@V?$allocator@VPMSRegionInfo@@@std@@@std@@QAE@XZ 10b04300 f i LinkManager.obj
 0001:00003360       ?OnReceive@?$AdlSocketDispatcherImplT@V?$BufSocketSingleT@VGSocketHandler@@VGBufSocket@@@@VPayloadGS@@@@MAEHPAVGBufSocket@@H@Z 10b04360 f i LinkManager.obj
 0001:000034c0       ??0PayloadGS@@QAE@XZ       10b044c0 f i LinkManager.obj
 0001:000034c0       ??0PMSAHeartBeatAns@@QAE@XZ 10b044c0 f i LinkManager.obj
 0001:000034c0       ??0PMSAAnnounceAns@@QAE@XZ 10b044c0 f i LinkManager.obj
 0001:000034f0       ??1PayloadGS@@QAE@XZ       10b044f0 f i LinkManager.obj
 0001:00003510       ?Destroy@PayloadGS@@QAEXXZ 10b04510 f i LinkManager.obj
 0001:00003620       ??_GPMSAAnnounceReq@@QAEPAXI@Z 10b04620 f i LinkManager.obj
 0001:00003650       ??_GPMSAOrderReq@@QAEPAXI@Z 10b04650 f i LinkManager.obj
 0001:00003680       ??1PMSAAnnounceReq@@QAE@XZ 10b04680 f i LinkManager.obj
 0001:000036a0       ??1PMSAOrderReq@@QAE@XZ    10b046a0 f i LinkManager.obj
 0001:00003710       ?OnSend@?$AdlSocketDispatcherImplT@V?$BufSocketSingleT@VGSocketHandler@@VGBufSocket@@@@VPayloadGS@@@@MAEHPAVGBufSocket@@H@Z 10b04710 f i LinkManager.obj
 0001:00003770       ?OnReceive@?$BufSocketDispatcherImplT@V?$SocketSingleT@VGSocketHandler@@VGBufSocket@@@@@@MAEHPAVGBufSocket@@H@Z 10b04770 f i LinkManager.obj
 0001:000037d0       ?OnSend@?$BufSocketDispatcherImplT@V?$SocketSingleT@VGSocketHandler@@VGBufSocket@@@@@@MAEHPAVGBufSocket@@H@Z 10b047d0 f i LinkManager.obj
 0001:00003830       ?GetSocket@?$SocketSingleT@VGSocketHandler@@VGBufSocket@@@@QAEPAVGBufSocket@@XZ 10b04830 f i LinkManager.obj
 0001:00003850       ?Attach@?$SocketSingleT@VGSocketHandler@@VGBufSocket@@@@IAEHPAVGBufSocket@@J@Z 10b04850 f i LinkManager.obj
 0001:00003890       ?Detach@?$SocketSingleT@VGSocketHandler@@VGBufSocket@@@@IAEPAVGBufSocket@@XZ 10b04890 f i LinkManager.obj
 0001:000038d0       ?Dispatch@?$SocketSingleT@VGSocketHandler@@VGBufSocket@@@@MAEXXZ 10b048d0 f i LinkManager.obj
 0001:00003910       ?DispatchSocket@?$SocketDispatcherT@VGSocketHandler@@VGBufSocket@@@@MAEXPAVGBufSocket@@@Z 10b04910 f i LinkManager.obj
 0001:000039b0       ?OnSocketNotify@?$SocketDispatcherT@VGSocketHandler@@VGBufSocket@@@@MAEHPAVGBufSocket@@JH@Z 10b049b0 f i LinkManager.obj
 0001:00003b80       ?OnReceive@?$SocketDispatcherT@VGSocketHandler@@VGBufSocket@@@@MAEHPAVGBufSocket@@H@Z 10b04b80 f i LinkManager.obj
 0001:00003bc0       ?OnSend@?$SocketDispatcherT@VGSocketHandler@@VGBufSocket@@@@MAEHPAVGBufSocket@@H@Z 10b04bc0 f i LinkManager.obj
 0001:00003c00       ?OnOOB@?$SocketDispatcherT@VGSocketHandler@@VGBufSocket@@@@MAEHPAVGBufSocket@@H@Z 10b04c00 f i LinkManager.obj
 0001:00003c40       ?OnAccept@?$SocketDispatcherT@VGSocketHandler@@VGBufSocket@@@@MAEHPAVGBufSocket@@H@Z 10b04c40 f i LinkManager.obj
 0001:00003c80       ?OnConnect@?$SocketDispatcherT@VGSocketHandler@@VGBufSocket@@@@MAEHPAVGBufSocket@@H@Z 10b04c80 f i LinkManager.obj
 0001:00003cc0       ?OnClose@?$SocketDispatcherT@VGSocketHandler@@VGBufSocket@@@@MAEHPAVGBufSocket@@H@Z 10b04cc0 f i LinkManager.obj
 0001:00003cf0       ?OnQOS@?$SocketDispatcherT@VGSocketHandler@@VGBufSocket@@@@MAEHPAVGBufSocket@@H@Z 10b04cf0 f i LinkManager.obj
 0001:00003d30       ?OnGroupQOS@?$SocketDispatcherT@VGSocketHandler@@VGBufSocket@@@@MAEHPAVGBufSocket@@H@Z 10b04d30 f i LinkManager.obj
 0001:00003d70       ?OnRoutingInterfaceChange@?$SocketDispatcherT@VGSocketHandler@@VGBufSocket@@@@MAEHPAVGBufSocket@@H@Z 10b04d70 f i LinkManager.obj
 0001:00003db0       ?OnAddressListChange@?$SocketDispatcherT@VGSocketHandler@@VGBufSocket@@@@MAEHPAVGBufSocket@@H@Z 10b04db0 f i LinkManager.obj
 0001:00003df0       ?OnError@?$SocketDispatcherT@VGSocketHandler@@VGBufSocket@@@@MAEHPAVGBufSocket@@JH@Z 10b04df0 f i LinkManager.obj
 0001:00003e00       ??0?$AutoPtrT@VGBufSocket@@@@QAE@PAVGBufSocket@@@Z 10b04e00 f i LinkManager.obj
 0001:00003e00       ??0_Aux_cont@std@@QAE@QBV_Container_base_aux@1@@Z 10b04e00 f i LinkManager.obj
 0001:00003e20       ??1?$AutoPtrT@VGBufSocket@@@@QAE@XZ 10b04e20 f i LinkManager.obj
 0001:00003e70       ??0?$ObjLockT@VCLinkManager@@@@QAE@QBVCLinkManager@@H@Z 10b04e70 f i LinkManager.obj
 0001:00003eb0       ??1?$ObjLockT@VCLinkManager@@@@QAE@XZ 10b04eb0 f i LinkManager.obj
 0001:00003ee0       ??1?$_Vector_val@PAVGSyncObj@@V?$allocator@PAVGSyncObj@@@std@@@std@@QAE@XZ 10b04ee0 f i GKernelObj.obj
 0001:00003ee0       ??1?$_Vector_val@VPMSRegionInfo@@V?$allocator@VPMSRegionInfo@@@std@@@std@@QAE@XZ 10b04ee0 f i LinkManager.obj
 0001:00003ee0       ??1?$_Vector_val@JV?$allocator@J@std@@@std@@QAE@XZ 10b04ee0 f i LinkManager.obj
 0001:00003ee0       ??1?$_Vector_val@VPMSStatBase@@V?$allocator@VPMSStatBase@@@std@@@std@@QAE@XZ 10b04ee0 f i LinkManager.obj
 0001:00003ee0       ??1?$_List_nod@VGBuf@@V?$allocator@VGBuf@@@std@@@std@@QAE@XZ 10b04ee0 f i LinkManager.obj
 0001:00003ee0       ??1?$_Vector_val@VPMSNSAP@@V?$allocator@VPMSNSAP@@@std@@@std@@QAE@XZ 10b04ee0 f i LinkManager.obj
 0001:00003f00       ?find_last_of@?$basic_string@DU?$char_traits@D@std@@V?$allocator@D@2@@std@@QBEIPBDII@Z 10b04f00 f i LinkManager.obj
 0001:00003fa0       ?find@?$char_traits@D@std@@SAPBDPBDIABD@Z 10b04fa0 f i LinkManager.obj
 0001:00003fc0       ??0?$vector@PAVGSyncObj@@V?$allocator@PAVGSyncObj@@@std@@@std@@QAE@XZ 10b04fc0 f i GKernelObj.obj
 0001:00003fc0       ??0?$vector@JV?$allocator@J@std@@@std@@QAE@XZ 10b04fc0 f i LinkManager.obj
 0001:00004030       ??1?$_Container_base_aux_alloc_real@V?$allocator@VPMSStatBase@@@std@@@std@@IAE@XZ 10b05030 f i LinkManager.obj
 0001:00004030       ??1?$_Container_base_aux_alloc_real@V?$allocator@VPMSNSAP@@@std@@@std@@IAE@XZ 10b05030 f i LinkManager.obj
 0001:00004030       ??1?$_Container_base_aux_alloc_real@V?$allocator@J@std@@@std@@IAE@XZ 10b05030 f i LinkManager.obj
 0001:00004030       ??1?$_Container_base_aux_alloc_real@V?$allocator@VPMSRegionInfo@@@std@@@std@@IAE@XZ 10b05030 f i LinkManager.obj
 0001:00004030       ??1?$_Container_base_aux_alloc_real@V?$allocator@VGBuf@@@std@@@std@@IAE@XZ 10b05030 f i LinkManager.obj
 0001:00004030       ??1?$_Container_base_aux_alloc_real@V?$allocator@PAVGSyncObj@@@std@@@std@@IAE@XZ 10b05030 f i GKernelObj.obj
 0001:00004090       ??0?$vector@VPMSNSAP@@V?$allocator@VPMSNSAP@@@std@@@std@@QAE@XZ 10b05090 f i LinkManager.obj
 0001:00004100       ?capacity@?$vector@VPMSNSAP@@V?$allocator@VPMSNSAP@@@std@@@std@@QBEIXZ 10b05100 f i LinkManager.obj
 0001:00004140       ?begin@?$vector@VPMSRegionInfo@@V?$allocator@VPMSRegionInfo@@@std@@@std@@QAE?AV?$_Vector_iterator@VPMSRegionInfo@@V?$allocator@VPMSRegionInfo@@@std@@@2@XZ 10b05140 f i LinkManagerMsg.obj
 0001:00004140       ?begin@?$vector@PAVGSyncObj@@V?$allocator@PAVGSyncObj@@@std@@@std@@QAE?AV?$_Vector_iterator@PAVGSyncObj@@V?$allocator@PAVGSyncObj@@@std@@@2@XZ 10b05140 f i GKernelObj.obj
 0001:00004140       ?begin@?$vector@VPMSStatBase@@V?$allocator@VPMSStatBase@@@std@@@std@@QAE?AV?$_Vector_iterator@VPMSStatBase@@V?$allocator@VPMSStatBase@@@std@@@2@XZ 10b05140 f i LinkManagerMsg.obj
 0001:00004140       ?begin@?$vector@VPMSNSAP@@V?$allocator@VPMSNSAP@@@std@@@std@@QAE?AV?$_Vector_iterator@VPMSNSAP@@V?$allocator@VPMSNSAP@@@std@@@2@XZ 10b05140 f i LinkManager.obj
 0001:00004140       ?begin@?$vector@PAXV?$allocator@PAX@std@@@std@@QAE?AV?$_Vector_iterator@PAXV?$allocator@PAX@std@@@2@XZ 10b05140 f i GKernelObj.obj
 0001:00004140       ?begin@?$vector@JV?$allocator@J@std@@@std@@QAE?AV?$_Vector_iterator@JV?$allocator@J@std@@@2@XZ 10b05140 f i LinkManagerMsg.obj
 0001:00004170       ?size@?$vector@VPMSNSAP@@V?$allocator@VPMSNSAP@@@std@@@std@@QBEIXZ 10b05170 f i LinkManager.obj
 0001:00004190       ?insert@?$vector@VPMSNSAP@@V?$allocator@VPMSNSAP@@@std@@@std@@QAE?AV?$_Vector_iterator@VPMSNSAP@@V?$allocator@VPMSNSAP@@@std@@@2@V?$_Vector_const_iterator@VPMSNSAP@@V?$allocator@VPMSNSAP@@@std@@@2@ABVPMSNSAP@@@Z 10b05190 f i LinkManager.obj
 0001:00004210       ?erase@?$vector@VPMSNSAP@@V?$allocator@VPMSNSAP@@@std@@@std@@QAE?AV?$_Vector_iterator@VPMSNSAP@@V?$allocator@VPMSNSAP@@@std@@@2@V?$_Vector_const_iterator@VPMSNSAP@@V?$allocator@VPMSNSAP@@@std@@@2@0@Z 10b05210 f i LinkManager.obj
 0001:000042b0       ?_Tidy@?$vector@VPMSNSAP@@V?$allocator@VPMSNSAP@@@std@@@std@@IAEXXZ 10b052b0 f i LinkManager.obj
 0001:00004320       ?_Ufill@?$vector@VPMSNSAP@@V?$allocator@VPMSNSAP@@@std@@@std@@IAEPAVPMSNSAP@@PAV3@IABV3@@Z 10b05320 f i LinkManager.obj
 0001:00004360       ??0?$vector@VPMSStatBase@@V?$allocator@VPMSStatBase@@@std@@@std@@QAE@XZ 10b05360 f i LinkManager.obj
 0001:000043d0       ?_Tidy@?$vector@VPMSStatBase@@V?$allocator@VPMSStatBase@@@std@@@std@@IAEXXZ 10b053d0 f i LinkManager.obj
 0001:00004440       ??0?$vector@VPMSRegionInfo@@V?$allocator@VPMSRegionInfo@@@std@@@std@@QAE@XZ 10b05440 f i LinkManager.obj
 0001:000044b0       ?_Tidy@?$vector@VPMSRegionInfo@@V?$allocator@VPMSRegionInfo@@@std@@@std@@IAEXXZ 10b054b0 f i LinkManager.obj
 0001:00004530       ??B?$AutoPtrT@VGBufSocket@@@@QBEPAVGBufSocket@@XZ 10b05530 f i LinkManager.obj
 0001:00004530       ?_Getcont@_Aux_cont@std@@QBEPBV_Container_base_aux@2@XZ 10b05530 f i LinkManager.obj
 0001:00004530       ??BGBuf@@QBEPAUIXBuf@@XZ   10b05530 f i LinkManager.obj
 0001:00004530       ??C?$AutoPtrT@VGBufSocket@@@@QBEPAVGBufSocket@@XZ 10b05530 f i LinkManager.obj
 0001:00004530       ?c_str@astring@@QBEPBDXZ   10b05530 f i GAdlUtl.obj
 0001:00004540       ??4?$AutoPtrT@VGBufSocket@@@@QAEPAVGBufSocket@@PAV1@@Z 10b05540 f i LinkManager.obj
 0001:00004560       ?Detach@?$AutoPtrT@VGBufSocket@@@@QAEPAVGBufSocket@@XZ 10b05560 f i LinkManager.obj
 0001:00004590       ?deallocate@?$allocator@PAX@std@@QAEXPAPAXI@Z 10b05590 f i GKernelObj.obj
 0001:00004590       ?deallocate@?$allocator@U_Node@?$_List_nod@VGBuf@@V?$allocator@VGBuf@@@std@@@std@@@std@@QAEXPAU_Node@?$_List_nod@VGBuf@@V?$allocator@VGBuf@@@std@@@2@I@Z 10b05590 f i LinkManager.obj
 0001:00004590       ?deallocate@?$allocator@D@std@@QAEXPADI@Z 10b05590 f i ErrorLog.obj
 0001:00004590       ?deallocate@?$allocator@G@std@@QAEXPAGI@Z 10b05590 f i GAdlUtl.obj
 0001:00004590       ?deallocate@?$allocator@VPMSStatBase@@@std@@QAEXPAVPMSStatBase@@I@Z 10b05590 f i LinkManager.obj
 0001:00004590       ?deallocate@?$allocator@PAVGSyncObj@@@std@@QAEXPAPAVGSyncObj@@I@Z 10b05590 f i GKernelObj.obj
 0001:00004590       ?deallocate@?$allocator@VPMSNSAP@@@std@@QAEXPAVPMSNSAP@@I@Z 10b05590 f i LinkManager.obj
 0001:00004590       ?deallocate@?$allocator@V_Aux_cont@std@@@std@@QAEXPAV_Aux_cont@2@I@Z 10b05590 f i LinkManager.obj
 0001:00004590       ?deallocate@?$allocator@VPMSRegionInfo@@@std@@QAEXPAVPMSRegionInfo@@I@Z 10b05590 f i LinkManager.obj
 0001:00004590       ?deallocate@?$allocator@J@std@@QAEXPAJI@Z 10b05590 f i LinkManager.obj
 0001:000045b0       ?_Make_iter@?$vector@JV?$allocator@J@std@@@std@@QBE?AV?$_Vector_iterator@JV?$allocator@J@std@@@2@V?$_Vector_const_iterator@JV?$allocator@J@std@@@2@@Z 10b055b0 f i LinkManagerMsg.obj
 0001:000045b0       ?_Make_iter@?$vector@PAXV?$allocator@PAX@std@@@std@@QBE?AV?$_Vector_iterator@PAXV?$allocator@PAX@std@@@2@V?$_Vector_const_iterator@PAXV?$allocator@PAX@std@@@2@@Z 10b055b0 f i GKernelObj.obj
 0001:000045b0       ?_Make_iter@?$vector@PAVGSyncObj@@V?$allocator@PAVGSyncObj@@@std@@@std@@QBE?AV?$_Vector_iterator@PAVGSyncObj@@V?$allocator@PAVGSyncObj@@@std@@@2@V?$_Vector_const_iterator@PAVGSyncObj@@V?$allocator@PAVGSyncObj@@@std@@@2@@Z 10b055b0 f i GKernelObj.obj
 0001:000045b0       ?_Make_iter@?$vector@VPMSNSAP@@V?$allocator@VPMSNSAP@@@std@@@std@@QBE?AV?$_Vector_iterator@VPMSNSAP@@V?$allocator@VPMSNSAP@@@std@@@2@V?$_Vector_const_iterator@VPMSNSAP@@V?$allocator@VPMSNSAP@@@std@@@2@@Z 10b055b0 f i LinkManager.obj
 0001:000045d0       ?_Buy@?$vector@VPMSNSAP@@V?$allocator@VPMSNSAP@@@std@@@std@@IAE_NI@Z 10b055d0 f i LinkManager.obj
 0001:00004650       ?_Destroy@?$vector@VPMSNSAP@@V?$allocator@VPMSNSAP@@@std@@@std@@IAEXPAVPMSNSAP@@0@Z 10b05650 f i LinkManager.obj
 0001:00004680       ?_Insert_n@?$vector@VPMSNSAP@@V?$allocator@VPMSNSAP@@@std@@@std@@IAEXV?$_Vector_const_iterator@VPMSNSAP@@V?$allocator@VPMSNSAP@@@std@@@2@IABVPMSNSAP@@@Z 10b05680 f i LinkManager.obj
 0001:00004a30       ??4PMSNSAP@@QAEAAV0@ABV0@@Z 10b05a30 f i LinkManager.obj
 0001:00004a30       ??0PMSNSAP@@QAE@ABV0@@Z    10b05a30 f i LinkManager.obj
 0001:00004a50       ?_Buy@?$vector@VPMSStatBase@@V?$allocator@VPMSStatBase@@@std@@@std@@IAE_NI@Z 10b05a50 f i LinkManager.obj
 0001:00004ad0       ?_Destroy@?$vector@VPMSStatBase@@V?$allocator@VPMSStatBase@@@std@@@std@@IAEXPAVPMSStatBase@@0@Z 10b05ad0 f i LinkManager.obj
 0001:00004b00       ?_Buy@?$vector@VPMSRegionInfo@@V?$allocator@VPMSRegionInfo@@@std@@@std@@IAE_NI@Z 10b05b00 f i LinkManager.obj
 0001:00004b80       ?_Destroy@?$vector@VPMSRegionInfo@@V?$allocator@VPMSRegionInfo@@@std@@@std@@IAEXPAVPMSRegionInfo@@0@Z 10b05b80 f i LinkManager.obj
 0001:00004bb0       ??0?$allocator@J@std@@QAE@XZ 10b05bb0 f i LinkManager.obj
 0001:00004bb0       ??0?$allocator@VPMSRegionInfo@@@std@@QAE@XZ 10b05bb0 f i LinkManager.obj
 0001:00004bb0       ??0PMSARegionInfoReq@@QAE@XZ 10b05bb0 f i LinkManager.obj
 0001:00004bb0       ??0_Container_base_aux@std@@QAE@XZ 10b05bb0 f i LinkManager.obj
 0001:00004bb0       ??0?$allocator@D@std@@QAE@XZ 10b05bb0 f i ErrorLog.obj
 0001:00004bb0       ??0?$allocator@VGBuf@@@std@@QAE@XZ 10b05bb0 f i LinkManager.obj
 0001:00004bb0       ??0?$allocator@G@std@@QAE@XZ 10b05bb0 f i GAdlUtl.obj
 0001:00004bb0       ??0?$allocator@VPMSNSAP@@@std@@QAE@XZ 10b05bb0 f i LinkManager.obj
 0001:00004bb0       ??0PMSAStatInfoReq@@QAE@XZ 10b05bb0 f i LinkManager.obj
 0001:00004bb0       ??0?$allocator@PAVGSyncObj@@@std@@QAE@XZ 10b05bb0 f i GKernelObj.obj
 0001:00004bb0       ??0PMSAPerformReq@@QAE@XZ  10b05bb0 f i LinkManager.obj
 0001:00004bb0       ??0?$allocator@VPMSStatBase@@@std@@QAE@XZ 10b05bb0 f i LinkManager.obj
 0001:00004bc0       ?PtrAssign@?$AutoPtrT@VGBufSocket@@@@KGPAVGBufSocket@@PAPAV2@PAV2@@Z 10b05bc0 f i LinkManager.obj
 0001:00004c20       ??H?$_Vector_iterator@VPMSNSAP@@V?$allocator@VPMSNSAP@@@std@@@std@@QBE?AV01@H@Z 10b05c20 f i LinkManager.obj
 0001:00004c60       ??G?$_Vector_const_iterator@VPMSNSAP@@V?$allocator@VPMSNSAP@@@std@@@std@@QBEHABV01@@Z 10b05c60 f i LinkManager.obj
 0001:00004cb0       ?_Has_container@_Iterator_base_secure@std@@QBE_NXZ 10b05cb0 f i LinkManagerMsg.obj
 0001:00004cb0       ?_Has_container@_Iterator_base_aux@std@@QBE_NXZ 10b05cb0 f i LinkManager.obj
 0001:00004cd0       ??0length_error@std@@QAE@ABV?$basic_string@DU?$char_traits@D@std@@V?$allocator@D@2@@1@@Z 10b05cd0 f i LinkManager.obj
 0001:00004d00       ??0logic_error@std@@QAE@ABV?$basic_string@DU?$char_traits@D@std@@V?$allocator@D@2@@1@@Z 10b05d00 f i LinkManager.obj
 0001:00004d70       ?what@logic_error@std@@UBEPBDXZ 10b05d70 f i LinkManager.obj
 0001:00004d90       ??_Elogic_error@std@@UAEPAXI@Z 10b05d90 f i LinkManager.obj
 0001:00004d90       ??_Glogic_error@std@@UAEPAXI@Z 10b05d90 f i LinkManager.obj
 0001:00004dc0       ??1logic_error@std@@UAE@XZ 10b05dc0 f i LinkManager.obj
 0001:00004df0       ??1length_error@std@@UAE@XZ 10b05df0 f i LinkManager.obj
 0001:00004e10       ??_Elength_error@std@@UAEPAXI@Z 10b05e10 f i LinkManager.obj
 0001:00004e10       ??_Glength_error@std@@UAEPAXI@Z 10b05e10 f i LinkManager.obj
 0001:00004e40       ??2@YAPAXIPAX@Z            10b05e40 f i LinkManager.obj
 0001:00004e50       ?allocate@?$allocator@V_Aux_cont@std@@@std@@QAEPAV_Aux_cont@2@I@Z 10b05e50 f i LinkManager.obj
 0001:00004e50       ?allocate@?$allocator@PAX@std@@QAEPAPAXI@Z 10b05e50 f i GKernelObj.obj
 0001:00004e50       ?allocate@?$allocator@J@std@@QAEPAJI@Z 10b05e50 f i LinkManager.obj
 0001:00004e50       ?allocate@?$allocator@PAVGSyncObj@@@std@@QAEPAPAVGSyncObj@@I@Z 10b05e50 f i GKernelObj.obj
 0001:00004e70       ?max_size@?$vector@VPMSNSAP@@V?$allocator@VPMSNSAP@@@std@@@std@@QBEIXZ 10b05e70 f i LinkManager.obj
 0001:00004e90       ?allocate@?$allocator@VPMSNSAP@@@std@@QAEPAVPMSNSAP@@I@Z 10b05e90 f i LinkManager.obj
 0001:00004eb0       ?max_size@?$vector@VPMSStatBase@@V?$allocator@VPMSStatBase@@@std@@@std@@QBEIXZ 10b05eb0 f i LinkManager.obj
 0001:00004ed0       ??0logic_error@std@@QAE@ABV01@@Z 10b05ed0 f i LinkManager.obj
 0001:00004f40       ?allocate@?$allocator@VPMSStatBase@@@std@@QAEPAVPMSStatBase@@I@Z 10b05f40 f i LinkManager.obj
 0001:00004f60       ?max_size@?$vector@VPMSRegionInfo@@V?$allocator@VPMSRegionInfo@@@std@@@std@@QBEIXZ 10b05f60 f i LinkManager.obj
 0001:00004f80       ?allocate@?$allocator@VPMSRegionInfo@@@std@@QAEPAVPMSRegionInfo@@I@Z 10b05f80 f i LinkManager.obj
 0001:00004fa0       ??Y?$_Vector_iterator@VPMSNSAP@@V?$allocator@VPMSNSAP@@@std@@@std@@QAEAAV01@H@Z 10b05fa0 f i LinkManager.obj
 0001:00004fc0       ?_Set_container@_Iterator_base_aux@std@@QAEXQBV_Container_base_aux@2@@Z 10b05fc0 f i LinkManager.obj
 0001:00004fe0       ?max_size@?$allocator@VPMSNSAP@@@std@@QBEIXZ 10b05fe0 f i LinkManager.obj
 0001:00005010       ?max_size@?$allocator@VPMSStatBase@@@std@@QBEIXZ 10b06010 f i LinkManager.obj
 0001:00005040       ?max_size@?$allocator@VPMSRegionInfo@@@std@@QBEIXZ 10b06040 f i LinkManager.obj
 0001:00005070       ??Y?$_Vector_const_iterator@VPMSNSAP@@V?$allocator@VPMSNSAP@@@std@@@std@@QAEAAV01@H@Z 10b06070 f i LinkManager.obj
 0001:000050f0       ?_Getmycont@_Iterator_base_aux@std@@QBEPBV_Container_base_aux@2@XZ 10b060f0 f i LinkManager.obj
 0001:00005120       ??$LStore@VPayloadHA@@@@YAHPAUIXBuf@@ABVPayloadHA@@@Z 10b06120 f i LinkManager.obj
 0001:000051b0       ?BStore@@YAHPAUIXBuf@@ABVPayloadHA@@@Z 10b061b0 f i LinkManager.obj
 0001:000051d0       ?BStore@PayloadHA@@QBEHPAUIXBuf@@@Z 10b061d0 f i LinkManager.obj
 0001:000053c0       ?BStore@@YAHPAUIXBuf@@ABVPMSAGSInitNtf@@@Z 10b063c0 f i LinkManager.obj
 0001:000053e0       ?BStore@PMSAGSInitNtf@@QBEHPAUIXBuf@@@Z 10b063e0 f i LinkManager.obj
 0001:000054a0       ?BStore@@YAHPAUIXBuf@@ABVPMSAInitFaultNtf@@@Z 10b064a0 f i LinkManager.obj
 0001:000054c0       ?BStore@PMSAInitFaultNtf@@QBEHPAUIXBuf@@@Z 10b064c0 f i LinkManager.obj
 0001:00005510       ?BStore@@YAHPAUIXBuf@@ABVPMSUnitID@@@Z 10b06510 f i LinkManager.obj
 0001:00005530       ?BStore@PMSUnitID@@QBEHPAUIXBuf@@@Z 10b06530 f i LinkManager.obj
 0001:000055a0       ?BStore@@YAHPAUIXBuf@@ABVPMSAPerformAns@@@Z 10b065a0 f i LinkManager.obj
 0001:000055c0       ?BStore@PMSAPerformAns@@QBEHPAUIXBuf@@@Z 10b065c0 f i LinkManager.obj
 0001:000055f0       ?BStore@@YAHPAUIXBuf@@ABVPMSAHeartBeatAns@@@Z 10b065f0 f i LinkManager.obj
 0001:00005610       ?BStore@PMSAHeartBeatAns@@QBEHPAUIXBuf@@@Z 10b06610 f i LinkManager.obj
 0001:00005660       ?BStore@@YAHPAUIXBuf@@ABVPMSAStatInfoAns@@@Z 10b06660 f i LinkManager.obj
 0001:00005660       ?BStore@@YAHPAUIXBuf@@ABVPMSAStatInfoPCAns@@@Z 10b06660 f i LinkManager.obj
 0001:00005680       ?BStore@PMSAStatInfoPCAns@@QBEHPAUIXBuf@@@Z 10b06680 f i LinkManager.obj
 0001:00005680       ?BStore@PMSAStatInfoAns@@QBEHPAUIXBuf@@@Z 10b06680 f i LinkManager.obj
 0001:000056b0       ?BStore@@YAHPAUIXBuf@@ABVPMSARegionInfoAns@@@Z 10b066b0 f i LinkManager.obj
 0001:000056b0       ?BStore@@YAHPAUIXBuf@@ABVPMSARegionInfoPCAns@@@Z 10b066b0 f i LinkManager.obj
 0001:000056d0       ?BStore@PMSARegionInfoPCAns@@QBEHPAUIXBuf@@@Z 10b066d0 f i LinkManager.obj
 0001:000056d0       ?BStore@PMSARegionInfoAns@@QBEHPAUIXBuf@@@Z 10b066d0 f i LinkManager.obj
 0001:00005700       ?BStore@@YAHPAUIXBuf@@ABVPMSAOrderAns@@@Z 10b06700 f i LinkManager.obj
 0001:00005720       ?BStore@PMSAOrderAns@@QBEHPAUIXBuf@@@Z 10b06720 f i LinkManager.obj
 0001:00005800       ?BStore@@YAHPAUIXBuf@@ABVPMSAWarningNtf@@@Z 10b06800 f i LinkManager.obj
 0001:00005820       ?BStore@PMSAWarningNtf@@QBEHPAUIXBuf@@@Z 10b06820 f i LinkManager.obj
 0001:000058a0       ??$BStore@J@@YAHPAUIXBuf@@ABV?$ArcVectorT@J@@@Z 10b068a0 f i LinkManager.obj
 0001:000058c0       ??$BStore@VPMSNSAP@@@@YAHPAUIXBuf@@ABV?$ArcVectorT@VPMSNSAP@@@@@Z 10b068c0 f i LinkManager.obj
 0001:000058e0       ??$BStore@VPMSStatBase@@@@YAHPAUIXBuf@@ABV?$ArcVectorT@VPMSStatBase@@@@@Z 10b068e0 f i LinkManager.obj
 0001:00005900       ??$BStore@VPMSRegionInfo@@@@YAHPAUIXBuf@@ABV?$ArcVectorT@VPMSRegionInfo@@@@@Z 10b06900 f i LinkManager.obj
 0001:00005920       ??$LLoad@VPayloadGS@@@@YAHAAVPayloadGS@@PAUIXBuf@@@Z 10b06920 f i LinkManager.obj
 0001:000059f0       ?BLoad@@YAHAAVPayloadGS@@PAUIXBuf@@@Z 10b069f0 f i LinkManager.obj
 0001:00005a10       ?BLoad@PayloadGS@@QAEHPAUIXBuf@@@Z 10b06a10 f i LinkManager.obj
 0001:00005d20       ?BLoad@@YAHAAVPMSAHeartBeatReq@@PAUIXBuf@@@Z 10b06d20 f i LinkManager.obj
 0001:00005d40       ?BLoad@PMSAHeartBeatReq@@QAEHPAUIXBuf@@@Z 10b06d40 f i LinkManager.obj
 0001:00005d70       ?BLoad@@YAHAAVPMSAPerformReq@@PAUIXBuf@@@Z 10b06d70 f i LinkManager.obj
 0001:00005d70       ?BLoad@@YAHAAVPMSAStatInfoReq@@PAUIXBuf@@@Z 10b06d70 f i LinkManager.obj
 0001:00005d70       ?BLoad@@YAHAAVPMSARegionInfoReq@@PAUIXBuf@@@Z 10b06d70 f i LinkManager.obj
 0001:00005d90       ?BLoad@PMSARegionInfoReq@@QAEHPAUIXBuf@@@Z 10b06d90 f i LinkManager.obj
 0001:00005d90       ?BLoad@PMSAPerformReq@@QAEHPAUIXBuf@@@Z 10b06d90 f i LinkManager.obj
 0001:00005d90       ?BLoad@PMSAStatInfoReq@@QAEHPAUIXBuf@@@Z 10b06d90 f i LinkManager.obj
 0001:00005db0       ??0PMSAAnnounceReq@@QAE@XZ 10b06db0 f i LinkManager.obj
 0001:00005e20       ?BLoad@@YAHAAVPMSAAnnounceReq@@PAUIXBuf@@@Z 10b06e20 f i LinkManager.obj
 0001:00005e40       ?BLoad@PMSAAnnounceReq@@QAEHPAUIXBuf@@@Z 10b06e40 f i LinkManager.obj
 0001:00005e90       ?BLoad@@YAHAAVPMSUnitID@@PAUIXBuf@@@Z 10b06e90 f i LinkManager.obj
 0001:00005eb0       ?BLoad@PMSUnitID@@QAEHPAUIXBuf@@@Z 10b06eb0 f i LinkManager.obj
 0001:00005f20       ??0PMSAOrderReq@@QAE@XZ    10b06f20 f i LinkManager.obj
 0001:00005fa0       ?BLoad@@YAHAAVPMSAOrderReq@@PAUIXBuf@@@Z 10b06fa0 f i LinkManager.obj
 0001:00005fc0       ?BLoad@PMSAOrderReq@@QAEHPAUIXBuf@@@Z 10b06fc0 f i LinkManager.obj
 0001:00006080       ??$unchecked_copy@PAVPMSNSAP@@PAV1@@stdext@@YAPAVPMSNSAP@@PAV1@00@Z 10b07080 f i LinkManager.obj
 0001:000060f0       ??$unchecked_uninitialized_fill_n@PAVPMSNSAP@@IV1@V?$allocator@VPMSNSAP@@@std@@@stdext@@YAXPAVPMSNSAP@@IABV1@AAV?$allocator@VPMSNSAP@@@std@@@Z 10b070f0 f i LinkManager.obj
 0001:00006140       ??$_Destroy_range@V?$allocator@VPMSNSAP@@@std@@@std@@YAXPAVPMSNSAP@@0AAV?$allocator@VPMSNSAP@@@0@@Z 10b07140 f i LinkManager.obj
 0001:00006180       ??$_Umove@PAVPMSNSAP@@@?$vector@VPMSNSAP@@V?$allocator@VPMSNSAP@@@std@@@std@@IAEPAVPMSNSAP@@PAV2@00@Z 10b07180 f i LinkManager.obj
 0001:000061b0       ??$fill@PAVPMSNSAP@@V1@@std@@YAXPAVPMSNSAP@@0ABV1@@Z 10b071b0 f i LinkManager.obj
 0001:000061e0       ??$_Unchecked_move_backward@PAVPMSNSAP@@PAV1@@stdext@@YAPAVPMSNSAP@@PAV1@00@Z 10b071e0 f i LinkManager.obj
 0001:00006250       ??$_Destroy_range@V?$allocator@VPMSStatBase@@@std@@@std@@YAXPAVPMSStatBase@@0AAV?$allocator@VPMSStatBase@@@0@@Z 10b07250 f i LinkManager.obj
 0001:00006290       ??$_Destroy_range@V?$allocator@VPMSRegionInfo@@@std@@@std@@YAXPAVPMSRegionInfo@@0AAV?$allocator@VPMSRegionInfo@@@0@@Z 10b07290 f i LinkManager.obj
 0001:000062d0       ??$_Allocate@PAVGSyncObj@@@std@@YAPAPAVGSyncObj@@IPAPAV1@@Z 10b072d0 f i GKernelObj.obj
 0001:000062d0       ??$_Allocate@J@std@@YAPAJIPAJ@Z 10b072d0 f i LinkManager.obj
 0001:000062d0       ??$_Allocate@PAX@std@@YAPAPAXIPAPAX@Z 10b072d0 f i GKernelObj.obj
 0001:000062d0       ??$_Allocate@V_Aux_cont@std@@@std@@YAPAV_Aux_cont@0@IPAV10@@Z 10b072d0 f i LinkManager.obj
 0001:00006320       ??$_Allocate@VPMSNSAP@@@std@@YAPAVPMSNSAP@@IPAV1@@Z 10b07320 f i LinkManager.obj
 0001:00006370       ??$_Allocate@VPMSStatBase@@@std@@YAPAVPMSStatBase@@IPAV1@@Z 10b07370 f i LinkManager.obj
 0001:000063c0       ??$_Allocate@VPMSRegionInfo@@@std@@YAPAVPMSRegionInfo@@IPAV1@@Z 10b073c0 f i LinkManager.obj
 0001:00006410       ?BStore@?$ArcVectorT@J@@QBEHPAUIXBuf@@@Z 10b07410 f i LinkManager.obj
 0001:000064b0       ?BStore@?$ArcVectorT@VPMSNSAP@@@@QBEHPAUIXBuf@@@Z 10b074b0 f i LinkManager.obj
 0001:00006550       ?BStore@@YAHPAUIXBuf@@ABVPMSAAnnounceAns@@@Z 10b07550 f i LinkManager.obj
 0001:00006550       ?BStore@@YAHPAUIXBuf@@ABVPMSNSAP@@@Z 10b07550 f i LinkManager.obj
 0001:00006570       ?BStore@PMSAAnnounceAns@@QBEHPAUIXBuf@@@Z 10b07570 f i LinkManager.obj
 0001:00006570       ?BStore@PMSNSAP@@QBEHPAUIXBuf@@@Z 10b07570 f i LinkManager.obj
 0001:000065c0       ?BStore@?$ArcVectorT@VPMSStatBase@@@@QBEHPAUIXBuf@@@Z 10b075c0 f i LinkManager.obj
 0001:00006660       ?BStore@@YAHPAUIXBuf@@ABVPMSStatBase@@@Z 10b07660 f i LinkManager.obj
 0001:00006680       ?BStore@PMSStatBase@@QBEHPAUIXBuf@@@Z 10b07680 f i LinkManager.obj
 0001:00006740       ?BStore@?$ArcVectorT@VPMSRegionInfo@@@@QBEHPAUIXBuf@@@Z 10b07740 f i LinkManager.obj
 0001:000067e0       ?BStore@@YAHPAUIXBuf@@ABVPMSRegionInfo@@@Z 10b077e0 f i LinkManager.obj
 0001:00006800       ?BStore@PMSRegionInfo@@QBEHPAUIXBuf@@@Z 10b07800 f i LinkManager.obj
 0001:00006850       ?begin@?$vector@PAXV?$allocator@PAX@std@@@std@@QBE?AV?$_Vector_const_iterator@PAXV?$allocator@PAX@std@@@2@XZ 10b07850 f i GKernelObj.obj
 0001:00006850       ?begin@?$vector@PAVGSyncObj@@V?$allocator@PAVGSyncObj@@@std@@@std@@QBE?AV?$_Vector_const_iterator@PAVGSyncObj@@V?$allocator@PAVGSyncObj@@@std@@@2@XZ 10b07850 f i GKernelObj.obj
 0001:00006850       ?begin@?$vector@VPMSNSAP@@V?$allocator@VPMSNSAP@@@std@@@std@@QBE?AV?$_Vector_const_iterator@VPMSNSAP@@V?$allocator@VPMSNSAP@@@std@@@2@XZ 10b07850 f i LinkManager.obj
 0001:00006850       ?begin@?$vector@VPMSRegionInfo@@V?$allocator@VPMSRegionInfo@@@std@@@std@@QBE?AV?$_Vector_const_iterator@VPMSRegionInfo@@V?$allocator@VPMSRegionInfo@@@std@@@2@XZ 10b07850 f i LinkManager.obj
 0001:00006850       ?begin@?$vector@VPMSStatBase@@V?$allocator@VPMSStatBase@@@std@@@std@@QBE?AV?$_Vector_const_iterator@VPMSStatBase@@V?$allocator@VPMSStatBase@@@std@@@2@XZ 10b07850 f i LinkManager.obj
 0001:00006850       ?begin@?$vector@JV?$allocator@J@std@@@std@@QBE?AV?$_Vector_const_iterator@JV?$allocator@J@std@@@2@XZ 10b07850 f i LinkManager.obj
 0001:00006880       ?size@?$vector@VPMSStatBase@@V?$allocator@VPMSStatBase@@@std@@@std@@QBEIXZ 10b07880 f i LinkManager.obj
 0001:000068a0       ?end@?$vector@VPMSNSAP@@V?$allocator@VPMSNSAP@@@std@@@std@@QBE?AV?$_Vector_const_iterator@VPMSNSAP@@V?$allocator@VPMSNSAP@@@std@@@2@XZ 10b078a0 f i LinkManager.obj
 0001:000068a0       ?end@?$vector@JV?$allocator@J@std@@@std@@QBE?AV?$_Vector_const_iterator@JV?$allocator@J@std@@@2@XZ 10b078a0 f i LinkManager.obj
 0001:000068a0       ?end@?$vector@VPMSRegionInfo@@V?$allocator@VPMSRegionInfo@@@std@@@std@@QBE?AV?$_Vector_const_iterator@VPMSRegionInfo@@V?$allocator@VPMSRegionInfo@@@std@@@2@XZ 10b078a0 f i LinkManager.obj
 0001:000068a0       ?end@?$vector@PAVGSyncObj@@V?$allocator@PAVGSyncObj@@@std@@@std@@QBE?AV?$_Vector_const_iterator@PAVGSyncObj@@V?$allocator@PAVGSyncObj@@@std@@@2@XZ 10b078a0 f i GKernelObj.obj
 0001:000068a0       ?end@?$vector@VPMSStatBase@@V?$allocator@VPMSStatBase@@@std@@@std@@QBE?AV?$_Vector_const_iterator@VPMSStatBase@@V?$allocator@VPMSStatBase@@@std@@@2@XZ 10b078a0 f i LinkManager.obj
 0001:000068d0       ?size@?$vector@VPMSRegionInfo@@V?$allocator@VPMSRegionInfo@@@std@@@std@@QBEIXZ 10b078d0 f i LinkManager.obj
 0001:000068f0       ??0?$_Vector_const_iterator@PAVGSyncObj@@V?$allocator@PAVGSyncObj@@@std@@@std@@QAE@XZ 10b078f0 f i GKernelObj.obj
 0001:000068f0       ??0?$_Vector_const_iterator@VPMSRegionInfo@@V?$allocator@VPMSRegionInfo@@@std@@@std@@QAE@XZ 10b078f0 f i LinkManager.obj
 0001:000068f0       ??0?$_Vector_const_iterator@JV?$allocator@J@std@@@std@@QAE@XZ 10b078f0 f i LinkManager.obj
 0001:000068f0       ??0?$_Vector_const_iterator@VPMSNSAP@@V?$allocator@VPMSNSAP@@@std@@@std@@QAE@XZ 10b078f0 f i LinkManager.obj
 0001:000068f0       ??0?$_Vector_const_iterator@VPMSStatBase@@V?$allocator@VPMSStatBase@@@std@@@std@@QAE@XZ 10b078f0 f i LinkManager.obj
 0001:00006910       ??E?$_Vector_const_iterator@JV?$allocator@J@std@@@std@@QAE?AV01@H@Z 10b07910 f i LinkManager.obj
 0001:00006950       ??E?$_Vector_const_iterator@JV?$allocator@J@std@@@std@@QAEAAV01@XZ 10b07950 f i LinkManager.obj
 0001:000069b0       ??E?$_Vector_const_iterator@VPMSNSAP@@V?$allocator@VPMSNSAP@@@std@@@std@@QAE?AV01@H@Z 10b079b0 f i LinkManager.obj
 0001:000069f0       ??E?$_Vector_const_iterator@VPMSNSAP@@V?$allocator@VPMSNSAP@@@std@@@std@@QAEAAV01@XZ 10b079f0 f i LinkManager.obj
 0001:00006a50       ??D?$_Vector_const_iterator@VPMSStatBase@@V?$allocator@VPMSStatBase@@@std@@@std@@QBEABVPMSStatBase@@XZ 10b07a50 f i LinkManager.obj
 0001:00006a50       ??D?$_Vector_const_iterator@JV?$allocator@J@std@@@std@@QBEABJXZ 10b07a50 f i LinkManager.obj
 0001:00006a50       ??D?$_Vector_const_iterator@VPMSNSAP@@V?$allocator@VPMSNSAP@@@std@@@std@@QBEABVPMSNSAP@@XZ 10b07a50 f i LinkManager.obj
 0001:00006a50       ??D?$_Vector_const_iterator@PAXV?$allocator@PAX@std@@@std@@QBEABQAXXZ 10b07a50 f i GKernelObj.obj
 0001:00006a50       ??D?$_Vector_const_iterator@VPMSRegionInfo@@V?$allocator@VPMSRegionInfo@@@std@@@std@@QBEABVPMSRegionInfo@@XZ 10b07a50 f i LinkManager.obj
 0001:00006aa0       ??E?$_Vector_const_iterator@VPMSStatBase@@V?$allocator@VPMSStatBase@@@std@@@std@@QAE?AV01@H@Z 10b07aa0 f i LinkManager.obj
 0001:00006ae0       ??E?$_Vector_const_iterator@VPMSStatBase@@V?$allocator@VPMSStatBase@@@std@@@std@@QAEAAV01@XZ 10b07ae0 f i LinkManager.obj
 0001:00006b40       ??9?$_Vector_const_iterator@VPMSRegionInfo@@V?$allocator@VPMSRegionInfo@@@std@@@std@@QBE_NABV01@@Z 10b07b40 f i LinkManager.obj
 0001:00006b40       ??9?$_Vector_const_iterator@VPMSNSAP@@V?$allocator@VPMSNSAP@@@std@@@std@@QBE_NABV01@@Z 10b07b40 f i LinkManager.obj
 0001:00006b40       ??9?$_Vector_const_iterator@VPMSStatBase@@V?$allocator@VPMSStatBase@@@std@@@std@@QBE_NABV01@@Z 10b07b40 f i LinkManager.obj
 0001:00006b40       ??9?$_Vector_const_iterator@PAXV?$allocator@PAX@std@@@std@@QBE_NABV01@@Z 10b07b40 f i GKernelObj.obj
 0001:00006b40       ??9?$_Vector_const_iterator@JV?$allocator@J@std@@@std@@QBE_NABV01@@Z 10b07b40 f i LinkManager.obj
 0001:00006b40       ??9?$_Vector_const_iterator@PAVGSyncObj@@V?$allocator@PAVGSyncObj@@@std@@@std@@QBE_NABV01@@Z 10b07b40 f i GKernelObj.obj
 0001:00006b70       ??8?$_Vector_const_iterator@VPMSStatBase@@V?$allocator@VPMSStatBase@@@std@@@std@@QBE_NABV01@@Z 10b07b70 f i LinkManager.obj
 0001:00006b70       ??8?$_Vector_const_iterator@VPMSRegionInfo@@V?$allocator@VPMSRegionInfo@@@std@@@std@@QBE_NABV01@@Z 10b07b70 f i LinkManager.obj
 0001:00006b70       ??8?$_Vector_const_iterator@VPMSNSAP@@V?$allocator@VPMSNSAP@@@std@@@std@@QBE_NABV01@@Z 10b07b70 f i LinkManager.obj
 0001:00006b70       ??8?$_Vector_const_iterator@PAXV?$allocator@PAX@std@@@std@@QBE_NABV01@@Z 10b07b70 f i GKernelObj.obj
 0001:00006b70       ??8?$_Vector_const_iterator@PAVGSyncObj@@V?$allocator@PAVGSyncObj@@@std@@@std@@QBE_NABV01@@Z 10b07b70 f i GKernelObj.obj
 0001:00006b70       ??8?$_Vector_const_iterator@JV?$allocator@J@std@@@std@@QBE_NABV01@@Z 10b07b70 f i LinkManager.obj
 0001:00006bc0       ??E?$_Vector_const_iterator@VPMSRegionInfo@@V?$allocator@VPMSRegionInfo@@@std@@@std@@QAE?AV01@H@Z 10b07bc0 f i LinkManager.obj
 0001:00006c00       ??E?$_Vector_const_iterator@VPMSRegionInfo@@V?$allocator@VPMSRegionInfo@@@std@@@std@@QAEAAV01@XZ 10b07c00 f i LinkManager.obj
 0001:00006c60       ??0?$_Iterator_with_base@Urandom_access_iterator_tag@std@@VPMSStatBase@@HPBV3@ABV3@V_Iterator_base_aux@2@@std@@QAE@XZ 10b07c60 f i LinkManager.obj
 0001:00006c60       ??0?$_Iterator_with_base@Urandom_access_iterator_tag@std@@PAXHPBQAXABQAXV_Iterator_base_aux@2@@std@@QAE@XZ 10b07c60 f i GKernelObj.obj
 0001:00006c60       ??0?$_Iterator_with_base@Urandom_access_iterator_tag@std@@VPMSRegionInfo@@HPBV3@ABV3@V_Iterator_base_aux@2@@std@@QAE@XZ 10b07c60 f i LinkManager.obj
 0001:00006c60       ??0?$_Ranit_base@DHPBDABDV_Iterator_base_secure@std@@@std@@QAE@XZ 10b07c60 f i LinkManagerMsg.obj
 0001:00006c60       ??0?$_Iterator_with_base@Urandom_access_iterator_tag@std@@VPMSNSAP@@HPBV3@ABV3@V_Iterator_base_aux@2@@std@@QAE@XZ 10b07c60 f i LinkManager.obj
 0001:00006c60       ??0?$_Iterator_with_base@Ubidirectional_iterator_tag@std@@VGBuf@@HPBV3@ABV3@V_Iterator_base_aux@2@@std@@QAE@XZ 10b07c60 f i LinkManager.obj
 0001:00006c60       ??0?$_Iterator_with_base@Urandom_access_iterator_tag@std@@JHPBJABJV_Iterator_base_aux@2@@std@@QAE@XZ 10b07c60 f i LinkManager.obj
 0001:00006c60       ??0?$_Iterator_with_base@Urandom_access_iterator_tag@std@@PAVGSyncObj@@HPBQAV3@ABQAV3@V_Iterator_base_aux@2@@std@@QAE@XZ 10b07c60 f i GKernelObj.obj
 0001:00006c80       ?Lock@GCRITICAL_SECTION@@QBEXXZ 10b07c80 f i LinkManager.obj
 0001:00006ca0       ?Unlock@GCRITICAL_SECTION@@QBEXXZ 10b07ca0 f i LinkManager.obj
 0001:00006cc0       ?GetHandle@GSocket@@QBEIXZ 10b07cc0 f i LinkManager.obj
 0001:00006cf0       ??0GBuf@@QAE@XZ            10b07cf0 f i LinkManager.obj
 0001:00006d10       ??1GBuf@@QAE@XZ            10b07d10 f i LinkManager.obj
 0001:00006d40       ??0GBufQ@@QAE@XZ           10b07d40 f i LinkManager.obj
 0001:00006d60       ??$_Char_traits_cat@U?$char_traits@D@std@@@std@@YA?AU_Secure_char_traits_tag@0@XZ 10b07d60 f i ErrorLog.obj
 0001:00006d60       ??$_Move_cat@PAJ@std@@YA?AU_Undefined_move_tag@0@ABQAJ@Z 10b07d60 f i LinkManagerMsg.obj
 0001:00006d60       ??$_Move_cat@PAVPMSRegionInfo@@@std@@YA?AU_Undefined_move_tag@0@ABQAVPMSRegionInfo@@@Z 10b07d60 f i LinkManagerMsg.obj
 0001:00006d60       ??$_Ptr_cat@PAJPAJ@std@@YA?AU_Scalar_ptr_iterator_tag@0@AAPAJ0@Z 10b07d60 f i LinkManager.obj
 0001:00006d60       ??$_Ptr_cat@PAPAXPAPAX@std@@YA?AU_Scalar_ptr_iterator_tag@0@AAPAPAX0@Z 10b07d60 f i GKernelObj.obj
 0001:00006d60       ??$_Move_cat@PAPAX@std@@YA?AU_Undefined_move_tag@0@ABQAPAX@Z 10b07d60 f i GKernelObj.obj
 0001:00006d60       ??$_Move_cat@PAPAVGSyncObj@@@std@@YA?AU_Undefined_move_tag@0@ABQAPAVGSyncObj@@@Z 10b07d60 f i GKernelObj.obj
 0001:00006d60       ??$_Move_cat@PAVPMSStatBase@@@std@@YA?AU_Undefined_move_tag@0@ABQAVPMSStatBase@@@Z 10b07d60 f i LinkManagerMsg.obj
 0001:00006d60       ??$_Ptr_cat@PAVPMSRegionInfo@@PAV1@@std@@YA?AU_Nonscalar_ptr_iterator_tag@0@AAPAVPMSRegionInfo@@0@Z 10b07d60 f i LinkManager.obj
 0001:00006d60       ??$_Ptr_cat@V?$_Vector_iterator@JV?$allocator@J@std@@@std@@PAJ@std@@YA?AU_Scalar_ptr_iterator_tag@0@AAV?$_Vector_iterator@JV?$allocator@J@std@@@0@AAPAJ@Z 10b07d60 f i LinkManagerMsg.obj
 0001:00006d60       ??$_Ptr_cat@PAPAVGSyncObj@@PAPAV1@@std@@YA?AU_Scalar_ptr_iterator_tag@0@AAPAPAVGSyncObj@@0@Z 10b07d60 f i GKernelObj.obj
 0001:00006d60       ??$_Ptr_cat@PAVPMSNSAP@@PAV1@@std@@YA?AU_Nonscalar_ptr_iterator_tag@0@AAPAVPMSNSAP@@0@Z 10b07d60 f i LinkManager.obj
 0001:00006d60       ??$_Char_traits_cat@U?$char_traits@G@std@@@std@@YA?AU_Secure_char_traits_tag@0@XZ 10b07d60 f i GAdlUtl.obj
 0001:00006d60       ??$_Move_cat@PAVPMSNSAP@@@std@@YA?AU_Undefined_move_tag@0@ABQAVPMSNSAP@@@Z 10b07d60 f i LinkManager.obj
 0001:00006d60       ??$_Ptr_cat@PAVPMSStatBase@@PAV1@@std@@YA?AU_Nonscalar_ptr_iterator_tag@0@AAPAVPMSStatBase@@0@Z 10b07d60 f i LinkManager.obj
 0001:00006d70       ??$_Checked_base@PAVPMSNSAP@@@std@@YAPAVPMSNSAP@@AAPAV1@@Z 10b07d70 f i LinkManager.obj
 0001:00006d70       ??$_Checked_base@PAPAX@std@@YAPAPAXAAPAPAX@Z 10b07d70 f i GKernelObj.obj
 0001:00006d70       ??$_Checked_base@PAVPMSStatBase@@@std@@YAPAVPMSStatBase@@AAPAV1@@Z 10b07d70 f i LinkManagerMsg.obj
 0001:00006d70       ??$_Checked_base@PAJ@std@@YAPAJAAPAJ@Z 10b07d70 f i LinkManagerMsg.obj
 0001:00006d70       ??$_Checked_base@PAPAVGSyncObj@@@std@@YAPAPAVGSyncObj@@AAPAPAV1@@Z 10b07d70 f i GKernelObj.obj
 0001:00006d70       ??$_Checked_base@PAVPMSRegionInfo@@@std@@YAPAVPMSRegionInfo@@AAPAV1@@Z 10b07d70 f i LinkManagerMsg.obj
 0001:00006d90       ??$_Copy_opt@PAVPMSNSAP@@PAV1@@std@@YAPAVPMSNSAP@@PAV1@00Urandom_access_iterator_tag@0@U_Nonscalar_ptr_iterator_tag@0@U_Range_checked_iterator_tag@0@@Z 10b07d90 f i LinkManager.obj
 0001:00006df0       ??$_Uninit_fill_n@PAVPMSNSAP@@IV1@V?$allocator@VPMSNSAP@@@std@@@std@@YAXPAVPMSNSAP@@IABV1@AAV?$allocator@VPMSNSAP@@@0@U_Nonscalar_ptr_iterator_tag@0@U_Range_checked_iterator_tag@0@@Z 10b07df0 f i LinkManager.obj
 0001:00006eb0       ??$_Destroy_range@V?$allocator@VPMSNSAP@@@std@@@std@@YAXPAVPMSNSAP@@0AAV?$allocator@VPMSNSAP@@@0@U_Nonscalar_ptr_iterator_tag@0@@Z 10b07eb0 f i LinkManager.obj
 0001:00006ee0       ??$_Unchecked_uninitialized_move@PAVPMSNSAP@@PAV1@V?$allocator@VPMSNSAP@@@std@@@stdext@@YAPAVPMSNSAP@@PAV1@00AAV?$allocator@VPMSNSAP@@@std@@@Z 10b07ee0 f i LinkManager.obj
 0001:00006f30       ??$_Fill@PAVPMSNSAP@@V1@@std@@YAXPAVPMSNSAP@@0ABV1@@Z 10b07f30 f i LinkManager.obj
 0001:00006f60       ??$_Move_backward_opt@PAVPMSNSAP@@PAV1@Urandom_access_iterator_tag@std@@U_Undefined_move_tag@3@@std@@YAPAVPMSNSAP@@PAV1@00Urandom_access_iterator_tag@0@U_Undefined_move_tag@0@U_Range_checked_iterator_tag@0@@Z 10b07f60 f i LinkManager.obj
 0001:00006fb0       ??$_Destroy_range@V?$allocator@VPMSStatBase@@@std@@@std@@YAXPAVPMSStatBase@@0AAV?$allocator@VPMSStatBase@@@0@U_Nonscalar_ptr_iterator_tag@0@@Z 10b07fb0 f i LinkManager.obj
 0001:00006fe0       ??1GBufQ@@QAE@XZ           10b07fe0 f i LinkManager.obj
 0001:00007000       ??$_Destroy_range@V?$allocator@VPMSRegionInfo@@@std@@@std@@YAXPAVPMSRegionInfo@@0AAV?$allocator@VPMSRegionInfo@@@0@U_Nonscalar_ptr_iterator_tag@0@@Z 10b08000 f i LinkManager.obj
 0001:00007030       ?Lock@GSafeBufQ@@UBGXXZ    10b08030 f i LinkManager.obj
 0001:00007050       ?Unlock@GSafeBufQ@@UBGXXZ  10b08050 f i LinkManager.obj
 0001:00007070       ?Pop@GSafeBufQ@@QAEHAAVGBuf@@@Z 10b08070 f i LinkManager.obj
 0001:00007110       ?IsEmpty@GBufQ@@QBEHXZ     10b08110 f i LinkManager.obj
 0001:00007130       ?Pop@GBufQ@@QAEHAAVGBuf@@@Z 10b08130 f i LinkManager.obj
 0001:00007170       ??4GBuf@@QAEAAV0@ABV0@@Z   10b08170 f i LinkManager.obj
 0001:000071a0       ?BCopy@@YAXAAJABJ@Z        10b081a0 f i LinkManager.obj
 0001:000071a0       ?BCopy@@YAXAAKABK@Z        10b081a0 f i LinkManager.obj
 0001:000071b0       ?EventSelect@GSocketHandler@@QAEHIJ@Z 10b081b0 f i LinkManager.obj
 0001:000071e0       ??1_Container_base_aux@std@@QAE@XZ 10b081e0 f i LinkManager.obj
 0001:000071e0       ?Dispatch@GSocketHandler@@UAEXXZ 10b081e0 f i LinkManager.obj
 0001:000071f0       ?construct@?$allocator@VPMSNSAP@@@std@@QAEXPAVPMSNSAP@@ABV3@@Z 10b081f0 f i LinkManager.obj
 0001:00007210       ?destroy@?$allocator@VPMSStatBase@@@std@@QAEXPAVPMSStatBase@@@Z 10b08210 f i LinkManager.obj
 0001:00007230       ?destroy@?$allocator@VPMSRegionInfo@@@std@@QAEXPAVPMSRegionInfo@@@Z 10b08230 f i LinkManager.obj
 0001:00007250       ??$_Copy_opt@PAVPMSNSAP@@PAV1@Uforward_iterator_tag@std@@@std@@YAPAVPMSNSAP@@PAV1@00Uforward_iterator_tag@0@U_Nonscalar_ptr_iterator_tag@0@U_Range_checked_iterator_tag@0@@Z 10b08250 f i LinkManager.obj
 0001:00007290       ??$_Uninit_move@PAVPMSNSAP@@PAV1@V?$allocator@VPMSNSAP@@@std@@U_Undefined_move_tag@3@@std@@YAPAVPMSNSAP@@PAV1@00AAV?$allocator@VPMSNSAP@@@0@U_Undefined_move_tag@0@U_Range_checked_iterator_tag@0@@Z 10b08290 f i LinkManager.obj
 0001:000072b0       ??$_Copy_backward_opt@PAVPMSNSAP@@PAV1@@std@@YAPAVPMSNSAP@@PAV1@00Urandom_access_iterator_tag@0@U_Nonscalar_ptr_iterator_tag@0@U_Range_checked_iterator_tag@0@@Z 10b082b0 f i LinkManager.obj
 0001:00007310       ??0?$basic_string@DU?$char_traits@D@std@@V?$allocator@D@2@@std@@QAE@XZ 10b08310 f i LinkManager.obj
 0001:00007340       ??0?$basic_string@DU?$char_traits@D@std@@V?$allocator@D@2@@std@@QAE@ABV01@@Z 10b08340 f i LinkManager.obj
 0001:00007380       ??4?$basic_string@DU?$char_traits@D@std@@V?$allocator@D@2@@std@@QAEAAV01@PBD@Z 10b08380 f i LinkManager.obj
 0001:000073a0       ??$_Construct@VPMSNSAP@@V1@@std@@YAXPAVPMSNSAP@@ABV1@@Z 10b083a0 f i LinkManager.obj
 0001:00007420       ??$_Destroy@PAU_Node@?$_List_nod@VGBuf@@V?$allocator@VGBuf@@@std@@@std@@@std@@YAXPAPAU_Node@?$_List_nod@VGBuf@@V?$allocator@VGBuf@@@std@@@0@@Z 10b08420 f i LinkManager.obj
 0001:00007420       ??$_Destroy_range@V?$allocator@PAVGSyncObj@@@std@@@std@@YAXPAPAVGSyncObj@@0AAV?$allocator@PAVGSyncObj@@@0@U_Scalar_ptr_iterator_tag@0@@Z 10b08420 f i GKernelObj.obj
 0001:00007420       ??$_Destroy@VPMSNSAP@@@std@@YAXPAVPMSNSAP@@@Z 10b08420 f i LinkManager.obj
 0001:00007420       ??$_Destroy_range@V?$allocator@PAX@std@@@std@@YAXPAPAX0AAV?$allocator@PAX@0@U_Scalar_ptr_iterator_tag@0@@Z 10b08420 f i GKernelObj.obj
 0001:00007420       ??3@YAXPAX0@Z              10b08420 f i LinkManager.obj
 0001:00007420       ??$_Destroy_range@V?$allocator@J@std@@@std@@YAXPAJ0AAV?$allocator@J@0@U_Scalar_ptr_iterator_tag@0@@Z 10b08420 f i LinkManager.obj
 0001:00007430       ??$_Destroy@VPMSStatBase@@@std@@YAXPAVPMSStatBase@@@Z 10b08430 f i LinkManager.obj
 0001:00007440       ??$_Destroy@VPMSRegionInfo@@@std@@YAXPAVPMSRegionInfo@@@Z 10b08440 f i LinkManager.obj
 0001:00007450       ??_GPMSStatBase@@QAEPAXI@Z 10b08450 f i LinkManager.obj
 0001:00007480       ??1PMSStatBase@@QAE@XZ     10b08480 f i LinkManager.obj
 0001:000074a0       ??_GPMSRegionInfo@@QAEPAXI@Z 10b084a0 f i LinkManager.obj
 0001:000074d0       ??1PMSRegionInfo@@QAE@XZ   10b084d0 f i LinkManager.obj
 0001:000074f0       ??$unchecked_uninitialized_copy@PAVPMSNSAP@@PAV1@V?$allocator@VPMSNSAP@@@std@@@stdext@@YAPAVPMSNSAP@@PAV1@00AAV?$allocator@VPMSNSAP@@@std@@@Z 10b084f0 f i LinkManager.obj
 0001:00007550       ??$_Copy_backward_opt@PAVPMSNSAP@@PAV1@Uforward_iterator_tag@std@@@std@@YAPAVPMSNSAP@@PAV1@00Uforward_iterator_tag@0@U_Nonscalar_ptr_iterator_tag@0@U_Range_checked_iterator_tag@0@@Z 10b08550 f i LinkManager.obj
 0001:00007580       ??$_Uninit_copy@PAVPMSNSAP@@PAV1@V?$allocator@VPMSNSAP@@@std@@@std@@YAPAVPMSNSAP@@PAV1@00AAV?$allocator@VPMSNSAP@@@0@U_Nonscalar_ptr_iterator_tag@0@U_Range_checked_iterator_tag@0@@Z 10b08580 f i LinkManager.obj
 0001:00007640       ??0?$list@VGBuf@@V?$allocator@VGBuf@@@std@@@std@@QAE@XZ 10b08640 f i LinkManager.obj
 0001:000076c0       ??1?$list@VGBuf@@V?$allocator@VGBuf@@@std@@@std@@QAE@XZ 10b086c0 f i LinkManager.obj
 0001:00007720       ?size@?$list@VGBuf@@V?$allocator@VGBuf@@@std@@@std@@QBEIXZ 10b08720 f i LinkManager.obj
 0001:00007740       ?front@?$list@VGBuf@@V?$allocator@VGBuf@@@std@@@std@@QAEAAVGBuf@@XZ 10b08740 f i LinkManager.obj
 0001:00007760       ?pop_front@?$list@VGBuf@@V?$allocator@VGBuf@@@std@@@std@@QAEXXZ 10b08760 f i LinkManager.obj
 0001:000077a0       ??0?$ObjLockT@VGSafeBufQ@@@@QAE@QBVGSafeBufQ@@H@Z 10b087a0 f i LinkManager.obj
 0001:000077e0       ??1?$ObjLockT@VGSafeBufQ@@@@QAE@XZ 10b087e0 f i LinkManager.obj
 0001:00007810       ??1?$_List_val@VGBuf@@V?$allocator@VGBuf@@@std@@@std@@QAE@XZ 10b08810 f i LinkManager.obj
 0001:00007830       ??1?$_List_ptr@VGBuf@@V?$allocator@VGBuf@@@std@@@std@@QAE@XZ 10b08830 f i LinkManager.obj
 0001:00007850       ?assign@?$basic_string@DU?$char_traits@D@std@@V?$allocator@D@2@@std@@QAEAAV12@ABV12@@Z 10b08850 f i LinkManager.obj
 0001:00007880       ?begin@?$list@VGBuf@@V?$allocator@VGBuf@@@std@@@std@@QAE?AV?$_Iterator@$00@12@XZ 10b08880 f i LinkManager.obj
 0001:000078b0       ?_Nextnode@?$list@VGBuf@@V?$allocator@VGBuf@@@std@@@std@@KAAAPAU_Node@?$_List_nod@VGBuf@@V?$allocator@VGBuf@@@std@@@2@PAU342@@Z 10b088b0 f i LinkManager.obj
 0001:000078c0       ?erase@?$list@VGBuf@@V?$allocator@VGBuf@@@std@@@std@@QAE?AV?$_Iterator@$00@12@V?$_Const_iterator@$00@12@@Z 10b088c0 f i LinkManager.obj
 0001:00007990       ?_Prevnode@?$list@VGBuf@@V?$allocator@VGBuf@@@std@@@std@@KAAAPAU_Node@?$_List_nod@VGBuf@@V?$allocator@VGBuf@@@std@@@2@PAU342@@Z 10b08990 f i LinkManager.obj
 0001:000079a0       ?_Buynode@?$list@VGBuf@@V?$allocator@VGBuf@@@std@@@std@@IAEPAU_Node@?$_List_nod@VGBuf@@V?$allocator@VGBuf@@@std@@@2@XZ 10b089a0 f i LinkManager.obj
 0001:00007aa0       ?_Tidy@?$list@VGBuf@@V?$allocator@VGBuf@@@std@@@std@@IAEXXZ 10b08aa0 f i LinkManager.obj
 0001:00007b10       ?clear@?$list@VGBuf@@V?$allocator@VGBuf@@@std@@@std@@QAEXXZ 10b08b10 f i LinkManager.obj
 0001:00007bb0       ??0?$_List_val@VGBuf@@V?$allocator@VGBuf@@@std@@@std@@QAE@V?$allocator@VGBuf@@@1@@Z 10b08bb0 f i LinkManager.obj
 0001:00007bf0       ?destroy@?$allocator@U_Node@?$_List_nod@VGBuf@@V?$allocator@VGBuf@@@std@@@std@@@std@@QAEXPAU_Node@?$_List_nod@VGBuf@@V?$allocator@VGBuf@@@std@@@2@@Z 10b08bf0 f i LinkManager.obj
 0001:00007c10       ??0?$_Iterator@$00@?$list@VGBuf@@V?$allocator@VGBuf@@@std@@@std@@QAE@PAU_Node@?$_List_nod@VGBuf@@V?$allocator@VGBuf@@@std@@@2@PBV12@@Z 10b08c10 f i LinkManager.obj
 0001:00007c30       ??D?$_Iterator@$00@?$list@VGBuf@@V?$allocator@VGBuf@@@std@@@std@@QBEAAVGBuf@@XZ 10b08c30 f i LinkManager.obj
 0001:00007c50       ??0?$_Const_iterator@$00@?$list@VGBuf@@V?$allocator@VGBuf@@@std@@@std@@QAE@PAU_Node@?$_List_nod@VGBuf@@V?$allocator@VGBuf@@@std@@@2@PBV12@@Z 10b08c50 f i LinkManager.obj
 0001:00007ca0       ??0?$_Ranit@VPMSNSAP@@HPBV1@ABV1@@std@@QAE@XZ 10b08ca0 f i LinkManager.obj
 0001:00007ca0       ??0?$_Ranit@PAVGSyncObj@@HPBQAV1@ABQAV1@@std@@QAE@XZ 10b08ca0 f i GKernelObj.obj
 0001:00007ca0       ??0?$_Ranit@VPMSStatBase@@HPBV1@ABV1@@std@@QAE@XZ 10b08ca0 f i LinkManager.obj
 0001:00007ca0       ??0?$_Ranit@VPMSRegionInfo@@HPBV1@ABV1@@std@@QAE@XZ 10b08ca0 f i LinkManager.obj
 0001:00007ca0       ??0?$_Ranit@PAXHPBQAXABQAX@std@@QAE@XZ 10b08ca0 f i GKernelObj.obj
 0001:00007ca0       ??0?$_Ranit@JHPBJABJ@std@@QAE@XZ 10b08ca0 f i LinkManager.obj
 0001:00007ca0       ??0?$_Bidit@VGBuf@@HPBV1@ABV1@@std@@QAE@XZ 10b08ca0 f i LinkManager.obj
 0001:00007cc0       ?_Make_iter@?$list@VGBuf@@V?$allocator@VGBuf@@@std@@@std@@QBE?AV?$_Iterator@$00@12@V?$_Const_iterator@$00@12@@Z 10b08cc0 f i LinkManager.obj
 0001:00007ce0       ??0?$_List_ptr@VGBuf@@V?$allocator@VGBuf@@@std@@@std@@IAE@V?$allocator@VGBuf@@@1@@Z 10b08ce0 f i LinkManager.obj
 0001:00007d20       ?allocate@?$allocator@U_Node@?$_List_nod@VGBuf@@V?$allocator@VGBuf@@@std@@@std@@@std@@QAEPAU_Node@?$_List_nod@VGBuf@@V?$allocator@VGBuf@@@std@@@2@I@Z 10b08d20 f i LinkManager.obj
 0001:00007d40       ?construct@?$allocator@PAU_Node@?$_List_nod@VGBuf@@V?$allocator@VGBuf@@@std@@@std@@@std@@QAEXPAPAU_Node@?$_List_nod@VGBuf@@V?$allocator@VGBuf@@@std@@@2@ABQAU342@@Z 10b08d40 f i LinkManager.obj
 0001:00007d60       ?destroy@?$allocator@PAU_Node@?$_List_nod@VGBuf@@V?$allocator@VGBuf@@@std@@@std@@@std@@QAEXPAPAU_Node@?$_List_nod@VGBuf@@V?$allocator@VGBuf@@@std@@@2@@Z 10b08d60 f i LinkManager.obj
 0001:00007d60       ?destroy@?$allocator@VPMSNSAP@@@std@@QAEXPAVPMSNSAP@@@Z 10b08d60 f i LinkManager.obj
 0001:00007d80       ??D?$_Const_iterator@$00@?$list@VGBuf@@V?$allocator@VGBuf@@@std@@@std@@QBEABVGBuf@@XZ 10b08d80 f i LinkManager.obj
 0001:00007de0       ??E?$_Const_iterator@$00@?$list@VGBuf@@V?$allocator@VGBuf@@@std@@@std@@QAE?AV012@H@Z 10b08de0 f i LinkManager.obj
 0001:00007e20       ?_Checked_iterator_base@?$_Vector_iterator@PAVGSyncObj@@V?$allocator@PAVGSyncObj@@@std@@@std@@QBEPAPAVGSyncObj@@XZ 10b08e20 f i GKernelObj.obj
 0001:00007e20       ?_Checked_iterator_base@?$_Vector_iterator@PAXV?$allocator@PAX@std@@@std@@QBEPAPAXXZ 10b08e20 f i GKernelObj.obj
 0001:00007e20       ?_Checked_iterator_base@?$_Vector_const_iterator@PAVGSyncObj@@V?$allocator@PAVGSyncObj@@@std@@@std@@QBEPBQAVGSyncObj@@XZ 10b08e20 f i GKernelObj.obj
 0001:00007e20       ?_Mynode@?$_Const_iterator@$00@?$list@VGBuf@@V?$allocator@VGBuf@@@std@@@std@@QBEPAU_Node@?$_List_nod@VGBuf@@V?$allocator@VGBuf@@@std@@@3@XZ 10b08e20 f i LinkManager.obj
 0001:00007e20       ?_Checked_iterator_base@?$_Vector_iterator@JV?$allocator@J@std@@@std@@QBEPAJXZ 10b08e20 f i LinkManagerMsg.obj
 0001:00007e40       ??0length_error@std@@QAE@ABV01@@Z 10b08e40 f i LinkManager.obj
 0001:00007e70       ?_Myval@?$list@VGBuf@@V?$allocator@VGBuf@@@std@@@std@@KAAAVGBuf@@PAU_Node@?$_List_nod@VGBuf@@V?$allocator@VGBuf@@@std@@@2@@Z 10b08e70 f i LinkManager.obj
 0001:00007e80       ??E?$_Const_iterator@$00@?$list@VGBuf@@V?$allocator@VGBuf@@@std@@@std@@QAEAAV012@XZ 10b08e80 f i LinkManager.obj
 0001:00007ef0       ??$_Destroy@U_Node@?$_List_nod@VGBuf@@V?$allocator@VGBuf@@@std@@@std@@@std@@YAXPAU_Node@?$_List_nod@VGBuf@@V?$allocator@VGBuf@@@std@@@0@@Z 10b08ef0 f i LinkManager.obj
 0001:00007f00       ??$_Allocate@U_Node@?$_List_nod@VGBuf@@V?$allocator@VGBuf@@@std@@@std@@@std@@YAPAU_Node@?$_List_nod@VGBuf@@V?$allocator@VGBuf@@@std@@@0@IPAU120@@Z 10b08f00 f i LinkManager.obj
 0001:00007f50       ??$_Construct@PAU_Node@?$_List_nod@VGBuf@@V?$allocator@VGBuf@@@std@@@std@@PAU123@@std@@YAXPAPAU_Node@?$_List_nod@VGBuf@@V?$allocator@VGBuf@@@std@@@0@ABQAU120@@Z 10b08f50 f i LinkManager.obj
 0001:00007f90       ??_G_Node@?$_List_nod@VGBuf@@V?$allocator@VGBuf@@@std@@@std@@QAEPAXI@Z 10b08f90 f i LinkManager.obj
 0001:00007fc0       ??1_Node@?$_List_nod@VGBuf@@V?$allocator@VGBuf@@@std@@@std@@QAE@XZ 10b08fc0 f i LinkManager.obj
 0001:00007fe0       ?AddRegionInfo@CPMSRegionInfoList@@UAEXKKPAV?$vector@JV?$allocator@J@std@@@std@@@Z 10b08fe0 f   LinkManagerMsg.obj
 0001:00008090       ?AddRegionInfo2@CPMSRegionInfoList@@UAEXKKQAJ@Z 10b09090 f   LinkManagerMsg.obj
 0001:00008130       ?AddRegionInfo238@CPMSRegionInfoList@@UAEXKKQAJ@Z 10b09130 f   LinkManagerMsg.obj
 0001:000081d0       ?AddRegionInfo272@CPMSRegionInfoList@@UAEXKKQAJ@Z 10b091d0 f   LinkManagerMsg.obj
 0001:00008270       ?AddRegionInfoPC@CPMSRegionInfoListPC@@UAEXKKPAV?$vector@JV?$allocator@J@std@@@std@@@Z 10b09270 f   LinkManagerMsg.obj
 0001:00008320       ?AddRegionInfoPC238@CPMSRegionInfoListPC@@UAEXKKQAJ@Z 10b09320 f   LinkManagerMsg.obj
 0001:000083c0       ?AddRegionInfoPC272@CPMSRegionInfoListPC@@UAEXKKQAJ@Z 10b093c0 f   LinkManagerMsg.obj
 0001:00008460       ?AddStatInfoList@CPMSStatInfoList@@UAEXKKKKKKPBD@Z 10b09460 f   LinkManagerMsg.obj
 0001:00008520       ?AddStatInfoListPC@CPMSStatInfoListPC@@UAEXKKKKKKPBD@Z 10b09520 f   LinkManagerMsg.obj
 0001:000085e0       ?SendMsg@CLinkManager@@AAEXABVPayloadHA@@@Z 10b095e0 f   LinkManagerMsg.obj
 0001:00008690       ?OnRcvMsg@CLinkManager@@EAEHPAVGBufSocket@@AAVPayloadGS@@@Z 10b09690 f   LinkManagerMsg.obj
 0001:00008770       ?OnError@CLinkManager@@EAEHPAVGBufSocket@@JH@Z 10b09770 f   LinkManagerMsg.obj
 0001:00008850       ?OnAnnounceReq@CLinkManager@@AAEXPAVPMSAAnnounceReq@@@Z 10b09850 f   LinkManagerMsg.obj
 0001:00008950       ?OnHeartBeatReq@CLinkManager@@AAEXPAVPMSAHeartBeatReq@@@Z 10b09950 f   LinkManagerMsg.obj
 0001:000089f0       ?OnOrderReq@CLinkManager@@AAEXPAVPMSAOrderReq@@@Z 10b099f0 f   LinkManagerMsg.obj
 0001:00008c30       ?OnPerformReq@CLinkManager@@AAEXPAVPMSAPerformReq@@@Z 10b09c30 f   LinkManagerMsg.obj
 0001:00008cc0       ?OnRegionInfoReq@CLinkManager@@AAEXPAVPMSARegionInfoReq@@@Z 10b09cc0 f   LinkManagerMsg.obj
 0001:00008d70       ?OnStatInfoReq@CLinkManager@@AAEXPAVPMSAStatInfoReq@@@Z 10b09d70 f   LinkManagerMsg.obj
 0001:00008e20       ?SendWarningMsg@CLinkManager@@QAEHKPBD0KK@Z 10b09e20 f   LinkManagerMsg.obj
 0001:00008f40       ?OnRegionInfoPCReq@CLinkManager@@AAEXPAVPMSARegionInfoReq@@@Z 10b09f40 f   LinkManagerMsg.obj
 0001:00008ff0       ?OnStatInfoPCReq@CLinkManager@@AAEXPAVPMSAStatInfoReq@@@Z 10b09ff0 f   LinkManagerMsg.obj
 0001:000090a0       ??0PMSRegionInfo@@QAE@XZ   10b0a0a0 f i LinkManagerMsg.obj
 0001:00009110       ?Clear@PMSRegionInfo@@UAEXXZ 10b0a110 f i LinkManagerMsg.obj
 0001:00009140       ??0PMSStatBase@@QAE@XZ     10b0a140 f i LinkManagerMsg.obj
 0001:000091b0       ?Clear@PMSStatBase@@UAEXXZ 10b0a1b0 f i LinkManagerMsg.obj
 0001:00009210       ??0PMSAHeartBeatAns@@QAE@ABJABK@Z 10b0a210 f i LinkManagerMsg.obj
 0001:00009210       ??0PMSAAnnounceAns@@QAE@ABKABJ@Z 10b0a210 f i LinkManagerMsg.obj
 0001:00009250       ??4PMSUnitID@@QAEAAV0@ABV0@@Z 10b0a250 f i LinkManagerMsg.obj
 0001:00009270       ?BCopy@PMSUnitID@@QAEXABV1@@Z 10b0a270 f i LinkManagerMsg.obj
 0001:000092c0       ??0CPMSPerformanceInfo@@QAE@PAV?$ArcVectorT@J@@@Z 10b0a2c0 f i LinkManagerMsg.obj
 0001:000092f0       ?AddPerformanceInfo@CPMSPerformanceInfo@@UAEXPAV?$vector@JV?$allocator@J@std@@@std@@@Z 10b0a2f0 f i LinkManagerMsg.obj
 0001:00009330       ?AddPerformanceInfo2@CPMSPerformanceInfo@@UAEXQAJ@Z 10b0a330 f i LinkManagerMsg.obj
 0001:00009360       ??0IPMSPerformanceInfo@@QAE@XZ 10b0a360 f i LinkManagerMsg.obj
 0001:00009380       ??0CPMSRegionInfoList@@QAE@ABKPAV?$ArcVectorT@VPMSRegionInfo@@@@@Z 10b0a380 f i LinkManagerMsg.obj
 0001:000093c0       ??1CPMSRegionInfoList@@UAE@XZ 10b0a3c0 f i LinkManagerMsg.obj
 0001:000093e0       ??_ECPMSRegionInfoList@@UAEPAXI@Z 10b0a3e0 f i LinkManagerMsg.obj
 0001:000093e0       ??_GCPMSRegionInfoList@@UAEPAXI@Z 10b0a3e0 f i LinkManagerMsg.obj
 0001:00009410       ??0IPMSRegionInfoList@@QAE@XZ 10b0a410 f i LinkManagerMsg.obj
 0001:00009430       ??0CPMSStatInfoList@@QAE@ABKPAV?$ArcVectorT@VPMSStatBase@@@@@Z 10b0a430 f i LinkManagerMsg.obj
 0001:00009470       ??1CPMSStatInfoList@@UAE@XZ 10b0a470 f i LinkManagerMsg.obj
 0001:00009490       ??_GCPMSStatInfoList@@UAEPAXI@Z 10b0a490 f i LinkManagerMsg.obj
 0001:00009490       ??_ECPMSStatInfoList@@UAEPAXI@Z 10b0a490 f i LinkManagerMsg.obj
 0001:000094c0       ??0IPMSStatInfoList@@QAE@XZ 10b0a4c0 f i LinkManagerMsg.obj
 0001:000094e0       ??0CPMSRegionInfoListPC@@QAE@ABKPAV?$ArcVectorT@VPMSRegionInfo@@@@@Z 10b0a4e0 f i LinkManagerMsg.obj
 0001:00009520       ??1CPMSRegionInfoListPC@@UAE@XZ 10b0a520 f i LinkManagerMsg.obj
 0001:00009540       ??_GCPMSRegionInfoListPC@@UAEPAXI@Z 10b0a540 f i LinkManagerMsg.obj
 0001:00009540       ??_ECPMSRegionInfoListPC@@UAEPAXI@Z 10b0a540 f i LinkManagerMsg.obj
 0001:00009570       ??0IPMSRegionInfoListPC@@QAE@XZ 10b0a570 f i LinkManagerMsg.obj
 0001:00009590       ??0CPMSStatInfoListPC@@QAE@ABKPAV?$ArcVectorT@VPMSStatBase@@@@@Z 10b0a590 f i LinkManagerMsg.obj
 0001:000095d0       ??1CPMSStatInfoListPC@@UAE@XZ 10b0a5d0 f i LinkManagerMsg.obj
 0001:000095f0       ??_GCPMSStatInfoListPC@@UAEPAXI@Z 10b0a5f0 f i LinkManagerMsg.obj
 0001:000095f0       ??_ECPMSStatInfoListPC@@UAEPAXI@Z 10b0a5f0 f i LinkManagerMsg.obj
 0001:00009620       ??0IPMSStatInfoListPC@@QAE@XZ 10b0a620 f i LinkManagerMsg.obj
 0001:00009640       ?assign@?$basic_string@DU?$char_traits@D@std@@V?$allocator@D@2@@std@@QAEAAV12@ID@Z 10b0a640 f i LinkManagerMsg.obj
 0001:00009690       ?clear@?$basic_string@DU?$char_traits@D@std@@V?$allocator@D@2@@std@@QAEXXZ 10b0a690 f i LinkManagerMsg.obj
 0001:000096f0       ?find_first_of@?$basic_string@DU?$char_traits@D@std@@V?$allocator@D@2@@std@@QBEIPBDI@Z 10b0a6f0 f i LinkManagerMsg.obj
 0001:00009720       ?push_back@?$vector@VPMSStatBase@@V?$allocator@VPMSStatBase@@@std@@@std@@QAEXABVPMSStatBase@@@Z 10b0a720 f i LinkManagerMsg.obj
 0001:000097a0       ?push_back@?$vector@VPMSRegionInfo@@V?$allocator@VPMSRegionInfo@@@std@@@std@@QAEXABVPMSRegionInfo@@@Z 10b0a7a0 f i LinkManagerMsg.obj
 0001:00009820       ?erase@?$basic_string@DU?$char_traits@D@std@@V?$allocator@D@2@@std@@QAE?AV?$_String_iterator@DU?$char_traits@D@std@@V?$allocator@D@2@@2@V?$_String_const_iterator@DU?$char_traits@D@std@@V?$allocator@D@2@@2@0@Z 10b0a820 f i LinkManagerMsg.obj
 0001:000098b0       ?begin@?$basic_string@DU?$char_traits@D@std@@V?$allocator@D@2@@std@@QAE?AV?$_String_iterator@DU?$char_traits@D@std@@V?$allocator@D@2@@2@XZ 10b0a8b0 f i LinkManagerMsg.obj
 0001:000098e0       ?end@?$basic_string@DU?$char_traits@D@std@@V?$allocator@D@2@@std@@QAE?AV?$_String_iterator@DU?$char_traits@D@std@@V?$allocator@D@2@@2@XZ 10b0a8e0 f i LinkManagerMsg.obj
 0001:00009910       ?find_first_of@?$basic_string@DU?$char_traits@D@std@@V?$allocator@D@2@@std@@QBEIPBDII@Z 10b0a910 f i LinkManagerMsg.obj
 0001:00009990       ?_Chassign@?$basic_string@DU?$char_traits@D@std@@V?$allocator@D@2@@std@@IAEXIID@Z 10b0a990 f i LinkManagerMsg.obj
 0001:000099e0       ?assign@?$char_traits@D@std@@SAPADPADID@Z 10b0a9e0 f i LinkManagerMsg.obj
 0001:00009a00       ?capacity@?$vector@VPMSStatBase@@V?$allocator@VPMSStatBase@@@std@@@std@@QBEIXZ 10b0aa00 f i LinkManagerMsg.obj
 0001:00009a40       ?insert@?$vector@VPMSStatBase@@V?$allocator@VPMSStatBase@@@std@@@std@@QAE?AV?$_Vector_iterator@VPMSStatBase@@V?$allocator@VPMSStatBase@@@std@@@2@V?$_Vector_const_iterator@VPMSStatBase@@V?$allocator@VPMSStatBase@@@std@@@2@ABVPMSStatBase@@@Z 10b0aa40 f i LinkManagerMsg.obj
 0001:00009ac0       ?_Ufill@?$vector@VPMSStatBase@@V?$allocator@VPMSStatBase@@@std@@@std@@IAEPAVPMSStatBase@@PAV3@IABV3@@Z 10b0aac0 f i LinkManagerMsg.obj
 0001:00009b00       ?capacity@?$vector@VPMSRegionInfo@@V?$allocator@VPMSRegionInfo@@@std@@@std@@QBEIXZ 10b0ab00 f i LinkManagerMsg.obj
 0001:00009b40       ?end@?$vector@JV?$allocator@J@std@@@std@@QAE?AV?$_Vector_iterator@JV?$allocator@J@std@@@2@XZ 10b0ab40 f i LinkManagerMsg.obj
 0001:00009b40       ?end@?$vector@PAXV?$allocator@PAX@std@@@std@@QAE?AV?$_Vector_iterator@PAXV?$allocator@PAX@std@@@2@XZ 10b0ab40 f i GKernelObj.obj
 0001:00009b40       ?end@?$vector@VPMSNSAP@@V?$allocator@VPMSNSAP@@@std@@@std@@QAE?AV?$_Vector_iterator@VPMSNSAP@@V?$allocator@VPMSNSAP@@@std@@@2@XZ 10b0ab40 f i LinkManager.obj
 0001:00009b40       ?end@?$vector@VPMSStatBase@@V?$allocator@VPMSStatBase@@@std@@@std@@QAE?AV?$_Vector_iterator@VPMSStatBase@@V?$allocator@VPMSStatBase@@@std@@@2@XZ 10b0ab40 f i LinkManagerMsg.obj
 0001:00009b40       ?end@?$vector@PAVGSyncObj@@V?$allocator@PAVGSyncObj@@@std@@@std@@QAE?AV?$_Vector_iterator@PAVGSyncObj@@V?$allocator@PAVGSyncObj@@@std@@@2@XZ 10b0ab40 f i GKernelObj.obj
 0001:00009b40       ?end@?$vector@VPMSRegionInfo@@V?$allocator@VPMSRegionInfo@@@std@@@std@@QAE?AV?$_Vector_iterator@VPMSRegionInfo@@V?$allocator@VPMSRegionInfo@@@std@@@2@XZ 10b0ab40 f i LinkManagerMsg.obj
 0001:00009b70       ?insert@?$vector@VPMSRegionInfo@@V?$allocator@VPMSRegionInfo@@@std@@@std@@QAE?AV?$_Vector_iterator@VPMSRegionInfo@@V?$allocator@VPMSRegionInfo@@@std@@@2@V?$_Vector_const_iterator@VPMSRegionInfo@@V?$allocator@VPMSRegionInfo@@@std@@@2@ABVPMSRegionInfo@@@Z 10b0ab70 f i LinkManagerMsg.obj
 0001:00009bf0       ?_Ufill@?$vector@VPMSRegionInfo@@V?$allocator@VPMSRegionInfo@@@std@@@std@@IAEPAVPMSRegionInfo@@PAV3@IABV3@@Z 10b0abf0 f i LinkManagerMsg.obj
 0001:00009c30       ?_Pdif@?$basic_string@DU?$char_traits@D@std@@V?$allocator@D@2@@std@@KAIV?$_String_const_iterator@DU?$char_traits@D@std@@V?$allocator@D@2@@2@0@Z 10b0ac30 f i LinkManagerMsg.obj
 0001:00009c60       ?_Insert_n@?$vector@VPMSStatBase@@V?$allocator@VPMSStatBase@@@std@@@std@@IAEXV?$_Vector_const_iterator@VPMSStatBase@@V?$allocator@VPMSStatBase@@@std@@@2@IABVPMSStatBase@@@Z 10b0ac60 f i LinkManagerMsg.obj
 0001:0000a0f0       ??0PMSStatBase@@QAE@ABV0@@Z 10b0b0f0 f i LinkManagerMsg.obj
 0001:0000a170       ?BCopy@PMSStatBase@@QAEXABV1@@Z 10b0b170 f i LinkManagerMsg.obj
 0001:0000a210       ?BCopy@@YAXAAVPMSUnitID@@ABV1@@Z 10b0b210 f i LinkManagerMsg.obj
 0001:0000a230       ?_Insert_n@?$vector@VPMSRegionInfo@@V?$allocator@VPMSRegionInfo@@@std@@@std@@IAEXV?$_Vector_const_iterator@VPMSRegionInfo@@V?$allocator@VPMSRegionInfo@@@std@@@2@IABVPMSRegionInfo@@@Z 10b0b230 f i LinkManagerMsg.obj
 0001:0000a630       ??0PMSRegionInfo@@QAE@ABV0@@Z 10b0b630 f i LinkManagerMsg.obj
 0001:0000a6b0       ?BCopy@PMSRegionInfo@@QAEXABV1@@Z 10b0b6b0 f i LinkManagerMsg.obj
 0001:0000a6f0       ??0?$_String_iterator@DU?$char_traits@D@std@@V?$allocator@D@2@@std@@QAE@PADPBV_Container_base_secure@1@@Z 10b0b6f0 f i LinkManagerMsg.obj
 0001:0000a710       ??H?$_Vector_iterator@VPMSStatBase@@V?$allocator@VPMSStatBase@@@std@@@std@@QBE?AV01@H@Z 10b0b710 f i LinkManagerMsg.obj
 0001:0000a750       ??G?$_Vector_const_iterator@VPMSStatBase@@V?$allocator@VPMSStatBase@@@std@@@std@@QBEHABV01@@Z 10b0b750 f i LinkManagerMsg.obj
 0001:0000a7a0       ??H?$_Vector_iterator@VPMSRegionInfo@@V?$allocator@VPMSRegionInfo@@@std@@@std@@QBE?AV01@H@Z 10b0b7a0 f i LinkManagerMsg.obj
 0001:0000a7e0       ??G?$_Vector_const_iterator@VPMSRegionInfo@@V?$allocator@VPMSRegionInfo@@@std@@@std@@QBEHABV01@@Z 10b0b7e0 f i LinkManagerMsg.obj
 0001:0000a830       ??0?$_String_const_iterator@DU?$char_traits@D@std@@V?$allocator@D@2@@std@@QAE@PBDPBV_Container_base_secure@1@@Z 10b0b830 f i LinkManagerMsg.obj
 0001:0000a890       ??G?$_String_const_iterator@DU?$char_traits@D@std@@V?$allocator@D@2@@std@@QBEHABV01@@Z 10b0b890 f i LinkManagerMsg.obj
 0001:0000a8e0       ?_Same_container@_Iterator_base_secure@std@@QBE_NABV12@@Z 10b0b8e0 f i LinkManagerMsg.obj
 0001:0000a8e0       ?_Same_container@_Iterator_base_aux@std@@QBE_NABV12@@Z 10b0b8e0 f i LinkManager.obj
 0001:0000a900       ??Y?$_Vector_iterator@VPMSStatBase@@V?$allocator@VPMSStatBase@@@std@@@std@@QAEAAV01@H@Z 10b0b900 f i LinkManagerMsg.obj
 0001:0000a920       ??Y?$_Vector_iterator@VPMSRegionInfo@@V?$allocator@VPMSRegionInfo@@@std@@@std@@QAEAAV01@H@Z 10b0b920 f i LinkManagerMsg.obj
 0001:0000a940       ??0_Iterator_base_secure@std@@QAE@XZ 10b0b940 f i LinkManagerMsg.obj
 0001:0000a940       ??0_Iterator_base_aux@std@@QAE@XZ 10b0b940 f i LinkManager.obj
 0001:0000a940       ??0PMSAHeartBeatReq@@QAE@XZ 10b0b940 f i LinkManager.obj
 0001:0000a960       ??Y?$_Vector_const_iterator@VPMSStatBase@@V?$allocator@VPMSStatBase@@@std@@@std@@QAEAAV01@H@Z 10b0b960 f i LinkManagerMsg.obj
 0001:0000a9e0       ??Y?$_Vector_const_iterator@VPMSRegionInfo@@V?$allocator@VPMSRegionInfo@@@std@@@std@@QAEAAV01@H@Z 10b0b9e0 f i LinkManagerMsg.obj
 0001:0000aa60       ??$BCopy@J@@YAXAAV?$ArcVectorT@J@@ABV0@@Z 10b0ba60 f i LinkManagerMsg.obj
 0001:0000aa80       ??$assign@V?$_Vector_iterator@JV?$allocator@J@std@@@std@@@?$vector@JV?$allocator@J@std@@@std@@QAEXV?$_Vector_iterator@JV?$allocator@J@std@@@1@0@Z 10b0ba80 f i LinkManagerMsg.obj
 0001:0000aac0       ??$assign@PAJ@?$vector@JV?$allocator@J@std@@@std@@QAEXPAJ0@Z 10b0bac0 f i LinkManagerMsg.obj
 0001:0000ab00       ??$?0VPMSAAnnounceAns@@@PayloadHA@@QAE@IABVPMSAAnnounceAns@@@Z 10b0bb00 f i LinkManagerMsg.obj
 0001:0000ab00       ??$?0VPMSAHeartBeatAns@@@PayloadHA@@QAE@IABVPMSAHeartBeatAns@@@Z 10b0bb00 f i LinkManagerMsg.obj
 0001:0000aba0       ?BCopy@@YAXAAVPMSAAnnounceAns@@ABV1@@Z 10b0bba0 f i LinkManagerMsg.obj
 0001:0000aba0       ?BCopy@@YAXAAVPMSAHeartBeatAns@@ABV1@@Z 10b0bba0 f i LinkManagerMsg.obj
 0001:0000abc0       ?BCopy@PMSAAnnounceAns@@QAEXABV1@@Z 10b0bbc0 f i LinkManagerMsg.obj
 0001:0000abc0       ?BCopy@PMSAHeartBeatAns@@QAEXABV1@@Z 10b0bbc0 f i LinkManagerMsg.obj
 0001:0000abc0       ?BCopy@PMSNSAP@@QAEXABV1@@Z 10b0bbc0 f i LinkManager.obj
 0001:0000ac00       ??$unchecked_uninitialized_fill_n@PAVPMSStatBase@@IV1@V?$allocator@VPMSStatBase@@@std@@@stdext@@YAXPAVPMSStatBase@@IABV1@AAV?$allocator@VPMSStatBase@@@std@@@Z 10b0bc00 f i LinkManagerMsg.obj
 0001:0000ac50       ??$unchecked_uninitialized_fill_n@PAVPMSRegionInfo@@IV1@V?$allocator@VPMSRegionInfo@@@std@@@stdext@@YAXPAVPMSRegionInfo@@IABV1@AAV?$allocator@VPMSRegionInfo@@@std@@@Z 10b0bc50 f i LinkManagerMsg.obj
 0001:0000aca0       ??$_Umove@PAVPMSStatBase@@@?$vector@VPMSStatBase@@V?$allocator@VPMSStatBase@@@std@@@std@@IAEPAVPMSStatBase@@PAV2@00@Z 10b0bca0 f i LinkManagerMsg.obj
 0001:0000acd0       ??$fill@PAVPMSStatBase@@V1@@std@@YAXPAVPMSStatBase@@0ABV1@@Z 10b0bcd0 f i LinkManagerMsg.obj
 0001:0000ad00       ??$_Unchecked_move_backward@PAVPMSStatBase@@PAV1@@stdext@@YAPAVPMSStatBase@@PAV1@00@Z 10b0bd00 f i LinkManagerMsg.obj
 0001:0000ad70       ??$_Umove@PAVPMSRegionInfo@@@?$vector@VPMSRegionInfo@@V?$allocator@VPMSRegionInfo@@@std@@@std@@IAEPAVPMSRegionInfo@@PAV2@00@Z 10b0bd70 f i LinkManagerMsg.obj
 0001:0000ada0       ??$fill@PAVPMSRegionInfo@@V1@@std@@YAXPAVPMSRegionInfo@@0ABV1@@Z 10b0bda0 f i LinkManagerMsg.obj
 0001:0000add0       ??$_Unchecked_move_backward@PAVPMSRegionInfo@@PAV1@@stdext@@YAPAVPMSRegionInfo@@PAV1@00@Z 10b0bdd0 f i LinkManagerMsg.obj
 0001:0000ae40       ?BCopy@?$ArcVectorT@J@@QAEXABV1@@Z 10b0be40 f i LinkManagerMsg.obj
 0001:0000aee0       ?back@?$vector@JV?$allocator@J@std@@@std@@QAEAAJXZ 10b0bee0 f i LinkManagerMsg.obj
 0001:0000af10       ??D?$_Vector_iterator@JV?$allocator@J@std@@@std@@QBEAAJXZ 10b0bf10 f i LinkManagerMsg.obj
 0001:0000af30       ??G?$_Vector_iterator@JV?$allocator@J@std@@@std@@QBE?AV01@H@Z 10b0bf30 f i LinkManagerMsg.obj
 0001:0000af70       ??Z?$_Vector_iterator@JV?$allocator@J@std@@@std@@QAEAAV01@H@Z 10b0bf70 f i LinkManagerMsg.obj
 0001:0000af90       ?Push@GSafeBufQ@@QAEXABVGBuf@@@Z 10b0bf90 f i LinkManagerMsg.obj
 0001:0000b000       ?Push@GBufQ@@QAEXABVGBuf@@@Z 10b0c000 f i LinkManagerMsg.obj
 0001:0000b020       ??Y?$_Vector_iterator@PAVGSyncObj@@V?$allocator@PAVGSyncObj@@@std@@@std@@QAEAAV01@H@Z 10b0c020 f i GKernelObj.obj
 0001:0000b020       ??Y?$_Vector_iterator@PAXV?$allocator@PAX@std@@@std@@QAEAAV01@H@Z 10b0c020 f i GKernelObj.obj
 0001:0000b020       ??Y?$_Vector_iterator@JV?$allocator@J@std@@@std@@QAEAAV01@H@Z 10b0c020 f i LinkManagerMsg.obj
 0001:0000b040       ??Y?$_Vector_const_iterator@PAVGSyncObj@@V?$allocator@PAVGSyncObj@@@std@@@std@@QAEAAV01@H@Z 10b0c040 f i GKernelObj.obj
 0001:0000b040       ??Y?$_Vector_const_iterator@JV?$allocator@J@std@@@std@@QAEAAV01@H@Z 10b0c040 f i LinkManagerMsg.obj
 0001:0000b040       ??Y?$_Vector_const_iterator@PAXV?$allocator@PAX@std@@@std@@QAEAAV01@H@Z 10b0c040 f i GKernelObj.obj
 0001:0000b0c0       ?BCopy@@YAXAAV?$basic_string@DU?$char_traits@D@std@@V?$allocator@D@2@@std@@ABV12@@Z 10b0c0c0 f i LinkManagerMsg.obj
 0001:0000b0e0       ??$_Assign@V?$_Vector_iterator@JV?$allocator@J@std@@@std@@@?$vector@JV?$allocator@J@std@@@std@@QAEXV?$_Vector_iterator@JV?$allocator@J@std@@@1@0Uinput_iterator_tag@1@@Z 10b0c0e0 f i LinkManagerMsg.obj
 0001:0000b170       ??$_Assign@PAJ@?$vector@JV?$allocator@J@std@@@std@@QAEXPAJ0Uinput_iterator_tag@1@@Z 10b0c170 f i LinkManagerMsg.obj
 0001:0000b200       ??$_Uninit_fill_n@PAVPMSStatBase@@IV1@V?$allocator@VPMSStatBase@@@std@@@std@@YAXPAVPMSStatBase@@IABV1@AAV?$allocator@VPMSStatBase@@@0@U_Nonscalar_ptr_iterator_tag@0@U_Range_checked_iterator_tag@0@@Z 10b0c200 f i LinkManagerMsg.obj
 0001:0000b2c0       ??$_Uninit_fill_n@PAVPMSRegionInfo@@IV1@V?$allocator@VPMSRegionInfo@@@std@@@std@@YAXPAVPMSRegionInfo@@IABV1@AAV?$allocator@VPMSRegionInfo@@@0@U_Nonscalar_ptr_iterator_tag@0@U_Range_checked_iterator_tag@0@@Z 10b0c2c0 f i LinkManagerMsg.obj
 0001:0000b380       ??4?$basic_string@DU?$char_traits@D@std@@V?$allocator@D@2@@std@@QAEAAV01@ABV01@@Z 10b0c380 f i LinkManagerMsg.obj
 0001:0000b3a0       ??$_Unchecked_uninitialized_move@PAVPMSStatBase@@PAV1@V?$allocator@VPMSStatBase@@@std@@@stdext@@YAPAVPMSStatBase@@PAV1@00AAV?$allocator@VPMSStatBase@@@std@@@Z 10b0c3a0 f i LinkManagerMsg.obj
 0001:0000b3f0       ??$_Fill@PAVPMSStatBase@@V1@@std@@YAXPAVPMSStatBase@@0ABV1@@Z 10b0c3f0 f i LinkManagerMsg.obj
 0001:0000b420       ??4PMSStatBase@@QAEAAV0@ABV0@@Z 10b0c420 f i LinkManagerMsg.obj
 0001:0000b440       ??$_Move_backward_opt@PAVPMSStatBase@@PAV1@Urandom_access_iterator_tag@std@@U_Undefined_move_tag@3@@std@@YAPAVPMSStatBase@@PAV1@00Urandom_access_iterator_tag@0@U_Undefined_move_tag@0@U_Range_checked_iterator_tag@0@@Z 10b0c440 f i LinkManagerMsg.obj
 0001:0000b490       ??$_Unchecked_uninitialized_move@PAVPMSRegionInfo@@PAV1@V?$allocator@VPMSRegionInfo@@@std@@@stdext@@YAPAVPMSRegionInfo@@PAV1@00AAV?$allocator@VPMSRegionInfo@@@std@@@Z 10b0c490 f i LinkManagerMsg.obj
 0001:0000b4e0       ??$_Fill@PAVPMSRegionInfo@@V1@@std@@YAXPAVPMSRegionInfo@@0ABV1@@Z 10b0c4e0 f i LinkManagerMsg.obj
 0001:0000b510       ??4PMSRegionInfo@@QAEAAV0@ABV0@@Z 10b0c510 f i LinkManagerMsg.obj
 0001:0000b530       ??$_Move_backward_opt@PAVPMSRegionInfo@@PAV1@Urandom_access_iterator_tag@std@@U_Undefined_move_tag@3@@std@@YAPAVPMSRegionInfo@@PAV1@00Urandom_access_iterator_tag@0@U_Undefined_move_tag@0@U_Range_checked_iterator_tag@0@@Z 10b0c530 f i LinkManagerMsg.obj
 0001:0000b580       ??$_Umove@PAJ@?$vector@JV?$allocator@J@std@@@std@@IAEPAJPAJ00@Z 10b0c580 f i LinkManagerMsg.obj
 0001:0000b580       ??$_Umove@PAPAVGSyncObj@@@?$vector@PAVGSyncObj@@V?$allocator@PAVGSyncObj@@@std@@@std@@IAEPAPAVGSyncObj@@PAPAV2@00@Z 10b0c580 f i GKernelObj.obj
 0001:0000b580       ??$_Umove@PAPAX@?$vector@PAXV?$allocator@PAX@std@@@std@@IAEPAPAXPAPAX00@Z 10b0c580 f i GKernelObj.obj
 0001:0000b5b0       ?construct@?$allocator@VPMSStatBase@@@std@@QAEXPAVPMSStatBase@@ABV3@@Z 10b0c5b0 f i LinkManagerMsg.obj
 0001:0000b5d0       ?construct@?$allocator@VPMSRegionInfo@@@std@@QAEXPAVPMSRegionInfo@@ABV3@@Z 10b0c5d0 f i LinkManagerMsg.obj
 0001:0000b5f0       ??$insert@V?$_Vector_iterator@JV?$allocator@J@std@@@std@@@?$vector@JV?$allocator@J@std@@@std@@QAEXV?$_Vector_const_iterator@JV?$allocator@J@std@@@1@V?$_Vector_iterator@JV?$allocator@J@std@@@1@1@Z 10b0c5f0 f i LinkManagerMsg.obj
 0001:0000b640       ??$insert@PAJ@?$vector@JV?$allocator@J@std@@@std@@QAEXV?$_Vector_const_iterator@JV?$allocator@J@std@@@1@PAJ1@Z 10b0c640 f i LinkManagerMsg.obj
 0001:0000b680       ??$_Checked_base@PAPAVGSyncObj@@@std@@YAPAPAVGSyncObj@@AAPAPAV1@U_Unchanged_checked_iterator_base_type_tag@0@@Z 10b0c680 f i GKernelObj.obj
 0001:0000b680       ??$_Checked_base@PAVPMSRegionInfo@@@std@@YAPAVPMSRegionInfo@@AAPAV1@U_Unchanged_checked_iterator_base_type_tag@0@@Z 10b0c680 f i LinkManagerMsg.obj
 0001:0000b680       ??$_Checked_base@PAVPMSStatBase@@@std@@YAPAVPMSStatBase@@AAPAV1@U_Unchanged_checked_iterator_base_type_tag@0@@Z 10b0c680 f i LinkManagerMsg.obj
 0001:0000b680       ??$_Checked_base@PAJ@std@@YAPAJAAPAJU_Unchanged_checked_iterator_base_type_tag@0@@Z 10b0c680 f i LinkManagerMsg.obj
 0001:0000b680       ??$_Checked_base@PAPAX@std@@YAPAPAXAAPAPAXU_Unchanged_checked_iterator_base_type_tag@0@@Z 10b0c680 f i GKernelObj.obj
 0001:0000b680       ??$_Checked_base@PAVPMSNSAP@@@std@@YAPAVPMSNSAP@@AAPAV1@U_Unchanged_checked_iterator_base_type_tag@0@@Z 10b0c680 f i LinkManager.obj
 0001:0000b690       ??$_Uninit_move@PAVPMSStatBase@@PAV1@V?$allocator@VPMSStatBase@@@std@@U_Undefined_move_tag@3@@std@@YAPAVPMSStatBase@@PAV1@00AAV?$allocator@VPMSStatBase@@@0@U_Undefined_move_tag@0@U_Range_checked_iterator_tag@0@@Z 10b0c690 f i LinkManagerMsg.obj
 0001:0000b6b0       ??$_Copy_backward_opt@PAVPMSStatBase@@PAV1@@std@@YAPAVPMSStatBase@@PAV1@00Urandom_access_iterator_tag@0@U_Nonscalar_ptr_iterator_tag@0@U_Range_checked_iterator_tag@0@@Z 10b0c6b0 f i LinkManagerMsg.obj
 0001:0000b710       ??$_Uninit_move@PAVPMSRegionInfo@@PAV1@V?$allocator@VPMSRegionInfo@@@std@@U_Undefined_move_tag@3@@std@@YAPAVPMSRegionInfo@@PAV1@00AAV?$allocator@VPMSRegionInfo@@@0@U_Undefined_move_tag@0@U_Range_checked_iterator_tag@0@@Z 10b0c710 f i LinkManagerMsg.obj
 0001:0000b730       ??$_Copy_backward_opt@PAVPMSRegionInfo@@PAV1@@std@@YAPAVPMSRegionInfo@@PAV1@00Urandom_access_iterator_tag@0@U_Nonscalar_ptr_iterator_tag@0@U_Range_checked_iterator_tag@0@@Z 10b0c730 f i LinkManagerMsg.obj
 0001:0000b790       ??$_Uninit_fill_n@PAJIJV?$allocator@J@std@@@std@@YAXPAJIABJAAV?$allocator@J@0@U_Scalar_ptr_iterator_tag@0@U_Range_checked_iterator_tag@0@@Z 10b0c790 f i LinkManagerMsg.obj
 0001:0000b790       ??$_Uninit_fill_n@PAPAVGSyncObj@@IPAV1@V?$allocator@PAVGSyncObj@@@std@@@std@@YAXPAPAVGSyncObj@@IABQAV1@AAV?$allocator@PAVGSyncObj@@@0@U_Scalar_ptr_iterator_tag@0@U_Range_checked_iterator_tag@0@@Z 10b0c790 f i GKernelObj.obj
 0001:0000b790       ??$_Uninit_fill_n@PAPAXIPAXV?$allocator@PAX@std@@@std@@YAXPAPAXIABQAXAAV?$allocator@PAX@0@U_Scalar_ptr_iterator_tag@0@U_Range_checked_iterator_tag@0@@Z 10b0c790 f i GKernelObj.obj
 0001:0000b7b0       ??$_Unchecked_uninitialized_move@PAPAVGSyncObj@@PAPAV1@V?$allocator@PAVGSyncObj@@@std@@@stdext@@YAPAPAVGSyncObj@@PAPAV1@00AAV?$allocator@PAVGSyncObj@@@std@@@Z 10b0c7b0 f i GKernelObj.obj
 0001:0000b7b0       ??$_Unchecked_uninitialized_move@PAJPAJV?$allocator@J@std@@@stdext@@YAPAJPAJ00AAV?$allocator@J@std@@@Z 10b0c7b0 f i LinkManagerMsg.obj
 0001:0000b7b0       ??$_Unchecked_uninitialized_move@PAPAXPAPAXV?$allocator@PAX@std@@@stdext@@YAPAPAXPAPAX00AAV?$allocator@PAX@std@@@Z 10b0c7b0 f i GKernelObj.obj
 0001:0000b800       ??$_Move_backward_opt@PAPAVGSyncObj@@PAPAV1@Urandom_access_iterator_tag@std@@U_Undefined_move_tag@3@@std@@YAPAPAVGSyncObj@@PAPAV1@00Urandom_access_iterator_tag@0@U_Undefined_move_tag@0@U_Range_checked_iterator_tag@0@@Z 10b0c800 f i GKernelObj.obj
 0001:0000b800       ??$_Move_backward_opt@PAJPAJUrandom_access_iterator_tag@std@@U_Undefined_move_tag@2@@std@@YAPAJPAJ00Urandom_access_iterator_tag@0@U_Undefined_move_tag@0@U_Range_checked_iterator_tag@0@@Z 10b0c800 f i LinkManagerMsg.obj
 0001:0000b800       ??$_Move_backward_opt@PAPAXPAPAXUrandom_access_iterator_tag@std@@U_Undefined_move_tag@2@@std@@YAPAPAXPAPAX00Urandom_access_iterator_tag@0@U_Undefined_move_tag@0@U_Range_checked_iterator_tag@0@@Z 10b0c800 f i GKernelObj.obj
 0001:0000b850       ??$_Construct@VPMSStatBase@@V1@@std@@YAXPAVPMSStatBase@@ABV1@@Z 10b0c850 f i LinkManagerMsg.obj
 0001:0000b8d0       ??$_Construct@VPMSRegionInfo@@V1@@std@@YAXPAVPMSRegionInfo@@ABV1@@Z 10b0c8d0 f i LinkManagerMsg.obj
 0001:0000b950       ??$_Insert@V?$_Vector_iterator@JV?$allocator@J@std@@@std@@@?$vector@JV?$allocator@J@std@@@std@@QAEXV?$_Vector_const_iterator@JV?$allocator@J@std@@@1@V?$_Vector_iterator@JV?$allocator@J@std@@@1@1Uforward_iterator_tag@1@@Z 10b0c950 f i LinkManagerMsg.obj
 0001:0000bc00       ??$_Insert@PAJ@?$vector@JV?$allocator@J@std@@@std@@QAEXV?$_Vector_const_iterator@JV?$allocator@J@std@@@1@PAJ1Uforward_iterator_tag@1@@Z 10b0cc00 f i LinkManagerMsg.obj
 0001:0000bea0       ??$unchecked_uninitialized_copy@PAVPMSStatBase@@PAV1@V?$allocator@VPMSStatBase@@@std@@@stdext@@YAPAVPMSStatBase@@PAV1@00AAV?$allocator@VPMSStatBase@@@std@@@Z 10b0cea0 f i LinkManagerMsg.obj
 0001:0000bf00       ??$_Copy_backward_opt@PAVPMSStatBase@@PAV1@Uforward_iterator_tag@std@@@std@@YAPAVPMSStatBase@@PAV1@00Uforward_iterator_tag@0@U_Nonscalar_ptr_iterator_tag@0@U_Range_checked_iterator_tag@0@@Z 10b0cf00 f i LinkManagerMsg.obj
 0001:0000bf30       ??$unchecked_uninitialized_copy@PAVPMSRegionInfo@@PAV1@V?$allocator@VPMSRegionInfo@@@std@@@stdext@@YAPAVPMSRegionInfo@@PAV1@00AAV?$allocator@VPMSRegionInfo@@@std@@@Z 10b0cf30 f i LinkManagerMsg.obj
 0001:0000bf90       ??$_Copy_backward_opt@PAVPMSRegionInfo@@PAV1@Uforward_iterator_tag@std@@@std@@YAPAVPMSRegionInfo@@PAV1@00Uforward_iterator_tag@0@U_Nonscalar_ptr_iterator_tag@0@U_Range_checked_iterator_tag@0@@Z 10b0cf90 f i LinkManagerMsg.obj
 0001:0000bfc0       ??$unchecked_fill_n@PAJIJ@stdext@@YAXPAJIABJ@Z 10b0cfc0 f i LinkManagerMsg.obj
 0001:0000bfc0       ??$unchecked_fill_n@PAPAXIPAX@stdext@@YAXPAPAXIABQAX@Z 10b0cfc0 f i GKernelObj.obj
 0001:0000bfc0       ??$unchecked_fill_n@PAPAVGSyncObj@@IPAV1@@stdext@@YAXPAPAVGSyncObj@@IABQAV1@@Z 10b0cfc0 f i GKernelObj.obj
 0001:0000c000       ??$_Uninit_move@PAPAXPAPAXV?$allocator@PAX@std@@U_Undefined_move_tag@2@@std@@YAPAPAXPAPAX00AAV?$allocator@PAX@0@U_Undefined_move_tag@0@U_Range_checked_iterator_tag@0@@Z 10b0d000 f i GKernelObj.obj
 0001:0000c000       ??$_Uninit_move@PAPAVGSyncObj@@PAPAV1@V?$allocator@PAVGSyncObj@@@std@@U_Undefined_move_tag@3@@std@@YAPAPAVGSyncObj@@PAPAV1@00AAV?$allocator@PAVGSyncObj@@@0@U_Undefined_move_tag@0@U_Range_checked_iterator_tag@0@@Z 10b0d000 f i GKernelObj.obj
 0001:0000c000       ??$_Uninit_move@PAJPAJV?$allocator@J@std@@U_Undefined_move_tag@2@@std@@YAPAJPAJ00AAV?$allocator@J@0@U_Undefined_move_tag@0@U_Range_checked_iterator_tag@0@@Z 10b0d000 f i LinkManagerMsg.obj
 0001:0000c020       ?_Reverse@?$vector@JV?$allocator@J@std@@@std@@QAEXPAJ0@Z 10b0d020 f i LinkManagerMsg.obj
 0001:0000c070       ??$_Distance@V?$_Vector_iterator@JV?$allocator@J@std@@@std@@I@std@@YAXV?$_Vector_iterator@JV?$allocator@J@std@@@0@0AAI@Z 10b0d070 f i LinkManagerMsg.obj
 0001:0000c0b0       ??$_Ucopy@V?$_Vector_iterator@JV?$allocator@J@std@@@std@@@?$vector@JV?$allocator@J@std@@@std@@IAEPAJV?$_Vector_iterator@JV?$allocator@J@std@@@1@0PAJ@Z 10b0d0b0 f i LinkManagerMsg.obj
 0001:0000c0e0       ??$_Distance@PAJI@std@@YAXPAJ0AAI@Z 10b0d0e0 f i LinkManagerMsg.obj
 0001:0000c110       ??$_Ucopy@PAJ@?$vector@JV?$allocator@J@std@@@std@@IAEPAJPAJ00@Z 10b0d110 f i LinkManagerMsg.obj
 0001:0000c140       ??$_Uninit_copy@PAVPMSStatBase@@PAV1@V?$allocator@VPMSStatBase@@@std@@@std@@YAPAVPMSStatBase@@PAV1@00AAV?$allocator@VPMSStatBase@@@0@U_Nonscalar_ptr_iterator_tag@0@U_Range_checked_iterator_tag@0@@Z 10b0d140 f i LinkManagerMsg.obj
 0001:0000c200       ?push_back@?$list@VGBuf@@V?$allocator@VGBuf@@@std@@@std@@QAEXABVGBuf@@@Z 10b0d200 f i LinkManagerMsg.obj
 0001:0000c240       ?end@?$list@VGBuf@@V?$allocator@VGBuf@@@std@@@std@@QAE?AV?$_Iterator@$00@12@XZ 10b0d240 f i LinkManagerMsg.obj
 0001:0000c270       ??$_Uninit_copy@PAVPMSRegionInfo@@PAV1@V?$allocator@VPMSRegionInfo@@@std@@@std@@YAPAVPMSRegionInfo@@PAV1@00AAV?$allocator@VPMSRegionInfo@@@0@U_Nonscalar_ptr_iterator_tag@0@U_Range_checked_iterator_tag@0@@Z 10b0d270 f i LinkManagerMsg.obj
 0001:0000c330       ??$_Fill_n@PAPAVGSyncObj@@IPAV1@@std@@YAXPAPAVGSyncObj@@IABQAV1@Urandom_access_iterator_tag@0@U_Range_checked_iterator_tag@0@@Z 10b0d330 f i GKernelObj.obj
 0001:0000c330       ??$_Fill_n@PAPAXIPAX@std@@YAXPAPAXIABQAXUrandom_access_iterator_tag@0@U_Range_checked_iterator_tag@0@@Z 10b0d330 f i GKernelObj.obj
 0001:0000c330       ??$_Fill_n@PAJIJ@std@@YAXPAJIABJUrandom_access_iterator_tag@0@U_Range_checked_iterator_tag@0@@Z 10b0d330 f i LinkManagerMsg.obj
 0001:0000c370       ??$unchecked_uninitialized_copy@PAJPAJV?$allocator@J@std@@@stdext@@YAPAJPAJ00AAV?$allocator@J@std@@@Z 10b0d370 f i LinkManagerMsg.obj
 0001:0000c370       ??$unchecked_uninitialized_copy@PAPAVGSyncObj@@PAPAV1@V?$allocator@PAVGSyncObj@@@std@@@stdext@@YAPAPAVGSyncObj@@PAPAV1@00AAV?$allocator@PAVGSyncObj@@@std@@@Z 10b0d370 f i GKernelObj.obj
 0001:0000c370       ??$unchecked_uninitialized_copy@PAPAXPAPAXV?$allocator@PAX@std@@@stdext@@YAPAPAXPAPAX00AAV?$allocator@PAX@std@@@Z 10b0d370 f i GKernelObj.obj
 0001:0000c3d0       ??$_Swap_adl@J@std@@YAXAAJ0@Z 10b0d3d0 f i LinkManagerMsg.obj
 0001:0000c3f0       ??$_Distance2@V?$_Vector_iterator@JV?$allocator@J@std@@@std@@I@std@@YAXV?$_Vector_iterator@JV?$allocator@J@std@@@0@0AAIUrandom_access_iterator_tag@0@@Z 10b0d3f0 f i LinkManagerMsg.obj
 0001:0000c410       ??$unchecked_uninitialized_copy@V?$_Vector_iterator@JV?$allocator@J@std@@@std@@PAJV?$allocator@J@2@@stdext@@YAPAJV?$_Vector_iterator@JV?$allocator@J@std@@@std@@0PAJAAV?$allocator@J@2@@Z 10b0d410 f i LinkManagerMsg.obj
 0001:0000c470       ??$_Distance2@PAJI@std@@YAXPAJ0AAIUrandom_access_iterator_tag@0@@Z 10b0d470 f i LinkManagerMsg.obj
 0001:0000c490       ??$_Fill_n@PAJIJ@std@@YAXPAJIABJU_Range_checked_iterator_tag@0@@Z 10b0d490 f i LinkManagerMsg.obj
 0001:0000c490       ??$_Fill_n@PAPAXIPAX@std@@YAXPAPAXIABQAXU_Range_checked_iterator_tag@0@@Z 10b0d490 f i GKernelObj.obj
 0001:0000c490       ??$_Fill_n@PAPAVGSyncObj@@IPAV1@@std@@YAXPAPAVGSyncObj@@IABQAV1@U_Range_checked_iterator_tag@0@@Z 10b0d490 f i GKernelObj.obj
 0001:0000c4c0       ??$_Uninit_copy@PAPAVGSyncObj@@PAPAV1@V?$allocator@PAVGSyncObj@@@std@@@std@@YAPAPAVGSyncObj@@PAPAV1@00AAV?$allocator@PAVGSyncObj@@@0@U_Scalar_ptr_iterator_tag@0@U_Range_checked_iterator_tag@0@@Z 10b0d4c0 f i GKernelObj.obj
 0001:0000c4c0       ??$_Uninit_copy@PAJPAJV?$allocator@J@std@@@std@@YAPAJPAJ00AAV?$allocator@J@0@U_Scalar_ptr_iterator_tag@0@U_Range_checked_iterator_tag@0@@Z 10b0d4c0 f i LinkManagerMsg.obj
 0001:0000c4c0       ??$_Uninit_copy@PAPAXPAPAXV?$allocator@PAX@std@@@std@@YAPAPAXPAPAX00AAV?$allocator@PAX@0@U_Scalar_ptr_iterator_tag@0@U_Range_checked_iterator_tag@0@@Z 10b0d4c0 f i GKernelObj.obj
 0001:0000c510       ??$swap@J@std@@YAXAAJ0@Z   10b0d510 f i LinkManagerMsg.obj
 0001:0000c540       ??G?$_Vector_iterator@JV?$allocator@J@std@@@std@@QBEHABV?$_Vector_const_iterator@JV?$allocator@J@std@@@1@@Z 10b0d540 f i LinkManagerMsg.obj
 0001:0000c560       ??$_Checked_base@V?$_Vector_iterator@JV?$allocator@J@std@@@std@@U_Different_checked_iterator_base_type_tag@2@@std@@YAPAJAAV?$_Vector_iterator@JV?$allocator@J@std@@@0@U_Different_checked_iterator_base_type_tag@0@@Z 10b0d560 f i LinkManagerMsg.obj
 0001:0000c560       ??$_Checked_base@V?$_Vector_iterator@PAXV?$allocator@PAX@std@@@std@@U_Different_checked_iterator_base_type_tag@2@@std@@YAPAPAXAAV?$_Vector_iterator@PAXV?$allocator@PAX@std@@@0@U_Different_checked_iterator_base_type_tag@0@@Z 10b0d560 f i GKernelObj.obj
 0001:0000c560       ??$_Checked_base@V?$_Vector_iterator@PAVGSyncObj@@V?$allocator@PAVGSyncObj@@@std@@@std@@U_Different_checked_iterator_base_type_tag@2@@std@@YAPAPAVGSyncObj@@AAV?$_Vector_iterator@PAVGSyncObj@@V?$allocator@PAVGSyncObj@@@std@@@0@U_Different_checked_iterator_base_type_tag@0@@Z 10b0d560 f i GKernelObj.obj
 0001:0000c560       ??$_Checked_base@V?$_Vector_const_iterator@PAVGSyncObj@@V?$allocator@PAVGSyncObj@@@std@@@std@@U_Different_checked_iterator_base_type_tag@2@@std@@YAPBQAVGSyncObj@@AAV?$_Vector_const_iterator@PAVGSyncObj@@V?$allocator@PAVGSyncObj@@@std@@@0@U_Different_checked_iterator_base_type_tag@0@@Z 10b0d560 f i GKernelObj.obj
 0001:0000c570       ?_Insert@?$list@VGBuf@@V?$allocator@VGBuf@@@std@@@std@@QAEXV?$_Const_iterator@$00@12@ABVGBuf@@@Z 10b0d570 f i LinkManagerMsg.obj
 0001:0000c5f0       ?_Buynode@?$list@VGBuf@@V?$allocator@VGBuf@@@std@@@std@@IAEPAU_Node@?$_List_nod@VGBuf@@V?$allocator@VGBuf@@@std@@@2@PAU342@0ABVGBuf@@@Z 10b0d5f0 f i LinkManagerMsg.obj
 0001:0000c740       ?_Incsize@?$list@VGBuf@@V?$allocator@VGBuf@@@std@@@std@@IAEXI@Z 10b0d740 f i LinkManagerMsg.obj
 0001:0000c7e0       ?max_size@?$list@VGBuf@@V?$allocator@VGBuf@@@std@@@std@@QBEIXZ 10b0d7e0 f i LinkManagerMsg.obj
 0001:0000c800       ?construct@?$allocator@VGBuf@@@std@@QAEXPAVGBuf@@ABV3@@Z 10b0d800 f i LinkManagerMsg.obj
 0001:0000c820       ?max_size@?$allocator@PAX@std@@QBEIXZ 10b0d820 f i GKernelObj.obj
 0001:0000c820       ?max_size@?$allocator@J@std@@QBEIXZ 10b0d820 f i LinkManager.obj
 0001:0000c820       ?max_size@?$allocator@PAVGSyncObj@@@std@@QBEIXZ 10b0d820 f i GKernelObj.obj
 0001:0000c820       ?max_size@?$allocator@VGBuf@@@std@@QBEIXZ 10b0d820 f i LinkManagerMsg.obj
 0001:0000c850       ??$_Construct@VGBuf@@V1@@std@@YAXPAVGBuf@@ABV1@@Z 10b0d850 f i LinkManagerMsg.obj
 0001:0000c8d0       ??0GBuf@@QAE@ABV0@@Z       10b0d8d0 f i LinkManagerMsg.obj
 0001:0000c900       _DllMain@12                10b0d900 f   PMSConn.obj
 0001:0000c950       ?PMSInitConn@@YAKKQAPAD@Z  10b0d950 f   PMSConn.obj
 0001:0000c970       ?PMSRunConn@@YAKPAUIPMSObject@@@Z 10b0d970 f   PMSConn.obj
 0001:0000c990       ?PMSStopConn@@YAXXZ        10b0d990 f   PMSConn.obj
 0001:0000c9a0       ?PMSSendWarningMsg@@YAHKPBD0KK@Z 10b0d9a0 f   PMSConn.obj
 0001:0000c9d0       ?PMSGetConfigFileName@@YAPBDXZ 10b0d9d0 f   PMSConn.obj
 0001:0000c9e0       ?PMSGetStatus@@YAKXZ       10b0d9e0 f   PMSConn.obj
 0001:0000c9f0       ?GetStatus@CLinkManager@@QAEKXZ 10b0d9f0 f i PMSConn.obj
 0001:0000ca10       ?HostToNetwork@@YAGG@Z     10b0da10 f   GAdlUtl.obj
 0001:0000ca40       ?NetworkToHost@@YAGG@Z     10b0da40 f   GAdlUtl.obj
 0001:0000ca80       ?HostToNetwork@@YAFF@Z     10b0da80 f   GAdlUtl.obj
 0001:0000caa0       ?NetworkToHost@@YAFF@Z     10b0daa0 f   GAdlUtl.obj
 0001:0000cac0       ?HostToNetwork@@YAII@Z     10b0dac0 f   GAdlUtl.obj
 0001:0000cb30       ?NetworkToHost@@YAII@Z     10b0db30 f   GAdlUtl.obj
 0001:0000cbb0       ?HostToNetwork@@YAHH@Z     10b0dbb0 f   GAdlUtl.obj
 0001:0000cbd0       ?NetworkToHost@@YAHH@Z     10b0dbd0 f   GAdlUtl.obj
 0001:0000cbf0       ?HostToNetwork@@YAKK@Z     10b0dbf0 f   GAdlUtl.obj
 0001:0000cc60       ?NetworkToHost@@YAKK@Z     10b0dc60 f   GAdlUtl.obj
 0001:0000cce0       ?HostToNetwork@@YAMM@Z     10b0dce0 f   GAdlUtl.obj
 0001:0000cd30       ?NetworkToHost@@YAMM@Z     10b0dd30 f   GAdlUtl.obj
 0001:0000cd80       ?HostToNetwork@@YANN@Z     10b0dd80 f   GAdlUtl.obj
 0001:0000cde0       ?NetworkToHost@@YANN@Z     10b0dde0 f   GAdlUtl.obj
 0001:0000ce40       ?HostToNetwork@@YAJJ@Z     10b0de40 f   GAdlUtl.obj
 0001:0000ce60       ?NetworkToHost@@YAJJ@Z     10b0de60 f   GAdlUtl.obj
 0001:0000ce80       ?HostToNetwork@@YA_J_J@Z   10b0de80 f   GAdlUtl.obj
 0001:0000cee0       ?NetworkToHost@@YA_J_J@Z   10b0dee0 f   GAdlUtl.obj
 0001:0000cf40       ?BLoad@@YAHAA_NPAUIXBuf@@@Z 10b0df40 f   GAdlUtl.obj
 0001:0000cf90       ?BStore@@YAHPAUIXBuf@@_N@Z 10b0df90 f   GAdlUtl.obj
 0001:0000cfc0       ?MLoad@@YAHAA_NPAUIXBuf@@@Z 10b0dfc0 f   GAdlUtl.obj
 0001:0000cfe0       ?MStore@@YAHPAUIXBuf@@_N@Z 10b0dfe0 f   GAdlUtl.obj
 0001:0000d000       ?BLoad@@YAHAADPAUIXBuf@@@Z 10b0e000 f   GAdlUtl.obj
 0001:0000d050       ?BStore@@YAHPAUIXBuf@@D@Z  10b0e050 f   GAdlUtl.obj
 0001:0000d070       ?MLoad@@YAHAADPAUIXBuf@@@Z 10b0e070 f   GAdlUtl.obj
 0001:0000d090       ?MStore@@YAHPAUIXBuf@@D@Z  10b0e090 f   GAdlUtl.obj
 0001:0000d0b0       ?BLoad@@YAHAAFPAUIXBuf@@@Z 10b0e0b0 f   GAdlUtl.obj
 0001:0000d100       ?BStore@@YAHPAUIXBuf@@F@Z  10b0e100 f   GAdlUtl.obj
 0001:0000d130       ?MLoad@@YAHAAFPAUIXBuf@@@Z 10b0e130 f   GAdlUtl.obj
 0001:0000d150       ?MStore@@YAHPAUIXBuf@@F@Z  10b0e150 f   GAdlUtl.obj
 0001:0000d170       ?BLoad@@YAHAAGPAUIXBuf@@@Z 10b0e170 f   GAdlUtl.obj
 0001:0000d1c0       ?BStore@@YAHPAUIXBuf@@G@Z  10b0e1c0 f   GAdlUtl.obj
 0001:0000d1f0       ?MLoad@@YAHAAGPAUIXBuf@@@Z 10b0e1f0 f   GAdlUtl.obj
 0001:0000d210       ?MStore@@YAHPAUIXBuf@@G@Z  10b0e210 f   GAdlUtl.obj
 0001:0000d230       ?BLoad@@YAHAAKPAUIXBuf@@@Z 10b0e230 f   GAdlUtl.obj
 0001:0000d280       ?BStore@@YAHPAUIXBuf@@K@Z  10b0e280 f   GAdlUtl.obj
 0001:0000d2b0       ?MLoad@@YAHAAKPAUIXBuf@@@Z 10b0e2b0 f   GAdlUtl.obj
 0001:0000d2d0       ?MStore@@YAHPAUIXBuf@@K@Z  10b0e2d0 f   GAdlUtl.obj
 0001:0000d2f0       ?BLoad@@YAHAAIPAUIXBuf@@@Z 10b0e2f0 f   GAdlUtl.obj
 0001:0000d340       ?BStore@@YAHPAUIXBuf@@I@Z  10b0e340 f   GAdlUtl.obj
 0001:0000d370       ?MLoad@@YAHAAIPAUIXBuf@@@Z 10b0e370 f   GAdlUtl.obj
 0001:0000d390       ?MStore@@YAHPAUIXBuf@@I@Z  10b0e390 f   GAdlUtl.obj
 0001:0000d3b0       ?BLoad@@YAHAAJPAUIXBuf@@@Z 10b0e3b0 f   GAdlUtl.obj
 0001:0000d400       ?BStore@@YAHPAUIXBuf@@J@Z  10b0e400 f   GAdlUtl.obj
 0001:0000d430       ?MLoad@@YAHAAJPAUIXBuf@@@Z 10b0e430 f   GAdlUtl.obj
 0001:0000d450       ?MStore@@YAHPAUIXBuf@@J@Z  10b0e450 f   GAdlUtl.obj
 0001:0000d470       ?BLoad@@YAHAAHPAUIXBuf@@@Z 10b0e470 f   GAdlUtl.obj
 0001:0000d4c0       ?BStore@@YAHPAUIXBuf@@H@Z  10b0e4c0 f   GAdlUtl.obj
 0001:0000d4f0       ?MLoad@@YAHAAHPAUIXBuf@@@Z 10b0e4f0 f   GAdlUtl.obj
 0001:0000d510       ?MStore@@YAHPAUIXBuf@@H@Z  10b0e510 f   GAdlUtl.obj
 0001:0000d530       ?BLoad@@YAHAAMPAUIXBuf@@@Z 10b0e530 f   GAdlUtl.obj
 0001:0000d580       ?BStore@@YAHPAUIXBuf@@M@Z  10b0e580 f   GAdlUtl.obj
 0001:0000d5b0       ?MLoad@@YAHAAMPAUIXBuf@@@Z 10b0e5b0 f   GAdlUtl.obj
 0001:0000d5d0       ?MStore@@YAHPAUIXBuf@@M@Z  10b0e5d0 f   GAdlUtl.obj
 0001:0000d5f0       ?BLoad@@YAHAANPAUIXBuf@@@Z 10b0e5f0 f   GAdlUtl.obj
 0001:0000d640       ?BStore@@YAHPAUIXBuf@@N@Z  10b0e640 f   GAdlUtl.obj
 0001:0000d670       ?MLoad@@YAHAANPAUIXBuf@@@Z 10b0e670 f   GAdlUtl.obj
 0001:0000d690       ?MStore@@YAHPAUIXBuf@@N@Z  10b0e690 f   GAdlUtl.obj
 0001:0000d6b0       ?BLoad@@YAHAA_JPAUIXBuf@@@Z 10b0e6b0 f   GAdlUtl.obj
 0001:0000d700       ?BStore@@YAHPAUIXBuf@@_J@Z 10b0e700 f   GAdlUtl.obj
 0001:0000d730       ?MLoad@@YAHAA_JPAUIXBuf@@@Z 10b0e730 f   GAdlUtl.obj
 0001:0000d750       ?MStore@@YAHPAUIXBuf@@_J@Z 10b0e750 f   GAdlUtl.obj
 0001:0000d770       ?BLoad@@YAHAAVGBuf@@PAUIXBuf@@@Z 10b0e770 f   GAdlUtl.obj
 0001:0000d7e0       ?BStore@@YAHPAUIXBuf@@ABVGBuf@@@Z 10b0e7e0 f   GAdlUtl.obj
 0001:0000d840       ?MLoad@@YAHAAVGBuf@@PAUIXBuf@@@Z 10b0e840 f   GAdlUtl.obj
 0001:0000d860       ?MStore@@YAHPAUIXBuf@@ABVGBuf@@@Z 10b0e860 f   GAdlUtl.obj
 0001:0000d880       ?BLoad@@YAHAAV?$basic_string@DU?$char_traits@D@std@@V?$allocator@D@2@@std@@PAUIXBuf@@@Z 10b0e880 f   GAdlUtl.obj
 0001:0000d960       ?BStore@@YAHPAUIXBuf@@ABV?$basic_string@DU?$char_traits@D@std@@V?$allocator@D@2@@std@@@Z 10b0e960 f   GAdlUtl.obj
 0001:0000d9c0       ?MLoad@@YAHAAV?$basic_string@DU?$char_traits@D@std@@V?$allocator@D@2@@std@@PAUIXBuf@@@Z 10b0e9c0 f   GAdlUtl.obj
 0001:0000daa0       ?MStore@@YAHPAUIXBuf@@ABV?$basic_string@DU?$char_traits@D@std@@V?$allocator@D@2@@std@@@Z 10b0eaa0 f   GAdlUtl.obj
 0001:0000db00       ?BLoad@@YAHAAV?$basic_string@GU?$char_traits@G@std@@V?$allocator@G@2@@std@@PAUIXBuf@@@Z 10b0eb00 f   GAdlUtl.obj
 0001:0000dbd0       ?BStore@@YAHPAUIXBuf@@ABV?$basic_string@GU?$char_traits@G@std@@V?$allocator@G@2@@std@@@Z 10b0ebd0 f   GAdlUtl.obj
 0001:0000dc20       ?MLoad@@YAHAAV?$basic_string@GU?$char_traits@G@std@@V?$allocator@G@2@@std@@PAUIXBuf@@@Z 10b0ec20 f   GAdlUtl.obj
 0001:0000dc40       ?MStore@@YAHPAUIXBuf@@ABV?$basic_string@GU?$char_traits@G@std@@V?$allocator@G@2@@std@@@Z 10b0ec40 f   GAdlUtl.obj
 0001:0000dc60       ?BLoad@@YAHAAVastring@@PAUIXBuf@@@Z 10b0ec60 f   GAdlUtl.obj
 0001:0000dd40       ?BStore@@YAHPAUIXBuf@@ABVastring@@@Z 10b0ed40 f   GAdlUtl.obj
 0001:0000dda0       ?MLoad@@YAHAAVastring@@PAUIXBuf@@@Z 10b0eda0 f   GAdlUtl.obj
 0001:0000de80       ?MStore@@YAHPAUIXBuf@@ABVastring@@@Z 10b0ee80 f   GAdlUtl.obj
 0001:0000dee0       ?BLoad@@YAHAAUtagPOINT@@PAUIXBuf@@@Z 10b0eee0 f   GAdlUtl.obj
 0001:0000df20       ?BStore@@YAHPAUIXBuf@@ABUtagPOINT@@@Z 10b0ef20 f   GAdlUtl.obj
 0001:0000df60       ?MLoad@@YAHAAUtagPOINT@@PAUIXBuf@@@Z 10b0ef60 f   GAdlUtl.obj
 0001:0000df80       ?MStore@@YAHPAUIXBuf@@ABUtagPOINT@@@Z 10b0ef80 f   GAdlUtl.obj
 0001:0000dfa0       ?BLoad@@YAHAAUtagRECT@@PAUIXBuf@@@Z 10b0efa0 f   GAdlUtl.obj
 0001:0000e020       ?BStore@@YAHPAUIXBuf@@ABUtagRECT@@@Z 10b0f020 f   GAdlUtl.obj
 0001:0000e0a0       ?MLoad@@YAHAAUtagRECT@@PAUIXBuf@@@Z 10b0f0a0 f   GAdlUtl.obj
 0001:0000e0c0       ?MStore@@YAHPAUIXBuf@@ABUtagRECT@@@Z 10b0f0c0 f   GAdlUtl.obj
 0001:0000e0e0       ?BLoad@@YAHAAUtagVARIANT@@PAUIXBuf@@@Z 10b0f0e0 f   GAdlUtl.obj
 0001:0000e1d0       ?BStore@@YAHPAUIXBuf@@ABUtagVARIANT@@@Z 10b0f1d0 f   GAdlUtl.obj
 0001:0000e2b0       ?BLoad@@YAHAAPAGPAUIXBuf@@@Z 10b0f2b0 f   GAdlUtl.obj
 0001:0000e360       ?BStore@@YAHPAUIXBuf@@ABQAG@Z 10b0f360 f   GAdlUtl.obj
 0001:0000e3f0       ?VCopy@@YAHPAUIXBuf@@ABUtagVARIANT@@@Z 10b0f3f0 f   GAdlUtl.obj
 0001:0000e480       ?VCopy@@YAHAAUtagVARIANT@@PAUIXBuf@@@Z 10b0f480 f   GAdlUtl.obj
 0001:0000e530       ?BSTRCopy@@YAHPAUIXBuf@@PAG@Z 10b0f530 f   GAdlUtl.obj
 0001:0000e570       ?BSTRCopy@@YAHPAPAGPAUIXBuf@@@Z 10b0f570 f   GAdlUtl.obj
 0001:0000e5e0       ??0?$basic_string@DU?$char_traits@D@std@@V?$allocator@D@2@@std@@QAE@PBDI@Z 10b0f5e0 f i GAdlUtl.obj
 0001:0000e620       ??0?$basic_string@GU?$char_traits@G@std@@V?$allocator@G@2@@std@@QAE@PBGI@Z 10b0f620 f i GAdlUtl.obj
 0001:0000e660       ??0?$_String_val@DV?$allocator@D@std@@@std@@IAE@V?$allocator@D@1@@Z 10b0f660 f i ErrorLog.obj
 0001:0000e660       ??0?$_String_val@GV?$allocator@G@std@@@std@@IAE@V?$allocator@G@1@@Z 10b0f660 f i GAdlUtl.obj
 0001:0000e680       ??0astring@@QAE@PBDI@Z     10b0f680 f i GAdlUtl.obj
 0001:0000e6c0       ??1astring@@QAE@XZ         10b0f6c0 f i GAdlUtl.obj
 0001:0000e6e0       ?assign@astring@@QAEAAV1@PBDI@Z 10b0f6e0 f i GAdlUtl.obj
 0001:0000e720       ??4astring@@QAEAAV0@ABV0@@Z 10b0f720 f i GAdlUtl.obj
 0001:0000e740       ?assign@astring@@QAEAAV1@PBD@Z 10b0f740 f i GAdlUtl.obj
 0001:0000e770       ?empty@astring@@QBE_NXZ    10b0f770 f i GAdlUtl.obj
 0001:0000e790       ?erase@astring@@QAEXXZ     10b0f790 f i GAdlUtl.obj
 0001:0000e7b0       ?resize@astring@@QAEXI@Z   10b0f7b0 f i GAdlUtl.obj
 0001:0000e810       ?length@astring@@QBEIXZ    10b0f810 f i GAdlUtl.obj
 0001:0000e810       ?size@astring@@QBEIXZ      10b0f810 f i GAdlUtl.obj
 0001:0000e830       ?capacity@astring@@QBEIXZ  10b0f830 f i GAdlUtl.obj
 0001:0000e850       ?_alloc@astring@@KAPADI@Z  10b0f850 f i GAdlUtl.obj
 0001:0000e8a0       ?_free@astring@@KAXPAD@Z   10b0f8a0 f i GAdlUtl.obj
 0001:0000e8c0       ?_capacity@astring@@KAIPBD@Z 10b0f8c0 f i GAdlUtl.obj
 0001:0000e8d0       ?_copy@astring@@KAXPADPBDI@Z 10b0f8d0 f i GAdlUtl.obj
 0001:0000e900       ?_length@astring@@KAIPBD@Z 10b0f900 f i GAdlUtl.obj
 0001:0000e930       ?GetData@GBuf@@QBEPBEXZ    10b0f930 f i GAdlUtl.obj
 0001:0000e950       ?GetLength@GBuf@@QBEKXZ    10b0f950 f i GAdlUtl.obj
 0001:0000e970       ?AddRight@GBuf@@QAEXPAXK@Z 10b0f970 f i GAdlUtl.obj
 0001:0000e9a0       ??1?$basic_string@GU?$char_traits@G@std@@V?$allocator@G@2@@std@@QAE@XZ 10b0f9a0 f i GAdlUtl.obj
 0001:0000e9c0       ??4?$basic_string@GU?$char_traits@G@std@@V?$allocator@G@2@@std@@QAEAAV01@ABV01@@Z 10b0f9c0 f i GAdlUtl.obj
 0001:0000e9e0       ?assign@?$basic_string@GU?$char_traits@G@std@@V?$allocator@G@2@@std@@QAEAAV12@PBGI@Z 10b0f9e0 f i GAdlUtl.obj
 0001:0000ea70       ?c_str@?$basic_string@GU?$char_traits@G@std@@V?$allocator@G@2@@std@@QBEPBGXZ 10b0fa70 f i GAdlUtl.obj
 0001:0000ea90       ?assign@?$basic_string@GU?$char_traits@G@std@@V?$allocator@G@2@@std@@QAEAAV12@ABV12@@Z 10b0fa90 f i GAdlUtl.obj
 0001:0000eac0       ?assign@?$basic_string@GU?$char_traits@G@std@@V?$allocator@G@2@@std@@QAEAAV12@ABV12@II@Z 10b0fac0 f i GAdlUtl.obj
 0001:0000eb80       ?_Eos@?$basic_string@GU?$char_traits@G@std@@V?$allocator@G@2@@std@@IAEXI@Z 10b0fb80 f i GAdlUtl.obj
 0001:0000ebc0       ?assign@?$char_traits@G@std@@SAXAAGABG@Z 10b0fbc0 f i GAdlUtl.obj
 0001:0000ebe0       ?_Grow@?$basic_string@GU?$char_traits@G@std@@V?$allocator@G@2@@std@@IAE_NI_N@Z 10b0fbe0 f i GAdlUtl.obj
 0001:0000ec80       ?_Inside@?$basic_string@GU?$char_traits@G@std@@V?$allocator@G@2@@std@@IAE_NPBG@Z 10b0fc80 f i GAdlUtl.obj
 0001:0000ecc0       ?_Tidy@?$basic_string@GU?$char_traits@G@std@@V?$allocator@G@2@@std@@IAEX_NI@Z 10b0fcc0 f i GAdlUtl.obj
 0001:0000ed40       ?_Myptr@?$basic_string@GU?$char_traits@G@std@@V?$allocator@G@2@@std@@IAEPAGXZ 10b0fd40 f i GAdlUtl.obj
 0001:0000ed40       ?_Myptr@?$basic_string@GU?$char_traits@G@std@@V?$allocator@G@2@@std@@IBEPBGXZ 10b0fd40 f i GAdlUtl.obj
 0001:0000ed70       ?erase@?$basic_string@GU?$char_traits@G@std@@V?$allocator@G@2@@std@@QAEAAV12@II@Z 10b0fd70 f i GAdlUtl.obj
 0001:0000ee10       ?max_size@?$basic_string@GU?$char_traits@G@std@@V?$allocator@G@2@@std@@QBEIXZ 10b0fe10 f i GAdlUtl.obj
 0001:0000ee50       ?_Copy@?$basic_string@GU?$char_traits@G@std@@V?$allocator@G@2@@std@@IAEXII@Z 10b0fe50 f i GAdlUtl.obj
 0001:0000efd0       ?allocate@?$allocator@G@std@@QAEPAGI@Z 10b0ffd0 f i GAdlUtl.obj
 0001:0000eff0       ?max_size@?$allocator@G@std@@QBEIXZ 10b0fff0 f i GAdlUtl.obj
 0001:0000f020       ??$copy_s@U?$char_traits@G@std@@@_Traits_helper@std@@YAPAGPAGIPBGI@Z 10b10020 f i GAdlUtl.obj
 0001:0000f050       ??$move_s@U?$char_traits@G@std@@@_Traits_helper@std@@YAPAGPAGIPBGI@Z 10b10050 f i GAdlUtl.obj
 0001:0000f080       ??$_Allocate@G@std@@YAPAGIPAG@Z 10b10080 f i GAdlUtl.obj
 0001:0000f0d0       ??$copy_s@U?$char_traits@G@std@@@_Traits_helper@std@@YAPAGPAGIPBGIU_Secure_char_traits_tag@1@@Z 10b100d0 f i GAdlUtl.obj
 0001:0000f0f0       ?_Copy_s@?$char_traits@G@std@@SAPAGPAGIPBGI@Z 10b100f0 f i GAdlUtl.obj
 0001:0000f110       _wmemcpy_s                 10b10110 f i GAdlUtl.obj
 0001:0000f140       ??$move_s@U?$char_traits@G@std@@@_Traits_helper@std@@YAPAGPAGIPBGIU_Secure_char_traits_tag@1@@Z 10b10140 f i GAdlUtl.obj
 0001:0000f160       ?_Move_s@?$char_traits@G@std@@SAPAGPAGIPBGI@Z 10b10160 f i GAdlUtl.obj
 0001:0000f180       _wmemmove_s                10b10180 f i GAdlUtl.obj
 0001:0000f1b0       ?SignalAndWait@@YAKPAVGSyncObj@@0KH@Z 10b101b0 f   GKernelObj.obj
 0001:0000f1f0       ??0GKernelObj@@QAE@XZ      10b101f0 f   GKernelObj.obj
 0001:0000f220       ??1GKernelObj@@UAE@XZ      10b10220 f   GKernelObj.obj
 0001:0000f270       ?IsValid@GKernelObj@@QBEHXZ 10b10270 f   GKernelObj.obj
 0001:0000f2b0       ?GetHandle@GKernelObj@@UBEPAXXZ 10b102b0 f   GKernelObj.obj
 0001:0000f2d0       ??BGKernelObj@@QBEPAXXZ    10b102d0 f   GKernelObj.obj
 0001:0000f2f0       ?Detach@GKernelObj@@QAEPAXXZ 10b102f0 f   GKernelObj.obj
 0001:0000f320       ?Wait@GKernelObj@@QAEKK@Z  10b10320 f   GKernelObj.obj
 0001:0000f340       ?WaitEx@GKernelObj@@QAEKHK@Z 10b10340 f   GKernelObj.obj
 0001:0000f370       ?Wait2@GKernelObj@@QAEKPAXHK@Z 10b10370 f   GKernelObj.obj
 0001:0000f3b0       ?WaitEx2@GKernelObj@@QAEKHPAXHK@Z 10b103b0 f   GKernelObj.obj
 0001:0000f400       ?Lock@GCriticalSection@@QAEHK@Z 10b10400 f   GKernelObj.obj
 0001:0000f430       ?Unlock@GCriticalSection@@QAEHXZ 10b10430 f   GKernelObj.obj
 0001:0000f450       ?Enter@GCriticalSection@@QAEXXZ 10b10450 f   GKernelObj.obj
 0001:0000f470       ?Leave@GCriticalSection@@QAEXXZ 10b10470 f   GKernelObj.obj
 0001:0000f490       ?TryEnter@GCriticalSection@@QAEHXZ 10b10490 f   GKernelObj.obj
 0001:0000f4b0       ??0GSyncObj@@QAE@XZ        10b104b0 f   GKernelObj.obj
 0001:0000f4d0       ??1GSyncObj@@UAE@XZ        10b104d0 f   GKernelObj.obj
 0001:0000f4f0       ?Lock@GSyncObj@@UAEHK@Z    10b104f0 f   GKernelObj.obj
 0001:0000f540       ??0GSemaphore@@QAE@XZ      10b10540 f   GKernelObj.obj
 0001:0000f560       ??0GSemaphore@@QAE@JJPBDPAU_SECURITY_ATTRIBUTES@@@Z 10b10560 f   GKernelObj.obj
 0001:0000f610       ??0GSemaphore@@QAE@PBDKH@Z 10b10610 f   GKernelObj.obj
 0001:0000f6c0       ?Create@GSemaphore@@QAEHJJPBDPAU_SECURITY_ATTRIBUTES@@@Z 10b106c0 f   GKernelObj.obj
 0001:0000f710       ?Open@GSemaphore@@QAEHPBDKH@Z 10b10710 f   GKernelObj.obj
 0001:0000f760       ?Unlock@GSemaphore@@UAEHXZ 10b10760 f   GKernelObj.obj
 0001:0000f780       ?Release@GSemaphore@@UAEHJPAJ@Z 10b10780 f   GKernelObj.obj
 0001:0000f7b0       ??0GMutex@@QAE@XZ          10b107b0 f   GKernelObj.obj
 0001:0000f7d0       ??0GMutex@@QAE@HPBDPAU_SECURITY_ATTRIBUTES@@@Z 10b107d0 f   GKernelObj.obj
 0001:0000f880       ??0GMutex@@QAE@PBDKH@Z     10b10880 f   GKernelObj.obj
 0001:0000f930       ?Create@GMutex@@QAEHHPBDPAU_SECURITY_ATTRIBUTES@@@Z 10b10930 f   GKernelObj.obj
 0001:0000f980       ?Open@GMutex@@QAEHPBDKH@Z  10b10980 f   GKernelObj.obj
 0001:0000f9d0       ?Unlock@GMutex@@UAEHXZ     10b109d0 f   GKernelObj.obj
 0001:0000f9f0       ?Release@GMutex@@QAEHXZ    10b109f0 f   GKernelObj.obj
 0001:0000fa10       ??0GEvent@@QAE@XZ          10b10a10 f   GKernelObj.obj
 0001:0000fa30       ??0GEvent@@QAE@HHPBDPAU_SECURITY_ATTRIBUTES@@@Z 10b10a30 f   GKernelObj.obj
 0001:0000fae0       ??0GEvent@@QAE@PBDKH@Z     10b10ae0 f   GKernelObj.obj
 0001:0000fb90       ?Create@GEvent@@QAEHHHPBDPAU_SECURITY_ATTRIBUTES@@@Z 10b10b90 f   GKernelObj.obj
 0001:0000fbe0       ?Open@GEvent@@QAEHPBDKH@Z  10b10be0 f   GKernelObj.obj
 0001:0000fc30       ?Unlock@GEvent@@UAEHXZ     10b10c30 f   GKernelObj.obj
 0001:0000fc40       ?SetEvent@GEvent@@QAEHXZ   10b10c40 f   GKernelObj.obj
 0001:0000fc60       ?PulseEvent@GEvent@@QAEHXZ 10b10c60 f   GKernelObj.obj
 0001:0000fc80       ?ResetEvent@GEvent@@QAEHXZ 10b10c80 f   GKernelObj.obj
 0001:0000fca0       ??0GSingleLock@@QAE@PAVGSyncObj@@H@Z 10b10ca0 f   GKernelObj.obj
 0001:0000fcf0       ??1GSingleLock@@QAE@XZ     10b10cf0 f   GKernelObj.obj
 0001:0000fd10       ?Lock@GSingleLock@@QAEHK@Z 10b10d10 f   GKernelObj.obj
 0001:0000fd40       ?Unlock@GSingleLock@@QAEHXZ 10b10d40 f   GKernelObj.obj
 0001:0000fd80       ??0GMultiLock@@QAE@XZ      10b10d80 f   GKernelObj.obj
 0001:0000fda0       ??0GMultiLock@@QAE@PAPAVGSyncObj@@KH@Z 10b10da0 f   GKernelObj.obj
 0001:0000fe50       ??1GMultiLock@@QAE@XZ      10b10e50 f   GKernelObj.obj
 0001:0000feb0       ?Rearrange@GMultiLock@@QAEXXZ 10b10eb0 f   GKernelObj.obj
 0001:0000ff20       ?Add@GMultiLock@@QAEHPAVGSyncObj@@@Z 10b10f20 f   GKernelObj.obj
 0001:0000ff60       ?Remove@GMultiLock@@QAEHPAVGSyncObj@@@Z 10b10f60 f   GKernelObj.obj
 0001:0000ffa0       ?GetCount@GMultiLock@@QBEKXZ 10b10fa0 f   GKernelObj.obj
 0001:0000ffc0       ?GetSyncObject@GMultiLock@@QAEPAVGSyncObj@@K@Z 10b10fc0 f   GKernelObj.obj
 0001:0000ffe0       ?IsLocked@GMultiLock@@QAEHK@Z 10b10fe0 f   GKernelObj.obj
 0001:00010000       ?Lock@GMultiLock@@QAEKKKKH@Z 10b11000 f   GKernelObj.obj
 0001:000100e0       ?Unlock@GMultiLock@@QAEHXZ 10b110e0 f   GKernelObj.obj
 0001:00010160       ??0GSelector@@QAE@XZ       10b11160 f   GKernelObj.obj
 0001:00010190       ??0GSelector@@QAE@PAPAVGSyncObj@@KH@Z 10b11190 f   GKernelObj.obj
 0001:00010240       ?Rearrange@GSelector@@QAEXXZ 10b11240 f   GKernelObj.obj
 0001:000102a0       ?Add@GSelector@@QAEXPAVGSyncObj@@@Z 10b112a0 f   GKernelObj.obj
 0001:000102d0       ?Remove@GSelector@@QAEXPAVGSyncObj@@@Z 10b112d0 f   GKernelObj.obj
 0001:00010300       ?GetCount@GSelector@@QBEKXZ 10b11300 f   GKernelObj.obj
 0001:00010320       ?GetSyncObject@GSelector@@QAEPAVGSyncObj@@K@Z 10b11320 f   GKernelObj.obj
 0001:00010340       ?Lock@GSelector@@UAEKKH@Z  10b11340 f   GKernelObj.obj
 0001:00010380       ?Add@GWaitCollection@@QAEHPAX@Z 10b11380 f   GKernelObj.obj
 0001:00010410       ?Remove@GWaitCollection@@QAEHPAX@Z 10b11410 f   GKernelObj.obj
 0001:000104a0       ?GetHandleArray@GWaitCollection@@QBEPBQAXXZ 10b114a0 f   GKernelObj.obj
 0001:000104c0       ?GetSize@GWaitCollection@@QBEIXZ 10b114c0 f   GKernelObj.obj
 0001:000104e0       ?GetHandle@GWaitCollection@@QBEPAXI@Z 10b114e0 f   GKernelObj.obj
 0001:00010510       ?Wait@GWaitCollection@@QAEKHK@Z 10b11510 f   GKernelObj.obj
 0001:00010540       ?WaitEx@GWaitCollection@@QAEKHHK@Z 10b11540 f   GKernelObj.obj
 0001:00010580       ?MsgWait@GWaitCollection@@QAEKHKK@Z 10b11580 f   GKernelObj.obj
 0001:000105c0       ?MsgWaitEx@GWaitCollection@@QAEKKKK@Z 10b115c0 f   GKernelObj.obj
 0001:00010600       ??_EGKernelObj@@UAEPAXI@Z  10b11600 f i GKernelObj.obj
 0001:00010600       ??_GGKernelObj@@UAEPAXI@Z  10b11600 f i GKernelObj.obj
 0001:00010630       ??0GWaitableObj@@QAE@XZ    10b11630 f i GKernelObj.obj
 0001:00010650       ??_EGSyncObj@@UAEPAXI@Z    10b11650 f i GKernelObj.obj
 0001:00010650       ??_GGSyncObj@@UAEPAXI@Z    10b11650 f i GKernelObj.obj
 0001:00010680       ??_EGEvent@@UAEPAXI@Z      10b11680 f i GKernelObj.obj
 0001:00010680       ??_EGSemaphore@@UAEPAXI@Z  10b11680 f i GKernelObj.obj
 0001:00010680       ??_GGMutex@@UAEPAXI@Z      10b11680 f i GKernelObj.obj
 0001:00010680       ??_GGSemaphore@@UAEPAXI@Z  10b11680 f i GKernelObj.obj
 0001:00010680       ??_EGMutex@@UAEPAXI@Z      10b11680 f i GKernelObj.obj
 0001:00010680       ??_GGEvent@@UAEPAXI@Z      10b11680 f i GKernelObj.obj
 0001:000106b0       ??1GSemaphore@@UAE@XZ      10b116b0 f i GKernelObj.obj
 0001:000106b0       ??1GEvent@@UAE@XZ          10b116b0 f i GKernelObj.obj
 0001:000106b0       ??1GMutex@@UAE@XZ          10b116b0 f i GKernelObj.obj
 0001:000106d0       ??0?$pvector@VGSyncObj@@@@QAE@XZ 10b116d0 f i GKernelObj.obj
 0001:00010700       ?isexist@?$pvector@VGSyncObj@@@@QBE_NPBVGSyncObj@@@Z 10b11700 f i GKernelObj.obj
 0001:00010740       ?remove@?$pvector@VGSyncObj@@@@QAEXPBVGSyncObj@@@Z 10b11740 f i GKernelObj.obj
 0001:000107c0       ??A?$vector@PAXV?$allocator@PAX@std@@@std@@QBEABQAXI@Z 10b117c0 f i GKernelObj.obj
 0001:000107c0       ??A?$vector@PAVGSyncObj@@V?$allocator@PAVGSyncObj@@@std@@@std@@QAEAAPAVGSyncObj@@I@Z 10b117c0 f i GKernelObj.obj
 0001:000107f0       ?push_back@?$vector@PAXV?$allocator@PAX@std@@@std@@QAEXABQAX@Z 10b117f0 f i GKernelObj.obj
 0001:000107f0       ?push_back@?$vector@JV?$allocator@J@std@@@std@@QAEXABJ@Z 10b117f0 f i LinkManagerMsg.obj
 0001:000107f0       ?push_back@?$vector@PAVGSyncObj@@V?$allocator@PAVGSyncObj@@@std@@@std@@QAEXABQAVGSyncObj@@@Z 10b117f0 f i GKernelObj.obj
 0001:00010870       ?size@?$vector@PAXV?$allocator@PAX@std@@@std@@QBEIXZ 10b11870 f i GKernelObj.obj
 0001:00010870       ?size@?$vector@JV?$allocator@J@std@@@std@@QBEIXZ 10b11870 f i LinkManager.obj
 0001:00010870       ?size@?$vector@PAVGSyncObj@@V?$allocator@PAVGSyncObj@@@std@@@std@@QBEIXZ 10b11870 f i GKernelObj.obj
 0001:00010890       ?find@?$pvector@VGSyncObj@@@@QAE?AV?$_Vector_iterator@PAVGSyncObj@@V?$allocator@PAVGSyncObj@@@std@@@std@@PBVGSyncObj@@@Z 10b11890 f i GKernelObj.obj
 0001:000108e0       ?find@?$pvector@VGSyncObj@@@@QBE?AV?$_Vector_const_iterator@PAVGSyncObj@@V?$allocator@PAVGSyncObj@@@std@@@std@@PBVGSyncObj@@@Z 10b118e0 f i GKernelObj.obj
 0001:00010930       ?insert@?$vector@JV?$allocator@J@std@@@std@@QAE?AV?$_Vector_iterator@JV?$allocator@J@std@@@2@V?$_Vector_const_iterator@JV?$allocator@J@std@@@2@ABJ@Z 10b11930 f i LinkManagerMsg.obj
 0001:00010930       ?insert@?$vector@PAXV?$allocator@PAX@std@@@std@@QAE?AV?$_Vector_iterator@PAXV?$allocator@PAX@std@@@2@V?$_Vector_const_iterator@PAXV?$allocator@PAX@std@@@2@ABQAX@Z 10b11930 f i GKernelObj.obj
 0001:00010930       ?insert@?$vector@PAVGSyncObj@@V?$allocator@PAVGSyncObj@@@std@@@std@@QAE?AV?$_Vector_iterator@PAVGSyncObj@@V?$allocator@PAVGSyncObj@@@std@@@2@V?$_Vector_const_iterator@PAVGSyncObj@@V?$allocator@PAVGSyncObj@@@std@@@2@ABQAVGSyncObj@@@Z 10b11930 f i GKernelObj.obj
 0001:000109b0       ?erase@?$vector@PAXV?$allocator@PAX@std@@@std@@QAE?AV?$_Vector_iterator@PAXV?$allocator@PAX@std@@@2@V?$_Vector_const_iterator@PAXV?$allocator@PAX@std@@@2@@Z 10b119b0 f i GKernelObj.obj
 0001:000109b0       ?erase@?$vector@PAVGSyncObj@@V?$allocator@PAVGSyncObj@@@std@@@std@@QAE?AV?$_Vector_iterator@PAVGSyncObj@@V?$allocator@PAVGSyncObj@@@std@@@2@V?$_Vector_const_iterator@PAVGSyncObj@@V?$allocator@PAVGSyncObj@@@std@@@2@@Z 10b119b0 f i GKernelObj.obj
 0001:00010a20       ?_Ufill@?$vector@PAVGSyncObj@@V?$allocator@PAVGSyncObj@@@std@@@std@@IAEPAPAVGSyncObj@@PAPAV3@IABQAV3@@Z 10b11a20 f i GKernelObj.obj
 0001:00010a20       ?_Ufill@?$vector@JV?$allocator@J@std@@@std@@IAEPAJPAJIABJ@Z 10b11a20 f i LinkManagerMsg.obj
 0001:00010a20       ?_Ufill@?$vector@PAXV?$allocator@PAX@std@@@std@@IAEPAPAXPAPAXIABQAX@Z 10b11a20 f i GKernelObj.obj
 0001:00010a60       ?capacity@?$vector@JV?$allocator@J@std@@@std@@QBEIXZ 10b11a60 f i LinkManagerMsg.obj
 0001:00010a60       ?capacity@?$vector@PAVGSyncObj@@V?$allocator@PAVGSyncObj@@@std@@@std@@QBEIXZ 10b11a60 f i GKernelObj.obj
 0001:00010a60       ?capacity@?$vector@PAXV?$allocator@PAX@std@@@std@@QBEIXZ 10b11a60 f i GKernelObj.obj
 0001:00010aa0       ??0?$_Vector_iterator@PAVGSyncObj@@V?$allocator@PAVGSyncObj@@@std@@@std@@QAE@XZ 10b11aa0 f i GKernelObj.obj
 0001:00010ac0       ?_Buy@?$vector@PAVGSyncObj@@V?$allocator@PAVGSyncObj@@@std@@@std@@IAE_NI@Z 10b11ac0 f i GKernelObj.obj
 0001:00010ac0       ?_Buy@?$vector@JV?$allocator@J@std@@@std@@IAE_NI@Z 10b11ac0 f i LinkManager.obj
 0001:00010b40       ?_Insert_n@?$vector@PAXV?$allocator@PAX@std@@@std@@IAEXV?$_Vector_const_iterator@PAXV?$allocator@PAX@std@@@2@IABQAX@Z 10b11b40 f i GKernelObj.obj
 0001:00010b40       ?_Insert_n@?$vector@PAVGSyncObj@@V?$allocator@PAVGSyncObj@@@std@@@std@@IAEXV?$_Vector_const_iterator@PAVGSyncObj@@V?$allocator@PAVGSyncObj@@@std@@@2@IABQAVGSyncObj@@@Z 10b11b40 f i GKernelObj.obj
 0001:00010b40       ?_Insert_n@?$vector@JV?$allocator@J@std@@@std@@IAEXV?$_Vector_const_iterator@JV?$allocator@J@std@@@2@IABJ@Z 10b11b40 f i LinkManagerMsg.obj
 0001:00010ef0       ??0?$_List_nod@VGBuf@@V?$allocator@VGBuf@@@std@@@std@@IAE@V?$allocator@VGBuf@@@1@@Z 10b11ef0 f i LinkManager.obj
 0001:00010ef0       ??0?$_Vector_val@JV?$allocator@J@std@@@std@@IAE@V?$allocator@J@1@@Z 10b11ef0 f i LinkManager.obj
 0001:00010ef0       ??0?$_Vector_val@VPMSNSAP@@V?$allocator@VPMSNSAP@@@std@@@std@@IAE@V?$allocator@VPMSNSAP@@@1@@Z 10b11ef0 f i LinkManager.obj
 0001:00010ef0       ??0?$_Vector_val@PAVGSyncObj@@V?$allocator@PAVGSyncObj@@@std@@@std@@IAE@V?$allocator@PAVGSyncObj@@@1@@Z 10b11ef0 f i GKernelObj.obj
 0001:00010ef0       ??0?$_Vector_val@VPMSRegionInfo@@V?$allocator@VPMSRegionInfo@@@std@@@std@@IAE@V?$allocator@VPMSRegionInfo@@@1@@Z 10b11ef0 f i LinkManager.obj
 0001:00010ef0       ??0?$_Vector_val@VPMSStatBase@@V?$allocator@VPMSStatBase@@@std@@@std@@IAE@V?$allocator@VPMSStatBase@@@1@@Z 10b11ef0 f i LinkManager.obj
 0001:00010f30       ??G?$_Vector_const_iterator@JV?$allocator@J@std@@@std@@QBEHABV01@@Z 10b11f30 f i LinkManagerMsg.obj
 0001:00010f30       ??G?$_Vector_const_iterator@PAXV?$allocator@PAX@std@@@std@@QBEHABV01@@Z 10b11f30 f i GKernelObj.obj
 0001:00010f30       ??G?$_Vector_const_iterator@PAVGSyncObj@@V?$allocator@PAVGSyncObj@@@std@@@std@@QBEHABV01@@Z 10b11f30 f i GKernelObj.obj
 0001:00010f80       ??H?$_Vector_iterator@JV?$allocator@J@std@@@std@@QBE?AV01@H@Z 10b11f80 f i LinkManagerMsg.obj
 0001:00010f80       ??H?$_Vector_iterator@PAVGSyncObj@@V?$allocator@PAVGSyncObj@@@std@@@std@@QBE?AV01@H@Z 10b11f80 f i GKernelObj.obj
 0001:00010f80       ??H?$_Vector_iterator@PAXV?$allocator@PAX@std@@@std@@QBE?AV01@H@Z 10b11f80 f i GKernelObj.obj
 0001:00010fc0       ?_Xlen@?$vector@VPMSStatBase@@V?$allocator@VPMSStatBase@@@std@@@std@@KAXXZ 10b11fc0 f i LinkManager.obj
 0001:00010fc0       ?_Xlen@?$vector@JV?$allocator@J@std@@@std@@KAXXZ 10b11fc0 f i LinkManager.obj
 0001:00010fc0       ?_Xlen@?$vector@VPMSNSAP@@V?$allocator@VPMSNSAP@@@std@@@std@@KAXXZ 10b11fc0 f i LinkManager.obj
 0001:00010fc0       ?_Xlen@?$vector@VPMSRegionInfo@@V?$allocator@VPMSRegionInfo@@@std@@@std@@KAXXZ 10b11fc0 f i LinkManager.obj
 0001:00010fc0       ?_Xlen@?$vector@PAVGSyncObj@@V?$allocator@PAVGSyncObj@@@std@@@std@@KAXXZ 10b11fc0 f i GKernelObj.obj
 0001:00010fc0       ?_Xlen@?$vector@PAXV?$allocator@PAX@std@@@std@@KAXXZ 10b11fc0 f i GKernelObj.obj
 0001:00011040       ??0?$_Container_base_aux_alloc_real@V?$allocator@VPMSStatBase@@@std@@@std@@IAE@V?$allocator@VPMSStatBase@@@1@@Z 10b12040 f i LinkManager.obj
 0001:00011040       ??0?$_Container_base_aux_alloc_real@V?$allocator@VPMSNSAP@@@std@@@std@@IAE@V?$allocator@VPMSNSAP@@@1@@Z 10b12040 f i LinkManager.obj
 0001:00011040       ??0?$_Container_base_aux_alloc_real@V?$allocator@J@std@@@std@@IAE@V?$allocator@J@1@@Z 10b12040 f i LinkManager.obj
 0001:00011040       ??0?$_Container_base_aux_alloc_real@V?$allocator@VPMSRegionInfo@@@std@@@std@@IAE@V?$allocator@VPMSRegionInfo@@@1@@Z 10b12040 f i LinkManager.obj
 0001:00011040       ??0?$_Container_base_aux_alloc_real@V?$allocator@PAVGSyncObj@@@std@@@std@@IAE@V?$allocator@PAVGSyncObj@@@1@@Z 10b12040 f i GKernelObj.obj
 0001:00011040       ??0?$_Container_base_aux_alloc_real@V?$allocator@VGBuf@@@std@@@std@@IAE@V?$allocator@VGBuf@@@1@@Z 10b12040 f i LinkManager.obj
 0001:00011100       ??0?$allocator@J@std@@QAE@ABV01@@Z 10b12100 f i LinkManager.obj
 0001:00011100       ??0?$allocator@VPMSNSAP@@@std@@QAE@ABV01@@Z 10b12100 f i LinkManager.obj
 0001:00011100       ??$?0VPMSStatBase@@@?$allocator@V_Aux_cont@std@@@std@@QAE@ABV?$allocator@VPMSStatBase@@@1@@Z 10b12100 f i LinkManager.obj
 0001:00011100       ??0?$allocator@D@std@@QAE@ABV01@@Z 10b12100 f i ErrorLog.obj
 0001:00011100       ??0?$allocator@G@std@@QAE@ABV01@@Z 10b12100 f i GAdlUtl.obj
 0001:00011100       ??$?0VPMSNSAP@@@?$allocator@V_Aux_cont@std@@@std@@QAE@ABV?$allocator@VPMSNSAP@@@1@@Z 10b12100 f i LinkManager.obj
 0001:00011100       ??0?$allocator@VPMSStatBase@@@std@@QAE@ABV01@@Z 10b12100 f i LinkManager.obj
 0001:00011100       ??0?$allocator@VGBuf@@@std@@QAE@ABV01@@Z 10b12100 f i LinkManager.obj
 0001:00011100       ??0?$allocator@VPMSRegionInfo@@@std@@QAE@ABV01@@Z 10b12100 f i LinkManager.obj
 0001:00011100       ??$?0VGBuf@@@?$allocator@V_Aux_cont@std@@@std@@QAE@ABV?$allocator@VGBuf@@@1@@Z 10b12100 f i LinkManager.obj
 0001:00011100       ??$?0VPMSRegionInfo@@@?$allocator@V_Aux_cont@std@@@std@@QAE@ABV?$allocator@VPMSRegionInfo@@@1@@Z 10b12100 f i LinkManager.obj
 0001:00011100       ??$?0VGBuf@@@?$allocator@U_Node@?$_List_nod@VGBuf@@V?$allocator@VGBuf@@@std@@@std@@@std@@QAE@ABV?$allocator@VGBuf@@@1@@Z 10b12100 f i LinkManager.obj
 0001:00011100       ??0?$allocator@PAVGSyncObj@@@std@@QAE@ABV01@@Z 10b12100 f i GKernelObj.obj
 0001:00011100       ??$?0PAVGSyncObj@@@?$allocator@V_Aux_cont@std@@@std@@QAE@ABV?$allocator@PAVGSyncObj@@@1@@Z 10b12100 f i GKernelObj.obj
 0001:00011100       ??$?0J@?$allocator@V_Aux_cont@std@@@std@@QAE@ABV?$allocator@J@1@@Z 10b12100 f i LinkManager.obj
 0001:00011100       ??$?0VGBuf@@@?$allocator@PAU_Node@?$_List_nod@VGBuf@@V?$allocator@VGBuf@@@std@@@std@@@std@@QAE@ABV?$allocator@VGBuf@@@1@@Z 10b12100 f i LinkManager.obj
 0001:00011110       ?max_size@?$vector@JV?$allocator@J@std@@@std@@QBEIXZ 10b12110 f i LinkManager.obj
 0001:00011110       ?max_size@?$vector@PAVGSyncObj@@V?$allocator@PAVGSyncObj@@@std@@@std@@QBEIXZ 10b12110 f i GKernelObj.obj
 0001:00011110       ?max_size@?$vector@PAXV?$allocator@PAX@std@@@std@@QBEIXZ 10b12110 f i GKernelObj.obj
 0001:00011130       ??$find@V?$_Vector_const_iterator@PAVGSyncObj@@V?$allocator@PAVGSyncObj@@@std@@@std@@PBVGSyncObj@@@std@@YA?AV?$_Vector_const_iterator@PAVGSyncObj@@V?$allocator@PAVGSyncObj@@@std@@@0@V10@0ABQBVGSyncObj@@@Z 10b12130 f i GKernelObj.obj
 0001:00011130       ??$find@V?$_Vector_iterator@PAXV?$allocator@PAX@std@@@std@@PAX@std@@YA?AV?$_Vector_iterator@PAXV?$allocator@PAX@std@@@0@V10@0ABQAX@Z 10b12130 f i GKernelObj.obj
 0001:00011130       ??$find@V?$_Vector_iterator@PAVGSyncObj@@V?$allocator@PAVGSyncObj@@@std@@@std@@PBVGSyncObj@@@std@@YA?AV?$_Vector_iterator@PAVGSyncObj@@V?$allocator@PAVGSyncObj@@@std@@@0@V10@0ABQBVGSyncObj@@@Z 10b12130 f i GKernelObj.obj
 0001:00011190       ??$unchecked_uninitialized_fill_n@PAPAVGSyncObj@@IPAV1@V?$allocator@PAVGSyncObj@@@std@@@stdext@@YAXPAPAVGSyncObj@@IABQAV1@AAV?$allocator@PAVGSyncObj@@@std@@@Z 10b12190 f i GKernelObj.obj
 0001:00011190       ??$unchecked_uninitialized_fill_n@PAJIJV?$allocator@J@std@@@stdext@@YAXPAJIABJAAV?$allocator@J@std@@@Z 10b12190 f i LinkManagerMsg.obj
 0001:00011190       ??$unchecked_uninitialized_fill_n@PAPAXIPAXV?$allocator@PAX@std@@@stdext@@YAXPAPAXIABQAXAAV?$allocator@PAX@std@@@Z 10b12190 f i GKernelObj.obj
 0001:000111e0       ??$fill@PAPAVGSyncObj@@PAV1@@std@@YAXPAPAVGSyncObj@@0ABQAV1@@Z 10b121e0 f i GKernelObj.obj
 0001:000111e0       ??$fill@PAPAXPAX@std@@YAXPAPAX0ABQAX@Z 10b121e0 f i GKernelObj.obj
 0001:000111e0       ??$fill@PAJJ@std@@YAXPAJ0ABJ@Z 10b121e0 f i LinkManagerMsg.obj
 0001:00011210       ??$_Unchecked_move_backward@PAPAVGSyncObj@@PAPAV1@@stdext@@YAPAPAVGSyncObj@@PAPAV1@00@Z 10b12210 f i GKernelObj.obj
 0001:00011210       ??$_Unchecked_move_backward@PAJPAJ@stdext@@YAPAJPAJ00@Z 10b12210 f i LinkManagerMsg.obj
 0001:00011210       ??$_Unchecked_move_backward@PAPAXPAPAX@stdext@@YAPAPAXPAPAX00@Z 10b12210 f i GKernelObj.obj
 0001:00011280       ??$_Checked_base@V?$_Vector_iterator@PAVGSyncObj@@V?$allocator@PAVGSyncObj@@@std@@@std@@@std@@YAPAPAVGSyncObj@@AAV?$_Vector_iterator@PAVGSyncObj@@V?$allocator@PAVGSyncObj@@@std@@@0@@Z 10b12280 f i GKernelObj.obj
 0001:00011280       ??$_Checked_base@V?$_Vector_iterator@JV?$allocator@J@std@@@std@@@std@@YAPAJAAV?$_Vector_iterator@JV?$allocator@J@std@@@0@@Z 10b12280 f i LinkManagerMsg.obj
 0001:00011280       ??$_Checked_base@V?$_Vector_const_iterator@PAVGSyncObj@@V?$allocator@PAVGSyncObj@@@std@@@std@@@std@@YAPBQAVGSyncObj@@AAV?$_Vector_const_iterator@PAVGSyncObj@@V?$allocator@PAVGSyncObj@@@std@@@0@@Z 10b12280 f i GKernelObj.obj
 0001:00011280       ??$_Checked_base@V?$_Vector_iterator@PAXV?$allocator@PAX@std@@@std@@@std@@YAPAPAXAAV?$_Vector_iterator@PAXV?$allocator@PAX@std@@@0@@Z 10b12280 f i GKernelObj.obj
 0001:000112a0       ??$_Find@PBQAVGSyncObj@@PBV1@@std@@YAPBQAVGSyncObj@@PBQAV1@0ABQBV1@@Z 10b122a0 f i GKernelObj.obj
 0001:000112a0       ??$_Find@PAPAXPAX@std@@YAPAPAXPAPAX0ABQAX@Z 10b122a0 f i GKernelObj.obj
 0001:000112a0       ??$_Find@PAPAVGSyncObj@@PBV1@@std@@YAPAPAVGSyncObj@@PAPAV1@0ABQBV1@@Z 10b122a0 f i GKernelObj.obj
 0001:000112d0       ??$_Checked_assign_from_base@V?$_Vector_iterator@PAXV?$allocator@PAX@std@@@std@@PAPAX@std@@YAXAAV?$_Vector_iterator@PAXV?$allocator@PAX@std@@@0@ABQAPAX@Z 10b122d0 f i GKernelObj.obj
 0001:000112d0       ??$_Checked_assign_from_base@V?$_Vector_const_iterator@PAVGSyncObj@@V?$allocator@PAVGSyncObj@@@std@@@std@@PBQAVGSyncObj@@@std@@YAXAAV?$_Vector_const_iterator@PAVGSyncObj@@V?$allocator@PAVGSyncObj@@@std@@@0@ABQBQAVGSyncObj@@@Z 10b122d0 f i GKernelObj.obj
 0001:000112d0       ??$_Checked_assign_from_base@V?$_Vector_iterator@PAVGSyncObj@@V?$allocator@PAVGSyncObj@@@std@@@std@@PAPAVGSyncObj@@@std@@YAXAAV?$_Vector_iterator@PAVGSyncObj@@V?$allocator@PAVGSyncObj@@@std@@@0@ABQAPAVGSyncObj@@@Z 10b122d0 f i GKernelObj.obj
 0001:000112f0       ??$_Fill@PAPAXPAX@std@@YAXPAPAX0ABQAX@Z 10b122f0 f i GKernelObj.obj
 0001:000112f0       ??$_Fill@PAJJ@std@@YAXPAJ0ABJ@Z 10b122f0 f i LinkManagerMsg.obj
 0001:000112f0       ??$_Fill@PAPAVGSyncObj@@PAV1@@std@@YAXPAPAVGSyncObj@@0ABQAV1@@Z 10b122f0 f i GKernelObj.obj
 0001:00011320       ?_Checked_iterator_assign_from_base@?$_Vector_iterator@PAVGSyncObj@@V?$allocator@PAVGSyncObj@@@std@@@std@@QAEXPAPAVGSyncObj@@@Z 10b12320 f i GKernelObj.obj
 0001:00011320       ?_Checked_iterator_assign_from_base@?$_Vector_const_iterator@PAVGSyncObj@@V?$allocator@PAVGSyncObj@@@std@@@std@@QAEXPBQAVGSyncObj@@@Z 10b12320 f i GKernelObj.obj
 0001:00011320       ?_Checked_iterator_assign_from_base@?$_Vector_iterator@PAXV?$allocator@PAX@std@@@std@@QAEXPAPAX@Z 10b12320 f i GKernelObj.obj
 0001:00011340       ??$_Copy_backward_opt@PAPAVGSyncObj@@PAPAV1@Urandom_access_iterator_tag@std@@@std@@YAPAPAVGSyncObj@@PAPAV1@00Urandom_access_iterator_tag@0@U_Scalar_ptr_iterator_tag@0@U_Range_checked_iterator_tag@0@@Z 10b12340 f i GKernelObj.obj
 0001:00011340       ??$_Copy_backward_opt@PAPAXPAPAXUrandom_access_iterator_tag@std@@@std@@YAPAPAXPAPAX00Urandom_access_iterator_tag@0@U_Scalar_ptr_iterator_tag@0@U_Range_checked_iterator_tag@0@@Z 10b12340 f i GKernelObj.obj
 0001:00011340       ??$_Copy_backward_opt@PAJPAJUrandom_access_iterator_tag@std@@@std@@YAPAJPAJ00Urandom_access_iterator_tag@0@U_Scalar_ptr_iterator_tag@0@U_Range_checked_iterator_tag@0@@Z 10b12340 f i LinkManagerMsg.obj
 0001:00011390       ??$_Iter_random@PAVPMSRegionInfo@@PAV1@@std@@YA?AUrandom_access_iterator_tag@0@ABQAVPMSRegionInfo@@0@Z 10b12390 f i LinkManagerMsg.obj
 0001:00011390       ??$_Iter_cat@PAJ@std@@YA?AUrandom_access_iterator_tag@0@ABQAJ@Z 10b12390 f i LinkManagerMsg.obj
 0001:00011390       ??$_Iter_cat@PAPAX@std@@YA?AUrandom_access_iterator_tag@0@ABQAPAX@Z 10b12390 f i GKernelObj.obj
 0001:00011390       ??$_Iter_random@PAVPMSStatBase@@PAV1@@std@@YA?AUrandom_access_iterator_tag@0@ABQAVPMSStatBase@@0@Z 10b12390 f i LinkManagerMsg.obj
 0001:00011390       ??$_Iter_cat@V?$_Vector_iterator@JV?$allocator@J@std@@@std@@@std@@YA?AUrandom_access_iterator_tag@0@ABV?$_Vector_iterator@JV?$allocator@J@std@@@0@@Z 10b12390 f i LinkManagerMsg.obj
 0001:00011390       ??$_Iter_random@PAVPMSNSAP@@PAV1@@std@@YA?AUrandom_access_iterator_tag@0@ABQAVPMSNSAP@@0@Z 10b12390 f i LinkManager.obj
 0001:00011390       ??$_Iter_random@PAPAXPAPAX@std@@YA?AUrandom_access_iterator_tag@0@ABQAPAX0@Z 10b12390 f i GKernelObj.obj
 0001:00011390       ??$_Iter_random@PAJPAJ@std@@YA?AUrandom_access_iterator_tag@0@ABQAJ0@Z 10b12390 f i LinkManagerMsg.obj
 0001:00011390       ??$_Iter_random@PAPAVGSyncObj@@PAPAV1@@std@@YA?AUrandom_access_iterator_tag@0@ABQAPAVGSyncObj@@0@Z 10b12390 f i GKernelObj.obj
 0001:00011390       ??$_Iter_cat@PAPAVGSyncObj@@@std@@YA?AUrandom_access_iterator_tag@0@ABQAPAVGSyncObj@@@Z 10b12390 f i GKernelObj.obj
 0001:000113a0       ?TryEnter@GCRITICAL_SECTION@@QAEHXZ 10b123a0 f i GKernelObj.obj
 0001:000113c0       ??1GWaitableObj@@UAE@XZ    10b123c0 f i GKernelObj.obj
 0001:000113e0       ??_EGWaitableObj@@UAEPAXI@Z 10b123e0 f i GKernelObj.obj
 0001:000113e0       ??_GGWaitableObj@@UAEPAXI@Z 10b123e0 f i GKernelObj.obj
 0001:00011410       ?IsValid@GSyncObj@@QBEHXZ  10b12410 f i GKernelObj.obj
 0001:00011440       ??1?$pvector@VGSyncObj@@@@UAE@XZ 10b12440 f i GKernelObj.obj
 0001:000114b0       ??_G?$pvector@VGSyncObj@@@@UAEPAXI@Z 10b124b0 f i GKernelObj.obj
 0001:000114b0       ??_E?$pvector@VGSyncObj@@@@UAEPAXI@Z 10b124b0 f i GKernelObj.obj
 0001:000114e0       ??1?$vector@JV?$allocator@J@std@@@std@@QAE@XZ 10b124e0 f i LinkManager.obj
 0001:000114e0       ??1?$vector@PAVGSyncObj@@V?$allocator@PAVGSyncObj@@@std@@@std@@QAE@XZ 10b124e0 f i GKernelObj.obj
 0001:00011540       ?clear@?$vector@JV?$allocator@J@std@@@std@@QAEXXZ 10b12540 f i LinkManagerMsg.obj
 0001:00011540       ?clear@?$vector@PAVGSyncObj@@V?$allocator@PAVGSyncObj@@@std@@@std@@QAEXXZ 10b12540 f i GKernelObj.obj
 0001:000115a0       ?erase@?$vector@PAVGSyncObj@@V?$allocator@PAVGSyncObj@@@std@@@std@@QAE?AV?$_Vector_iterator@PAVGSyncObj@@V?$allocator@PAVGSyncObj@@@std@@@2@V?$_Vector_const_iterator@PAVGSyncObj@@V?$allocator@PAVGSyncObj@@@std@@@2@0@Z 10b125a0 f i GKernelObj.obj
 0001:000115a0       ?erase@?$vector@JV?$allocator@J@std@@@std@@QAE?AV?$_Vector_iterator@JV?$allocator@J@std@@@2@V?$_Vector_const_iterator@JV?$allocator@J@std@@@2@0@Z 10b125a0 f i LinkManagerMsg.obj
 0001:00011640       ?_Tidy@?$vector@PAVGSyncObj@@V?$allocator@PAVGSyncObj@@@std@@@std@@IAEXXZ 10b12640 f i GKernelObj.obj
 0001:00011640       ?_Tidy@?$vector@JV?$allocator@J@std@@@std@@IAEXXZ 10b12640 f i LinkManager.obj
 0001:000116b0       ?_Destroy@?$vector@PAXV?$allocator@PAX@std@@@std@@IAEXPAPAX0@Z 10b126b0 f i GKernelObj.obj
 0001:000116b0       ?_Destroy@?$vector@PAVGSyncObj@@V?$allocator@PAVGSyncObj@@@std@@@std@@IAEXPAPAVGSyncObj@@0@Z 10b126b0 f i GKernelObj.obj
 0001:000116b0       ?_Destroy@?$vector@JV?$allocator@J@std@@@std@@IAEXPAJ0@Z 10b126b0 f i LinkManager.obj
 0001:000116e0       ??0?$_Vector_iterator@PAXV?$allocator@PAX@std@@@std@@QAE@PAPAXPBV_Container_base_aux@1@@Z 10b126e0 f i GKernelObj.obj
 0001:000116e0       ??0?$_Vector_iterator@PAVGSyncObj@@V?$allocator@PAVGSyncObj@@@std@@@std@@QAE@PAPAVGSyncObj@@PBV_Container_base_aux@1@@Z 10b126e0 f i GKernelObj.obj
 0001:000116e0       ??0?$_Vector_iterator@VPMSNSAP@@V?$allocator@VPMSNSAP@@@std@@@std@@QAE@PAVPMSNSAP@@PBV_Container_base_aux@1@@Z 10b126e0 f i LinkManager.obj
 0001:000116e0       ??0?$_Vector_iterator@VPMSStatBase@@V?$allocator@VPMSStatBase@@@std@@@std@@QAE@PAVPMSStatBase@@PBV_Container_base_aux@1@@Z 10b126e0 f i LinkManagerMsg.obj
 0001:000116e0       ??0?$_Vector_iterator@JV?$allocator@J@std@@@std@@QAE@PAJPBV_Container_base_aux@1@@Z 10b126e0 f i LinkManagerMsg.obj
 0001:000116e0       ??0?$_Vector_iterator@VPMSRegionInfo@@V?$allocator@VPMSRegionInfo@@@std@@@std@@QAE@PAVPMSRegionInfo@@PBV_Container_base_aux@1@@Z 10b126e0 f i LinkManagerMsg.obj
 0001:00011700       ??0?$_Vector_const_iterator@VPMSStatBase@@V?$allocator@VPMSStatBase@@@std@@@std@@QAE@PAVPMSStatBase@@PBV_Container_base_aux@1@@Z 10b12700 f i LinkManager.obj
 0001:00011700       ??0?$_Vector_const_iterator@VPMSRegionInfo@@V?$allocator@VPMSRegionInfo@@@std@@@std@@QAE@PAVPMSRegionInfo@@PBV_Container_base_aux@1@@Z 10b12700 f i LinkManager.obj
 0001:00011700       ??0?$_Vector_const_iterator@JV?$allocator@J@std@@@std@@QAE@PAJPBV_Container_base_aux@1@@Z 10b12700 f i LinkManager.obj
 0001:00011700       ??0?$_Vector_const_iterator@PAVGSyncObj@@V?$allocator@PAVGSyncObj@@@std@@@std@@QAE@PAPAVGSyncObj@@PBV_Container_base_aux@1@@Z 10b12700 f i GKernelObj.obj
 0001:00011700       ??0?$_Vector_const_iterator@VPMSNSAP@@V?$allocator@VPMSNSAP@@@std@@@std@@QAE@PAVPMSNSAP@@PBV_Container_base_aux@1@@Z 10b12700 f i LinkManager.obj
 0001:00011700       ??0?$_Vector_const_iterator@PAXV?$allocator@PAX@std@@@std@@QAE@PAPAXPBV_Container_base_aux@1@@Z 10b12700 f i GKernelObj.obj
 0001:00011760       ??$unchecked_copy@PAPAXPAPAX@stdext@@YAPAPAXPAPAX00@Z 10b12760 f i GKernelObj.obj
 0001:00011760       ??$unchecked_copy@PAPAVGSyncObj@@PAPAV1@@stdext@@YAPAPAVGSyncObj@@PAPAV1@00@Z 10b12760 f i GKernelObj.obj
 0001:00011760       ??$unchecked_copy@PAJPAJ@stdext@@YAPAJPAJ00@Z 10b12760 f i LinkManagerMsg.obj
 0001:000117d0       ??$_Destroy_range@V?$allocator@J@std@@@std@@YAXPAJ0AAV?$allocator@J@0@@Z 10b127d0 f i LinkManager.obj
 0001:000117d0       ??$_Destroy_range@V?$allocator@PAVGSyncObj@@@std@@@std@@YAXPAPAVGSyncObj@@0AAV?$allocator@PAVGSyncObj@@@0@@Z 10b127d0 f i GKernelObj.obj
 0001:000117d0       ??$_Destroy_range@V?$allocator@PAX@std@@@std@@YAXPAPAX0AAV?$allocator@PAX@0@@Z 10b127d0 f i GKernelObj.obj
 0001:00011810       ??$_Copy_opt@PAJPAJUrandom_access_iterator_tag@std@@@std@@YAPAJPAJ00Urandom_access_iterator_tag@0@U_Scalar_ptr_iterator_tag@0@U_Range_checked_iterator_tag@0@@Z 10b12810 f i LinkManagerMsg.obj
 0001:00011810       ??$_Copy_opt@PAPAVGSyncObj@@PAPAV1@Urandom_access_iterator_tag@std@@@std@@YAPAPAVGSyncObj@@PAPAV1@00Urandom_access_iterator_tag@0@U_Scalar_ptr_iterator_tag@0@U_Range_checked_iterator_tag@0@@Z 10b12810 f i GKernelObj.obj
 0001:00011810       ??$_Copy_opt@PAPAXPAPAXUrandom_access_iterator_tag@std@@@std@@YAPAPAXPAPAX00Urandom_access_iterator_tag@0@U_Scalar_ptr_iterator_tag@0@U_Range_checked_iterator_tag@0@@Z 10b12810 f i GKernelObj.obj
 0001:00011860       ??0GSocketInitializer@@QAE@G@Z 10b12860 f   GSocket.obj
 0001:00011890       ??1GSocketInitializer@@QAE@XZ 10b12890 f   GSocket.obj
 0001:000118a0       ??0GSocketEvent@@QAE@XZ    10b128a0 f   GSocket.obj
 0001:00011900       ??1GSocketEvent@@UAE@XZ    10b12900 f   GSocket.obj
 0001:00011950       ?Unlock@GSocketEvent@@UAEHXZ 10b12950 f   GSocket.obj
 0001:00011960       ?SetEvent@GSocketEvent@@QAEHXZ 10b12960 f   GSocket.obj
 0001:00011980       ?ResetEvent@GSocketEvent@@QAEHXZ 10b12980 f   GSocket.obj
 0001:000119a0       ?EventSelect@@YAHIPAXJ@Z   10b129a0 f   GSocket.obj
 0001:00011a00       ?Startup@GSocket@@SAHG@Z   10b12a00 f   GSocket.obj
 0001:00011a70       ?Cleanup@GSocket@@SAHXZ    10b12a70 f   GSocket.obj
 0001:00011a90       ??1GSocket@@UAE@XZ         10b12a90 f   GSocket.obj
 0001:00011ab0       ?Socket@GSocket@@QAEHHHH@Z 10b12ab0 f   GSocket.obj
 0001:00011b00       ?Close@GSocket@@UAEXXZ     10b12b00 f   GSocket.obj
 0001:00011b40       ?Create@GSocket@@UAEHJHPBD@Z 10b12b40 f   GSocket.obj
 0001:00011bb0       ?Create@GSocket@@UAEHJHV?$basic_string@DU?$char_traits@D@std@@V?$allocator@D@2@@std@@@Z 10b12bb0 f   GSocket.obj
 0001:00011ca0       ?Create@GSocket@@UAEHJHV?$basic_string@GU?$char_traits@G@std@@V?$allocator@G@2@@std@@@Z 10b12ca0 f   GSocket.obj
 0001:00011d90       ?Attach@GSocket@@UAEHI@Z   10b12d90 f   GSocket.obj
 0001:00011dd0       ?Detach@GSocket@@UAEIXZ    10b12dd0 f   GSocket.obj
 0001:00011e00       ?GetPeerName@GSocket@@QAEHAAV?$basic_string@DU?$char_traits@D@std@@V?$allocator@D@2@@std@@AAJ@Z 10b12e00 f   GSocket.obj
 0001:00011e80       ?GetPeerName@GSocket@@QAEHAAV?$basic_string@GU?$char_traits@G@std@@V?$allocator@G@2@@std@@AAJ@Z 10b12e80 f   GSocket.obj
 0001:00011f40       ?GetPeerName@GSocket@@QAEHPAUsockaddr@@PAH@Z 10b12f40 f   GSocket.obj
 0001:00011f70       ?GetSockName@GSocket@@QAEHAAV?$basic_string@DU?$char_traits@D@std@@V?$allocator@D@2@@std@@AAJ@Z 10b12f70 f   GSocket.obj
 0001:00011ff0       ?GetSockName@GSocket@@QAEHAAV?$basic_string@GU?$char_traits@G@std@@V?$allocator@G@2@@std@@AAJ@Z 10b12ff0 f   GSocket.obj
 0001:000120b0       ?GetSockName@GSocket@@QAEHPAUsockaddr@@PAH@Z 10b130b0 f   GSocket.obj
 0001:000120e0       ?SetSockOpt@GSocket@@QAEHHPBXHH@Z 10b130e0 f   GSocket.obj
 0001:00012120       ?GetSockOpt@GSocket@@QAEHHPAXPAHH@Z 10b13120 f   GSocket.obj
 0001:00012160       ?Listen@GSocket@@QAEHH@Z   10b13160 f   GSocket.obj
 0001:00012190       ?Accept@GSocket@@QAEIPAUsockaddr@@PAH@Z 10b13190 f   GSocket.obj
 0001:000121c0       ?Bind@GSocket@@QAEHJPBD@Z  10b131c0 f   GSocket.obj
 0001:00012260       ?Bind@GSocket@@QAEHJV?$basic_string@DU?$char_traits@D@std@@V?$allocator@D@2@@std@@@Z 10b13260 f   GSocket.obj
 0001:00012360       ?Bind@GSocket@@QAEHJV?$basic_string@GU?$char_traits@G@std@@V?$allocator@G@2@@std@@@Z 10b13360 f   GSocket.obj
 0001:00012460       ?Bind@GSocket@@QAEHPBUsockaddr@@H@Z 10b13460 f   GSocket.obj
 0001:00012490       ?Connect@GSocket@@QAEHPBDJ@Z 10b13490 f   GSocket.obj
 0001:00012540       ?Connect@GSocket@@QAEHV?$basic_string@DU?$char_traits@D@std@@V?$allocator@D@2@@std@@J@Z 10b13540 f   GSocket.obj
 0001:00012660       ?Connect@GSocket@@QAEHV?$basic_string@GU?$char_traits@G@std@@V?$allocator@G@2@@std@@J@Z 10b13660 f   GSocket.obj
 0001:00012780       ?Connect@GSocket@@QAEHPBUsockaddr@@H@Z 10b13780 f   GSocket.obj
 0001:000127c0       ?Receive@GSocket@@QAEHPAXHH@Z 10b137c0 f   GSocket.obj
 0001:000127f0       ?Send@GSocket@@QAEHPBXHH@Z 10b137f0 f   GSocket.obj
 0001:00012820       ?ReceiveFrom@GSocket@@QAEHPAXHPAUsockaddr@@PAHH@Z 10b13820 f   GSocket.obj
 0001:00012850       ?ReceiveFrom@GSocket@@QAEHPAXHAAV?$basic_string@DU?$char_traits@D@std@@V?$allocator@D@2@@std@@AAJH@Z 10b13850 f   GSocket.obj
 0001:000128f0       ?ReceiveFrom@GSocket@@QAEHPAXHAAK1H@Z 10b138f0 f   GSocket.obj
 0001:00012980       ?SendTo@GSocket@@QAEHPBXHPBUsockaddr@@HH@Z 10b13980 f   GSocket.obj
 0001:000129b0       ?SendTo@GSocket@@QAEHPBXHJV?$basic_string@DU?$char_traits@D@std@@V?$allocator@D@2@@std@@H@Z 10b139b0 f   GSocket.obj
 0001:00012ac0       ?SendTo@GSocket@@QAEHPBXHJV?$basic_string@GU?$char_traits@G@std@@V?$allocator@G@2@@std@@H@Z 10b13ac0 f   GSocket.obj
 0001:00012bd0       ?SendTo@GSocket@@QAEHPBXHKJH@Z 10b13bd0 f   GSocket.obj
 0001:00012c40       ?WSAReceiveFrom@GSocket@@QAEHPAU_WSABUF@@KAAK11PAU_OVERLAPPED@@P6GXKK2K@Z@Z 10b13c40 f   GSocket.obj
 0001:00012cf0       ?WSAReceiveFrom@GSocket@@QAEHPAU_WSABUF@@KAAKAAV?$basic_string@DU?$char_traits@D@std@@V?$allocator@D@2@@std@@1PAU_OVERLAPPED@@P6GXKK3K@Z@Z 10b13cf0 f   GSocket.obj
 0001:00012da0       ?WSASendTo@GSocket@@QAEHPAU_WSABUF@@KKKKPAU_OVERLAPPED@@P6GXKK1K@Z@Z 10b13da0 f   GSocket.obj
 0001:00012e30       ?GetHostAddr@GSocket@@QAEHPBDPAUsockaddr_in@@HH@Z 10b13e30 f   GSocket.obj
 0001:00012f00       ?GetHostAddr@GSocket@@QAEHV?$basic_string@GU?$char_traits@G@std@@V?$allocator@G@2@@std@@PAUsockaddr_in@@HH@Z 10b13f00 f   GSocket.obj
 0001:00013150       ?GetHostAddr@GSocket@@QAEHV?$basic_string@DU?$char_traits@D@std@@V?$allocator@D@2@@std@@PAUsockaddr_in@@HH@Z 10b14150 f   GSocket.obj
 0001:00013380       ?OnSocketNotify@GSocket@@UAEHJH@Z 10b14380 f   GSocket.obj
 0001:00013520       ?Dispatch@GSocket@@QAEHXZ  10b14520 f   GSocket.obj
 0001:00013750       ?WSAGetErrorDescription@@YAPBDH@Z 10b14750 f   GSocket.obj
 0001:00013a10       ?GetHostAddress@@YAHAAV?$basic_string@DU?$char_traits@D@std@@V?$allocator@D@2@@std@@H@Z 10b14a10 f   GSocket.obj
 0001:00013b70       ?TryReceive@@YAHIPAEKPAK@Z 10b14b70 f   GSocket.obj
 0001:00013c00       ?TrySend@@YAHIPBEKPAK@Z    10b14c00 f   GSocket.obj
 0001:00013ca0       ?TryReceive@@YAHIPAUIXBuf@@@Z 10b14ca0 f   GSocket.obj
 0001:00013d60       ?TrySend@@YAHIPAUIXBuf@@@Z 10b14d60 f   GSocket.obj
 0001:00013de0       ?BlockingReceive@@YAHIPAEK@Z 10b14de0 f   GSocket.obj
 0001:00013e60       ?BlockingSend@@YAHIPBEK@Z  10b14e60 f   GSocket.obj
 0001:00013ee0       ?BlockingReceive@@YAHIPAUIXBuf@@K@Z 10b14ee0 f   GSocket.obj
 0001:00013f60       ?BlockingSend@@YAHIPAUIXBuf@@@Z 10b14f60 f   GSocket.obj
 0001:00013fd0       ??_EGSocketEvent@@UAEPAXI@Z 10b14fd0 f i GSocket.obj
 0001:00013fd0       ??_GGSocketEvent@@UAEPAXI@Z 10b14fd0 f i GSocket.obj
 0001:00014000       ??0?$basic_string@GU?$char_traits@G@std@@V?$allocator@G@2@@std@@QAE@ABV01@@Z 10b15000 f i GSocket.obj
 0001:00014040       ?empty@?$basic_string@GU?$char_traits@G@std@@V?$allocator@G@2@@std@@QBE_NXZ 10b15040 f i GSocket.obj
 0001:00014040       ?empty@?$basic_string@DU?$char_traits@D@std@@V?$allocator@D@2@@std@@QBE_NXZ 10b15040 f i GAdlUtl.obj
 0001:00014060       ??0?$_String_val@GV?$allocator@G@std@@@std@@QAE@ABV01@@Z 10b15060 f i GSocket.obj
 0001:00014060       ??0?$_String_val@DV?$allocator@D@std@@@std@@QAE@ABV01@@Z 10b15060 f i LinkManager.obj
 0001:00014080       ?FATAL@@YAXPBD@Z           10b15080 f i GSocket.obj
 0001:000140b0       ?MSGBOXA@@YAXPBD@Z         10b150b0 f i GSocket.obj
 0001:00014100       ?str2wstr@@YAHAAV?$basic_string@GU?$char_traits@G@std@@V?$allocator@G@2@@std@@V?$basic_string@DU?$char_traits@D@std@@V?$allocator@D@2@@2@@Z 10b15100 f i GSocket.obj
 0001:00014190       ?wstr2str@@YAHAAV?$basic_string@DU?$char_traits@D@std@@V?$allocator@D@2@@std@@V?$basic_string@GU?$char_traits@G@std@@V?$allocator@G@2@@2@@Z 10b15190 f i GSocket.obj
 0001:00014220       ?IsValid@GSocket@@QBEHXZ   10b15220 f i GSocket.obj
 0001:00014240       ?OnError@GSocket@@UAEHJH@Z 10b15240 f i GSocket.obj
 0001:00014250       ?OnReceive@GSocket@@UAEHH@Z 10b15250 f i GSocket.obj
 0001:00014290       ?OnSend@GSocket@@UAEHH@Z   10b15290 f i GSocket.obj
 0001:000142d0       ?OnOOB@GSocket@@UAEHH@Z    10b152d0 f i GSocket.obj
 0001:00014310       ?OnAccept@GSocket@@UAEHH@Z 10b15310 f i GSocket.obj
 0001:00014350       ?OnConnect@GSocket@@UAEHH@Z 10b15350 f i GSocket.obj
 0001:00014390       ?OnClose@GSocket@@UAEHH@Z  10b15390 f i GSocket.obj
 0001:000143b0       ?OnQOS@GSocket@@UAEHH@Z    10b153b0 f i GSocket.obj
 0001:000143f0       ?OnGroupQOS@GSocket@@UAEHH@Z 10b153f0 f i GSocket.obj
 0001:00014430       ?OnRoutingInterfaceChange@GSocket@@UAEHH@Z 10b15430 f i GSocket.obj
 0001:00014470       ?OnAddressListChange@GSocket@@UAEHH@Z 10b15470 f i GSocket.obj
 0001:000144b0       ??_GGSocket@@UAEPAXI@Z     10b154b0 f i GSocket.obj
 0001:000144b0       ??_EGSocket@@UAEPAXI@Z     10b154b0 f i GSocket.obj
 0001:000144e0       ?TryReceive@@YAHIAAV?$basic_string@DU?$char_traits@D@std@@V?$allocator@D@2@@std@@@Z 10b154e0 f   GSocketUtl.obj
 0001:000145b0       ?TrySend@@YAHIAAV?$basic_string@DU?$char_traits@D@std@@V?$allocator@D@2@@std@@@Z 10b155b0 f   GSocketUtl.obj
 0001:00014680       ??0GTxtSocket@@QAE@XZ      10b15680 f   GSocketUtl.obj
 0001:00014700       ??1GTxtSocket@@UAE@XZ      10b15700 f   GSocketUtl.obj
 0001:00014770       ?Close@GTxtSocket@@UAEXXZ  10b15770 f   GSocketUtl.obj
 0001:000147b0       ?TryReceive@GTxtSocket@@UAEHXZ 10b157b0 f   GSocketUtl.obj
 0001:000147e0       ?TrySend@GTxtSocket@@UAEHXZ 10b157e0 f   GSocketUtl.obj
 0001:00014810       ?DoSend@GTxtSocket@@UAEHV?$basic_string@DU?$char_traits@D@std@@V?$allocator@D@2@@std@@@Z 10b15810 f   GSocketUtl.obj
 0001:00014890       ?OnReceive@GTxtSocket@@UAEHH@Z 10b15890 f   GSocketUtl.obj
 0001:000148e0       ?OnSend@GTxtSocket@@UAEHH@Z 10b158e0 f   GSocketUtl.obj
 0001:00014930       ?GetRcvBuf@GTxtSocket@@QAEAAV?$basic_string@DU?$char_traits@D@std@@V?$allocator@D@2@@std@@XZ 10b15930 f   GSocketUtl.obj
 0001:00014950       ?GetSndBuf@GTxtSocket@@QAEAAV?$basic_string@DU?$char_traits@D@std@@V?$allocator@D@2@@std@@XZ 10b15950 f   GSocketUtl.obj
 0001:00014970       ?TryReceive@@YAHIAAVGBuf@@@Z 10b15970 f   GSocketUtl.obj
 0001:00014a20       ?TrySend@@YAHIAAVGBuf@@@Z  10b15a20 f   GSocketUtl.obj
 0001:00014a90       ?TrySend@@YAHIAAVGBufQ@@@Z 10b15a90 f   GSocketUtl.obj
 0001:00014b00       ??0GBufSocket@@QAE@XZ      10b15b00 f   GSocketUtl.obj
 0001:00014b80       ??1GBufSocket@@UAE@XZ      10b15b80 f   GSocketUtl.obj
 0001:00014bf0       ?Close@GBufSocket@@UAEXXZ  10b15bf0 f   GSocketUtl.obj
 0001:00014c20       ?TryReceive@GBufSocket@@UAEHXZ 10b15c20 f   GSocketUtl.obj
 0001:00014c50       ?TrySend@GBufSocket@@UAEHXZ 10b15c50 f   GSocketUtl.obj
 0001:00014c80       ?DoSend@GBufSocket@@UAEHABVGBuf@@@Z 10b15c80 f   GSocketUtl.obj
 0001:00014cb0       ?OnReceive@GBufSocket@@UAEHH@Z 10b15cb0 f   GSocketUtl.obj
 0001:00014d00       ?OnSend@GBufSocket@@UAEHH@Z 10b15d00 f   GSocketUtl.obj
 0001:00014d50       ?GetRcvBuf@GBufSocket@@QAEAAVGBuf@@XZ 10b15d50 f   GSocketUtl.obj
 0001:00014d70       ?GetSndBufQ@GBufSocket@@QAEAAVGBufQ@@XZ 10b15d70 f   GSocketUtl.obj
 0001:00014d90       ??_EGTxtSocket@@UAEPAXI@Z  10b15d90 f i GSocketUtl.obj
 0001:00014d90       ??_GGTxtSocket@@UAEPAXI@Z  10b15d90 f i GSocketUtl.obj
 0001:00014dc0       ??_EGBufSocket@@UAEPAXI@Z  10b15dc0 f i GSocketUtl.obj
 0001:00014dc0       ??_GGBufSocket@@UAEPAXI@Z  10b15dc0 f i GSocketUtl.obj
 0001:00014df0       ??Y?$basic_string@DU?$char_traits@D@std@@V?$allocator@D@2@@std@@QAEAAV01@ABV01@@Z 10b15df0 f i GSocketUtl.obj
 0001:00014e10       ?append@?$basic_string@DU?$char_traits@D@std@@V?$allocator@D@2@@std@@QAEAAV12@PBDI@Z 10b15e10 f i GSocketUtl.obj
 0001:00014ee0       ?append@?$basic_string@DU?$char_traits@D@std@@V?$allocator@D@2@@std@@QAEAAV12@ABV12@@Z 10b15ee0 f i GSocketUtl.obj
 0001:00014f00       ?append@?$basic_string@DU?$char_traits@D@std@@V?$allocator@D@2@@std@@QAEAAV12@ABV12@II@Z 10b15f00 f i GSocketUtl.obj
 0001:00014fd0       ??0GSocket@@QAE@XZ         10b15fd0 f i GSocketUtl.obj
 0001:00015000       ?Reserve@GBuf@@QAEXK@Z     10b16000 f i GSocketUtl.obj
 0001:00015030       ?RemoveLeft@GBuf@@QAEXK@Z  10b16030 f i GSocketUtl.obj
 0001:00015060       ?Clear@GBuf@@QAEXXZ        10b16060 f i GSocketUtl.obj
 0001:00015090       ?Clear@GBufQ@@QAEXXZ       10b16090 f i GSocketUtl.obj
 0001:000150b0       ?Top@GBufQ@@QAEAAVGBuf@@XZ 10b160b0 f i GSocketUtl.obj
 0001:000150d0       ?Pop@GBufQ@@QAE?AVGBuf@@XZ 10b160d0 f i GSocketUtl.obj
 0001:00015160       ?vformat@@YA?AV?$basic_string@DU?$char_traits@D@std@@V?$allocator@D@2@@std@@PBDPAD@Z 10b16160 f   GString.obj
 0001:000151e0       ?vformat@@YA?AV?$basic_string@GU?$char_traits@G@std@@V?$allocator@G@2@@std@@PBGPAD@Z 10b161e0 f   GString.obj
 0001:00015260       ?format@@YA?AV?$basic_string@DU?$char_traits@D@std@@V?$allocator@D@2@@std@@PBDZZ 10b16260 f   GString.obj
 0001:00015300       ?format@@YA?AV?$basic_string@GU?$char_traits@G@std@@V?$allocator@G@2@@std@@PBGZZ 10b16300 f   GString.obj
 0001:000153a0       ?tolower@@YAAAV?$basic_string@DU?$char_traits@D@std@@V?$allocator@D@2@@std@@AAV12@@Z 10b163a0 f   GString.obj
 0001:00015420       ?toupper@@YAAAV?$basic_string@DU?$char_traits@D@std@@V?$allocator@D@2@@std@@AAV12@@Z 10b16420 f   GString.obj
 0001:000154a0       ?trimleft@@YAAAV?$basic_string@DU?$char_traits@D@std@@V?$allocator@D@2@@std@@AAV12@@Z 10b164a0 f   GString.obj
 0001:00015580       ?trimright@@YAAAV?$basic_string@DU?$char_traits@D@std@@V?$allocator@D@2@@std@@AAV12@@Z 10b16580 f   GString.obj
 0001:000155e0       ?trim@@YAAAV?$basic_string@DU?$char_traits@D@std@@V?$allocator@D@2@@std@@AAV12@@Z 10b165e0 f   GString.obj
 0001:00015600       ?strcmp@@YAHABV?$basic_string@DU?$char_traits@D@std@@V?$allocator@D@2@@std@@0@Z 10b16600 f   GString.obj
 0001:00015620       ?stricmp@@YAHABV?$basic_string@DU?$char_traits@D@std@@V?$allocator@D@2@@std@@0@Z 10b16620 f   GString.obj
 0001:000156d0       ?strncmp@@YAHABV?$basic_string@DU?$char_traits@D@std@@V?$allocator@D@2@@std@@0I@Z 10b166d0 f   GString.obj
 0001:000157a0       ?strnicmp@@YAHABV?$basic_string@DU?$char_traits@D@std@@V?$allocator@D@2@@std@@0I@Z 10b167a0 f   GString.obj
 0001:00015910       ?striless@@YA_NABV?$basic_string@DU?$char_traits@D@std@@V?$allocator@D@2@@std@@0@Z 10b16910 f   GString.obj
 0001:00015930       ?strless@@YA_NABV?$basic_string@DU?$char_traits@D@std@@V?$allocator@D@2@@std@@0@Z 10b16930 f   GString.obj
 0001:00015950       ?striabbrless@@YA_NABV?$basic_string@DU?$char_traits@D@std@@V?$allocator@D@2@@std@@0@Z 10b16950 f   GString.obj
 0001:00015980       ?tolower@@YAAAV?$basic_string@GU?$char_traits@G@std@@V?$allocator@G@2@@std@@AAV12@@Z 10b16980 f   GString.obj
 0001:00015a00       ?toupper@@YAAAV?$basic_string@GU?$char_traits@G@std@@V?$allocator@G@2@@std@@AAV12@@Z 10b16a00 f   GString.obj
 0001:00015a80       ?trimleft@@YAAAV?$basic_string@GU?$char_traits@G@std@@V?$allocator@G@2@@std@@AAV12@@Z 10b16a80 f   GString.obj
 0001:00015b60       ?trimright@@YAAAV?$basic_string@GU?$char_traits@G@std@@V?$allocator@G@2@@std@@AAV12@@Z 10b16b60 f   GString.obj
 0001:00015bc0       ?strcmp@@YAHABV?$basic_string@GU?$char_traits@G@std@@V?$allocator@G@2@@std@@0@Z 10b16bc0 f   GString.obj
 0001:00015be0       ?stricmp@@YAHABV?$basic_string@GU?$char_traits@G@std@@V?$allocator@G@2@@std@@0@Z 10b16be0 f   GString.obj
 0001:00015c90       ?strncmp@@YAHABV?$basic_string@GU?$char_traits@G@std@@V?$allocator@G@2@@std@@0I@Z 10b16c90 f   GString.obj
 0001:00015d60       ?strnicmp@@YAHABV?$basic_string@GU?$char_traits@G@std@@V?$allocator@G@2@@std@@0I@Z 10b16d60 f   GString.obj
 0001:00015ed0       ?striless@@YA_NABV?$basic_string@GU?$char_traits@G@std@@V?$allocator@G@2@@std@@0@Z 10b16ed0 f   GString.obj
 0001:00015ef0       ?striabbrless@@YA_NABV?$basic_string@GU?$char_traits@G@std@@V?$allocator@G@2@@std@@0@Z 10b16ef0 f   GString.obj
 0001:00015f20       ?wstr2str@@YA?AV?$basic_string@DU?$char_traits@D@std@@V?$allocator@D@2@@std@@ABV?$basic_string@GU?$char_traits@G@std@@V?$allocator@G@2@@2@@Z 10b16f20 f   GString.obj
 0001:00016080       ?str2wstr@@YA?AV?$basic_string@GU?$char_traits@G@std@@V?$allocator@G@2@@std@@ABV?$basic_string@DU?$char_traits@D@std@@V?$allocator@D@2@@2@@Z 10b17080 f   GString.obj
 0001:000161f0       ??A?$basic_string@DU?$char_traits@D@std@@V?$allocator@D@2@@std@@QAEAADI@Z 10b171f0 f i GString.obj
 0001:00016220       ?find_first_not_of@?$basic_string@DU?$char_traits@D@std@@V?$allocator@D@2@@std@@QBEIPBDI@Z 10b17220 f i GString.obj
 0001:00016250       ??0?$basic_string@GU?$char_traits@G@std@@V?$allocator@G@2@@std@@QAE@PBG@Z 10b17250 f i GString.obj
 0001:00016290       ??A?$basic_string@GU?$char_traits@G@std@@V?$allocator@G@2@@std@@QAEAAGI@Z 10b17290 f i GString.obj
 0001:000162c0       ?find_first_not_of@?$basic_string@GU?$char_traits@G@std@@V?$allocator@G@2@@std@@QBEIPBGI@Z 10b172c0 f i GString.obj
 0001:000162f0       ?substr@?$basic_string@GU?$char_traits@G@std@@V?$allocator@G@2@@std@@QBE?AV12@II@Z 10b172f0 f i GString.obj
 0001:00016340       ?compare@?$basic_string@GU?$char_traits@G@std@@V?$allocator@G@2@@std@@QBEHABV12@@Z 10b17340 f i GString.obj
 0001:00016370       ?find_first_not_of@?$basic_string@DU?$char_traits@D@std@@V?$allocator@D@2@@std@@QBEIPBDII@Z 10b17370 f i GString.obj
 0001:000163f0       ??0?$basic_string@GU?$char_traits@G@std@@V?$allocator@G@2@@std@@QAE@ABV01@IIABV?$allocator@G@1@@Z 10b173f0 f i GString.obj
 0001:00016440       ?assign@?$basic_string@GU?$char_traits@G@std@@V?$allocator@G@2@@std@@QAEAAV12@PBG@Z 10b17440 f i GString.obj
 0001:00016470       ?find_first_not_of@?$basic_string@GU?$char_traits@G@std@@V?$allocator@G@2@@std@@QBEIPBGII@Z 10b17470 f i GString.obj
 0001:00016500       ?compare@?$basic_string@GU?$char_traits@G@std@@V?$allocator@G@2@@std@@QBEHIIPBGI@Z 10b17500 f i GString.obj
 0001:000165b0       ??$MIN@I@@YAIABI0@Z        10b175b0 f i GString.obj
 0001:000165e0       ?compare@?$char_traits@G@std@@SAHPBG0I@Z 10b175e0 f i GString.obj
 0001:00016600       _wmemcmp                   10b17600 f i GString.obj
 0001:00016660       ?length@?$char_traits@G@std@@SAIPBG@Z 10b17660 f i GString.obj
 0001:00016680       ?find@?$char_traits@G@std@@SAPBGPBGIABG@Z 10b17680 f i GString.obj
 0001:000166a0       _wmemchr                   10b176a0 f i GString.obj
 0001:000166e0       ?compare@?$basic_string@DU?$char_traits@D@std@@V?$allocator@D@2@@std@@QBEHABV12@@Z 10b176e0 f i GString.obj
 0001:00016710       ?size@?$basic_string@DU?$char_traits@D@std@@V?$allocator@D@2@@std@@QBEIXZ 10b17710 f i ErrorLog.obj
 0001:00016710       ?length@?$basic_string@GU?$char_traits@G@std@@V?$allocator@G@2@@std@@QBEIXZ 10b17710 f i GString.obj
 0001:00016710       ?length@?$basic_string@DU?$char_traits@D@std@@V?$allocator@D@2@@std@@QBEIXZ 10b17710 f i LinkManager.obj
 0001:00016710       ?size@?$basic_string@GU?$char_traits@G@std@@V?$allocator@G@2@@std@@QBEIXZ 10b17710 f i GAdlUtl.obj
 0001:00016730       ?compare@?$basic_string@DU?$char_traits@D@std@@V?$allocator@D@2@@std@@QBEHIIPBDI@Z 10b17730 f i GString.obj
 0001:000167d4       ??0out_of_range@std@@QAE@ABV?$basic_string@DU?$char_traits@D@std@@V?$allocator@D@2@@1@@Z 10b177d4 f i libcpmt:string.obj
 0001:000167f1       ??1out_of_range@std@@UAE@XZ 10b177f1 f i libcpmt:string.obj
 0001:000167fc       ??_Gout_of_range@std@@UAEPAXI@Z 10b177fc f i libcpmt:string.obj
 0001:000167fc       ??_Eout_of_range@std@@UAEPAXI@Z 10b177fc f i libcpmt:string.obj
 0001:00016823       ?_Xlen@_String_base@std@@SAXXZ 10b17823 f   libcpmt:string.obj
 0001:0001685b       ?_Xran@_String_base@std@@SAXXZ 10b1785b f   libcpmt:string.obj
 0001:00016893       ??0out_of_range@std@@QAE@ABV01@@Z 10b17893 f i libcpmt:string.obj
 0001:000168b0       ??_U@YAPAXI@Z              10b178b0 f   libcpmt:newaop.obj
 0001:000168bb       _sprintf_s                 10b178bb f   LIBCMT:sprintf.obj
 0001:000168e0       _memset                    10b178e0 f   LIBCMT:memset.obj
 0001:0001695a       ?_JumpToContinuation@@YGXPAXPAUEHRegistrationNode@@@Z 10b1795a f   LIBCMT:_trnsctrl_.obj
 0001:0001698c       ?_CallMemberFunction1@@YGXPAX00@Z 10b1798c f   LIBCMT:_trnsctrl_.obj
 0001:0001698c       ?_CallMemberFunction0@@YGXPAX0@Z 10b1798c f   LIBCMT:_trnsctrl_.obj
 0001:0001698c       ?_CallMemberFunction2@@YGXPAX00H@Z 10b1798c f   LIBCMT:_trnsctrl_.obj
 0001:00016993       ?_UnwindNestedFrames@@YGXPAUEHRegistrationNode@@PAUEHExceptionRecord@@@Z 10b17993 f   LIBCMT:_trnsctrl_.obj
 0001:000169e7       ___CxxFrameHandler3        10b179e7 f   LIBCMT:_trnsctrl_.obj
 0001:00016a50       ?_CallSETranslator@@YAHPAUEHExceptionRecord@@PAUEHRegistrationNode@@PAX2PBU_s_FuncInfo@@H1@Z 10b17a50 f   LIBCMT:_trnsctrl_.obj
 0001:00016bc6       ?_GetRangeOfTrysToCheck@@YAPBU_s_TryBlockMapEntry@@PBU_s_FuncInfo@@HHPAI1@Z 10b17bc6 f   LIBCMT:_trnsctrl_.obj
 0001:00016c3b       __CreateFrameInfo          10b17c3b f   LIBCMT:_trnsctrl_.obj
 0001:00016c67       __IsExceptionObjectToBeDestroyed 10b17c67 f   LIBCMT:_trnsctrl_.obj
 0001:00016c8e       __FindAndUnlinkFrame       10b17c8e f   LIBCMT:_trnsctrl_.obj
 0001:00016ce0       ?_CallCatchBlock2@@YAPAXPAUEHRegistrationNode@@PBU_s_FuncInfo@@PAXHK@Z 10b17ce0 f   LIBCMT:_trnsctrl_.obj
 0001:00016d40       @__security_check_cookie@4 10b17d40 f   LIBCMT:secchk.obj
 0001:00016d4f       __fclose_nolock            10b17d4f f   LIBCMT:fclose.obj
 0001:00016dc6       _fclose                    10b17dc6 f   LIBCMT:fclose.obj
 0001:00016e42       _fprintf                   10b17e42 f   LIBCMT:fprintf.obj
 0001:00016f5e       __fsopen                   10b17f5e f   LIBCMT:fopen.obj
 0001:00017022       _fopen_s                   10b18022 f   LIBCMT:fopen.obj
 0001:00017075       __vsnprintf_helper         10b18075 f   LIBCMT:vsnprnc.obj
 0001:00017141       __vsprintf_s_l             10b18141 f   LIBCMT:vsnprnc.obj
 0001:000171c9       __vsnprintf_s_l            10b181c9 f   LIBCMT:vsnprnc.obj
 0001:000172d0       __vsnprintf_s              10b182d0 f   LIBCMT:vsnprnc.obj
 0001:000172f0       _atol                      10b182f0 f   LIBCMT:atox.obj
 0001:00017306       _atoi                      10b18306 f   LIBCMT:atox.obj
 0001:00017311       _memcmp                    10b18311 f   LIBCMT:memcmp.obj
 0001:000189a0       _strlen                    10b199a0 f   LIBCMT:strlen.obj
 0001:00018a2b       __CxxThrowException@8      10b19a2b f   LIBCMT:throw.obj
 0001:00018a77       ??3@YAXPAX@Z               10b19a77 f   LIBCMT:delete.obj
 0001:00018a82       ??0bad_alloc@std@@QAE@XZ   10b19a82 f i LIBCMT:new.obj
 0001:00018a9d       ??2@YAPAXI@Z               10b19a9d f   LIBCMT:new.obj
 0001:00018b02       ??1type_info@@UAE@XZ       10b19b02 f   LIBCMT:typinfo.obj
 0001:00018b12       ??_Gtype_info@@UAEPAXI@Z   10b19b12 f i LIBCMT:typinfo.obj
 0001:00018b12       ??_Etype_info@@UAEPAXI@Z   10b19b12 f i LIBCMT:typinfo.obj
 0001:00018b33       ??8type_info@@QBE_NABV0@@Z 10b19b33 f   LIBCMT:typinfo.obj
 0001:00018b53       ??0exception@std@@QAE@XZ   10b19b53 f   LIBCMT:stdexcpt.obj
 0001:00018b64       ??0exception@std@@QAE@ABQBD@Z 10b19b64 f   LIBCMT:stdexcpt.obj
 0001:00018bb7       ??0exception@std@@QAE@ABQBDH@Z 10b19bb7 f   LIBCMT:stdexcpt.obj
 0001:00018bd4       ??0exception@std@@QAE@ABV01@@Z 10b19bd4 f   LIBCMT:stdexcpt.obj
 0001:00018c31       ??1exception@std@@UAE@XZ   10b19c31 f   LIBCMT:stdexcpt.obj
 0001:00018c47       ?what@exception@std@@UBEPBDXZ 10b19c47 f   LIBCMT:stdexcpt.obj
 0001:00018c54       ??_Eexception@std@@UAEPAXI@Z 10b19c54 f i LIBCMT:stdexcpt.obj
 0001:00018c54       ??_Gexception@std@@UAEPAXI@Z 10b19c54 f i LIBCMT:stdexcpt.obj
 0001:00018c75       _memcpy_s                  10b19c75 f   LIBCMT:memcpy_s.obj
 0001:00018cf2       _memmove_s                 10b19cf2 f   LIBCMT:memmove_s.obj
 0001:00018e09       ___onexitinit              10b19e09 f   LIBCMT:onexit.obj
 0001:00018e3a       __onexit                   10b19e3a f   LIBCMT:onexit.obj
 0001:00018e76       _atexit                    10b19e76 f   LIBCMT:onexit.obj
 0001:00018e8d       ??0_LocaleUpdate@@QAE@PAUlocaleinfo_struct@@@Z 10b19e8d f i LIBCMT:mbsstr.obj
 0001:00018f14       __mbsstr_l                 10b19f14 f   LIBCMT:mbsstr.obj
 0001:00019055       __mbsstr                   10b1a055 f   LIBCMT:mbsstr.obj
 0001:0001906c       _strcpy_s                  10b1a06c f   LIBCMT:strcpy_s.obj
 0001:000190d4       __purecall                 10b1a0d4 f   LIBCMT:purevirt.obj
 0001:000190fe       _printf                    10b1a0fe f   LIBCMT:printf.obj
 0001:000191ad       __get_printf_count_output  10b1a1ad f   LIBCMT:printf.obj
 0001:000191c3       __endthreadex              10b1a1c3 f   LIBCMT:threadex.obj
 0001:000192c4       __beginthreadex            10b1a2c4 f   LIBCMT:threadex.obj
 0001:00019380       _memchr                    10b1a380 f   LIBCMT:memchr.obj
 0001:0001942d       __initp_misc_invarg        10b1a42d f   LIBCMT:invarg.obj
 0001:0001943c       __invoke_watson            10b1a43c f   LIBCMT:invarg.obj
 0001:00019564       __invalid_parameter        10b1a564 f   LIBCMT:invarg.obj
 0001:0001958a       __invalid_parameter_noinfo 10b1a58a f   LIBCMT:invarg.obj
 0001:000195a0       _memcpy                    10b1a5a0 f   LIBCMT:memcpy.obj
 0001:00019905       ??_V@YAXPAX@Z              10b1a905 f   LIBCMT:delete2.obj
 0001:00019910       _strcmp                    10b1a910 f   LIBCMT:strcmp.obj
 0001:00019998       __fpclear                  10b1a998 f   LIBCMT:_fpinit_.obj
 0001:00019998       __initp_misc_winxfltr      10b1a998 f   LIBCMT:winxfltr.obj
 0001:00019999       __cfltcvt_init             10b1a999 f   LIBCMT:_fpinit_.obj
 0001:000199f9       __fpmath                   10b1a9f9 f   LIBCMT:_fpinit_.obj
 0001:00019a1c       _V6_HeapAlloc              10b1aa1c f   LIBCMT:malloc.obj
 0001:00019a6b       _malloc                    10b1aa6b f   LIBCMT:malloc.obj
 0001:00019b35       _free                      10b1ab35 f   LIBCMT:free.obj
 0001:00019bc3       _strncmp                   10b1abc3 f   LIBCMT:strncmp.obj
 0001:00019c90       __alloca_probe_16          10b1ac90 f   LIBCMT:alloca16.obj
 0001:00019ca6       __alloca_probe_8           10b1aca6     LIBCMT:alloca16.obj
 0001:00019cbc       __vsnprintf_l              10b1acbc f   LIBCMT:vsnprint.obj
 0001:00019d6f       __vsnprintf                10b1ad6f f   LIBCMT:vsnprint.obj
 0001:00019d8c       __vsnwprintf_l             10b1ad8c f   LIBCMT:vsnwprnt.obj
 0001:00019e60       __vsnwprintf               10b1ae60 f   LIBCMT:vsnwprnt.obj
 0001:00019e7d       __tolower_l                10b1ae7d f   LIBCMT:tolower.obj
 0001:00019f92       _tolower                   10b1af92 f   LIBCMT:tolower.obj
 0001:00019fbe       __toupper_l                10b1afbe f   LIBCMT:toupper.obj
 0001:0001a0d4       _toupper                   10b1b0d4 f   LIBCMT:toupper.obj
 0001:0001a100       __isdigit_l                10b1b100 f i LIBCMT:_ctype.obj
 0001:0001a151       _isdigit                   10b1b151 f i LIBCMT:_ctype.obj
 0001:0001a17f       __isspace_l                10b1b17f f i LIBCMT:_ctype.obj
 0001:0001a1d0       _isspace                   10b1b1d0 f i LIBCMT:_ctype.obj
 0001:0001a1fe       __towlower_l               10b1b1fe f   LIBCMT:towlower.obj
 0001:0001a2b3       _towlower                  10b1b2b3 f   LIBCMT:towlower.obj
 0001:0001a2c6       __towupper_l               10b1b2c6 f   LIBCMT:towupper.obj
 0001:0001a37b       _towupper                  10b1b37b f   LIBCMT:towupper.obj
 0001:0001a38e       _wcslen                    10b1b38e f   LIBCMT:wcslen.obj
 0001:0001a3a8       __CRT_INIT@12              10b1b3a8 f   LIBCMT:dllcrt0.obj
 0001:0001a5d3       __DllMainCRTStartup@12     10b1b5d3 f   LIBCMT:dllcrt0.obj
 0001:0001a5f6       __EH_prolog3               10b1b5f6 f   LIBCMT:ehprolg3.obj
 0001:0001a629       __EH_prolog3_catch         10b1b629 f   LIBCMT:ehprolg3.obj
 0001:0001a65f       __flsbuf                   10b1b65f f   LIBCMT:_flsbuf.obj
 0001:0001a869       __output_l                 10b1b869 f   LIBCMT:output.obj
 0001:0001b401       __get_errno_from_oserr     10b1c401 f   LIBCMT:dosmap.obj
 0001:0001b443       __errno                    10b1c443 f   LIBCMT:dosmap.obj
 0001:0001b456       ___doserrno                10b1c456 f   LIBCMT:dosmap.obj
 0001:0001b469       __dosmaperr                10b1c469 f   LIBCMT:dosmap.obj
 0001:0001b4e3       __VEC_memzero              10b1c4e3 f   LIBCMT:p4_memset.obj
 0001:0001b5c2       __get_sse2_info            10b1c5c2 f   LIBCMT:cpu_disp.obj
 0001:0001b624       ___sse2_available_init     10b1c624 f   LIBCMT:cpu_disp.obj
 0001:0001b631       ??0bad_exception@std@@QAE@PBD@Z 10b1c631 f i LIBCMT:frame.obj
 0001:0001b64f       ??1bad_exception@std@@UAE@XZ 10b1c64f f i LIBCMT:frame.obj
 0001:0001b65a       ??_Ebad_exception@std@@UAEPAXI@Z 10b1c65a f i LIBCMT:frame.obj
 0001:0001b65a       ??_Gbad_exception@std@@UAEPAXI@Z 10b1c65a f i LIBCMT:frame.obj
 0001:0001b681       ___TypeMatch               10b1c681 f   LIBCMT:frame.obj
 0001:0001b6e0       ___FrameUnwindFilter       10b1c6e0 f   LIBCMT:frame.obj
 0001:0001b729       ___FrameUnwindToState      10b1c729 f   LIBCMT:frame.obj
 0001:0001b84f       ___DestructExceptionObject 10b1c84f f   LIBCMT:frame.obj
 0001:0001b8a4       ___AdjustPointer           10b1c8a4 f   LIBCMT:frame.obj
 0001:0001bb2d       ___BuildCatchObjectHelper  10b1cb2d f   LIBCMT:frame.obj
 0001:0001bcac       ___BuildCatchObject        10b1ccac f   LIBCMT:frame.obj
 0001:0001c1e7       ??0bad_exception@std@@QAE@ABV01@@Z 10b1d1e7 f i LIBCMT:frame.obj
 0001:0001c204       ___InternalCxxFrameHandler 10b1d204 f   LIBCMT:frame.obj
 0001:0001c2ea       __encode_pointer           10b1d2ea f   LIBCMT:tidtable.obj
 0001:0001c35c       __encoded_null             10b1d35c f   LIBCMT:tidtable.obj
 0001:0001c365       __decode_pointer           10b1d365 f   LIBCMT:tidtable.obj
 0001:0001c3d7       ___crtTlsAlloc@4           10b1d3d7 f   LIBCMT:tidtable.obj
 0001:0001c3e0       ___fls_getvalue@4          10b1d3e0 f   LIBCMT:tidtable.obj
 0001:0001c3fa       ___get_flsindex            10b1d3fa f   LIBCMT:tidtable.obj
 0001:0001c400       ___set_flsgetvalue         10b1d400 f   LIBCMT:tidtable.obj
 0001:0001c434       ___fls_setvalue@8          10b1d434 f   LIBCMT:tidtable.obj
 0001:0001c451       __mtterm                   10b1d451 f   LIBCMT:tidtable.obj
 0001:0001c48e       __initptd                  10b1d48e f   LIBCMT:tidtable.obj
 0001:0001c575       __getptd_noexit            10b1d575 f   LIBCMT:tidtable.obj
 0001:0001c5ee       __getptd                   10b1d5ee f   LIBCMT:tidtable.obj
 0001:0001c608       __freefls@4                10b1d608 f   LIBCMT:tidtable.obj
 0001:0001c737       __freeptd                  10b1d737 f   LIBCMT:tidtable.obj
 0001:0001c7a5       __mtinit                   10b1d7a5 f   LIBCMT:tidtable.obj
 0001:0001c932       ?terminate@@YAXXZ          10b1d932 f   LIBCMT:hooks.obj
 0001:0001c96b       ?unexpected@@YAXXZ         10b1d96b f   LIBCMT:hooks.obj
 0001:0001c97e       ?_inconsistency@@YAXXZ     10b1d97e f   LIBCMT:hooks.obj
 0001:0001c9b6       __initp_eh_hooks           10b1d9b6 f   LIBCMT:hooks.obj
 0001:0001c9d0       __CallSettingFrame@12      10b1d9d0 f   LIBCMT:lowhelpr.obj
 0001:0001c9f7       __NLG_Return               10b1d9f7     LIBCMT:lowhelpr.obj
 0001:0001ca1c       ___report_gsfailure        10b1da1c f   LIBCMT:gs_report.obj
 0001:0001cb22       __close_nolock             10b1db22 f   LIBCMT:close.obj
 0001:0001cbbe       __close                    10b1dbbe f   LIBCMT:close.obj
 0001:0001cc8b       __fileno                   10b1dc8b f   LIBCMT:fileno.obj
 0001:0001ccbd       __freebuf                  10b1dcbd f   LIBCMT:_freebuf.obj
 0001:0001ccee       __flush                    10b1dcee f   LIBCMT:fflush.obj
 0001:0001cd56       __fflush_nolock            10b1dd56 f   LIBCMT:fflush.obj
 0001:0001ce78       __flushall                 10b1de78 f   LIBCMT:fflush.obj
 0001:0001ce81       ___iob_func                10b1de81 f   LIBCMT:_file.obj
 0001:0001ce87       ___initstdio               10b1de87 f   LIBCMT:_file.obj
 0001:0001cf38       ___endstdio                10b1df38 f   LIBCMT:_file.obj
 0001:0001cf58       __lock_file                10b1df58 f   LIBCMT:_file.obj
 0001:0001cf99       __lock_file2               10b1df99 f   LIBCMT:_file.obj
 0001:0001cfcb       __unlock_file              10b1dfcb f   LIBCMT:_file.obj
 0001:0001d007       __unlock_file2             10b1e007 f   LIBCMT:_file.obj
 0001:0001d038       __SEH_prolog4              10b1e038 f   LIBCMT:sehprolg4.obj
 0001:0001d07d       __SEH_epilog4              10b1e07d f   LIBCMT:sehprolg4.obj
 0001:0001d0a0       __except_handler4          10b1e0a0 f   LIBCMT:chandler4.obj
 0001:0001d22c       __stbuf                    10b1e22c f   LIBCMT:_sftbuf.obj
 0001:0001d2c8       __ftbuf                    10b1e2c8 f   LIBCMT:_sftbuf.obj
 0001:0001d2fc       __ioinit                   10b1e2fc f   LIBCMT:ioinit.obj
 0001:0001d550       __ioterm                   10b1e550 f   LIBCMT:ioinit.obj
 0001:0001d59e       __openfile                 10b1e59e f   LIBCMT:_open.obj
 0001:0001d867       __getstream                10b1e867 f   LIBCMT:stream.obj
 0001:0001d9a0       __local_unwind4            10b1e9a0 f   LIBCMT:exsup4.obj
 0001:0001da76       __seh_longjmp_unwind4@4    10b1ea76 f   LIBCMT:exsup4.obj
 0001:0001da92       @_EH4_CallFilterFunc@8     10b1ea92 f   LIBCMT:exsup4.obj
 0001:0001daa9       @_EH4_TransferToHandler@8  10b1eaa9 f   LIBCMT:exsup4.obj
 0001:0001dac2       @_EH4_GlobalUnwind@4       10b1eac2 f   LIBCMT:exsup4.obj
 0001:0001dadc       @_EH4_LocalUnwind@16       10b1eadc f   LIBCMT:exsup4.obj
 0001:0001daf3       __output_s_l               10b1eaf3 f   LIBCMT:outputs.obj
 0001:0001e8f2       _strtol                    10b1f8f2 f   LIBCMT:strtol.obj
 0001:0001e91d       __initp_heap_handler       10b1f91d f   LIBCMT:handler.obj
 0001:0001e92c       __callnewh                 10b1f92c f   LIBCMT:handler.obj
 0001:0001e954       ?_Type_info_dtor@type_info@@CAXPAV1@@Z 10b1f954 f   LIBCMT:typname.obj
 0001:0001e9d0       _memmove                   10b1f9d0 f   LIBCMT:memmove.obj
 0001:0001ed35       __malloc_crt               10b1fd35 f   LIBCMT:crtheap.obj
 0001:0001ed7a       __calloc_crt               10b1fd7a f   LIBCMT:crtheap.obj
 0001:0001edc6       __realloc_crt              10b1fdc6 f   LIBCMT:crtheap.obj
 0001:0001ee14       __msize                    10b1fe14 f   LIBCMT:msize.obj
 0001:0001eeb7       __crt_waiting_on_module_handle 10b1feb7 f   LIBCMT:crt0dat.obj
 0001:0001eee7       __amsg_exit                10b1fee7 f   LIBCMT:crt0dat.obj
 0001:0001ef10       ___crtCorExitProcess       10b1ff10 f   LIBCMT:crt0dat.obj
 0001:0001ef3b       ___crtExitProcess          10b1ff3b f   LIBCMT:crt0dat.obj
 0001:0001ef53       __lockexit                 10b1ff53 f   LIBCMT:crt0dat.obj
 0001:0001ef5c       __unlockexit               10b1ff5c f   LIBCMT:crt0dat.obj
 0001:0001ef82       __initterm_e               10b1ff82 f   LIBCMT:crt0dat.obj
 0001:0001efa6       __cinit                    10b1ffa6 f   LIBCMT:crt0dat.obj
 0001:0001f157       __exit                     10b20157 f   LIBCMT:crt0dat.obj
 0001:0001f16d       __cexit                    10b2016d f   LIBCMT:crt0dat.obj
 0001:0001f17c       __init_pointers            10b2017c f   LIBCMT:crt0dat.obj
 0001:0001f3f0       ___updatetmbcinfo          10b203f0 f   LIBCMT:mbctype.obj
 0001:0001f510       __setmbcp_nolock           10b20510 f   LIBCMT:mbctype.obj
 0001:0001f6f5       __setmbcp                  10b206f5 f   LIBCMT:mbctype.obj
 0001:0001f88f       ___initmbctable            10b2088f f   LIBCMT:mbctype.obj
 0001:0001f8ad       ___freetlocinfo            10b208ad f   LIBCMT:setlocal.obj
 0001:0001f9f6       ___addlocaleref            10b209f6 f   LIBCMT:setlocal.obj
 0001:0001fa85       ___removelocaleref         10b20a85 f   LIBCMT:setlocal.obj
 0001:0001fb5c       ___updatetlocinfo          10b20b5c f   LIBCMT:setlocal.obj
 0001:0001fbe0       _strstr                    10b20be0 f   LIBCMT:strstr.obj
 0001:0001fc66       _abort                     10b20c66 f   LIBCMT:abort.obj
 0001:0001fd7d       __set_abort_behavior       10b20d7d f   LIBCMT:abort.obj
 0001:0001fd9e       __NMSG_WRITE               10b20d9e f   LIBCMT:crt0msg.obj
 0001:0001ff49       __FF_MSGBANNER             10b20f49 f   LIBCMT:crt0msg.obj
 0001:0001ff82       __initp_misc_purevirt      10b20f82 f   LIBCMT:inithelp.obj
 0001:0001ffa0       __ValidateImageBase        10b20fa0 f   LIBCMT:pesect.obj
 0001:0001ffe0       __FindPESection            10b20fe0 f   LIBCMT:pesect.obj
 0001:00020030       __IsNonwritableInCurrentImage 10b21030 f   LIBCMT:pesect.obj
 0001:000200ed       __XcptFilter               10b210ed f   LIBCMT:winxfltr.obj
 0001:0002024d       ___CppXcptFilter           10b2124d f   LIBCMT:winxfltr.obj
 0001:0002026d       __crt_debugger_hook        10b2126d f   LIBCMT:dbghook.obj
 0001:000202fc       __VEC_memcpy               10b212fc f   LIBCMT:p4_memcpy.obj
 0001:000203df       __forcdecpt_l              10b213df f   LIBCMT:cvt.obj
 0001:00020452       __cropzeros_l              10b21452 f   LIBCMT:cvt.obj
 0001:000204d4       __positive                 10b214d4 f   LIBCMT:cvt.obj
 0001:000204f0       __fassign_l                10b214f0 f   LIBCMT:cvt.obj
 0001:00020532       __fassign                  10b21532 f   LIBCMT:cvt.obj
 0001:0002056b       __forcdecpt                10b2156b f   LIBCMT:cvt.obj
 0001:0002057e       __cropzeros                10b2157e f   LIBCMT:cvt.obj
 0001:00020700       __cftoe_l                  10b21700 f   LIBCMT:cvt.obj
 0001:000207d0       __cftoe                    10b217d0 f   LIBCMT:cvt.obj
 0001:000207f0       __cftoa_l                  10b217f0 f   LIBCMT:cvt.obj
 0001:00020c5a       __cftof_l                  10b21c5a f   LIBCMT:cvt.obj
 0001:00020d15       __cftog_l                  10b21d15 f   LIBCMT:cvt.obj
 0001:00020e0f       __cfltcvt_l                10b21e0f f   LIBCMT:cvt.obj
 0001:00020e97       __cfltcvt                  10b21e97 f   LIBCMT:cvt.obj
 0001:00020eba       __initp_misc_cfltcvt_tab   10b21eba f   LIBCMT:cmiscdat.obj
 0001:00020edb       __setdefaultprecision      10b21edb f   LIBCMT:fp8.obj
 0001:00020f06       __ms_p5_test_fdiv          10b21f06 f   LIBCMT:_testfdiv_.obj
 0001:00020f44       __ms_p5_mp_test_fdiv       10b21f44 f   LIBCMT:_testfdiv_.obj
 0001:00020f6d       __mtinitlocks              10b21f6d f   LIBCMT:mlock.obj
 0001:00020fb8       __mtdeletelocks            10b21fb8 f   LIBCMT:mlock.obj
 0001:0002100f       __unlock                   10b2200f f   LIBCMT:mlock.obj
 0001:00021026       __mtinitlocknum            10b22026 f   LIBCMT:mlock.obj
 0001:000210e9       __lock                     10b220e9 f   LIBCMT:mlock.obj
 0001:0002111c       ___sbh_find_block          10b2211c f   LIBCMT:sbheap.obj
 0001:0002114c       ___sbh_free_block          10b2214c f   LIBCMT:sbheap.obj
 0001:00021462       ___sbh_alloc_new_region    10b22462 f   LIBCMT:sbheap.obj
 0001:00021512       ___sbh_alloc_new_group     10b22512 f   LIBCMT:sbheap.obj
 0001:0002161a       ___sbh_resize_block        10b2261a f   LIBCMT:sbheap.obj
 0001:000218fb       ___sbh_alloc_block         10b228fb f   LIBCMT:sbheap.obj
 0001:00021be0       __heap_init                10b22be0 f   LIBCMT:heapinit.obj
 0001:00021c10       __heap_term                10b22c10 f   LIBCMT:heapinit.obj
 0001:00021c90       __chkstk                   10b22c90 f   LIBCMT:chkstk.obj
 0001:00021c90       __alloca_probe             10b22c90     LIBCMT:chkstk.obj
 0001:00021d63       __woutput_l                10b22d63 f   LIBCMT:woutput.obj
 0001:000228fb       __freea                    10b238fb f i LIBCMT:a_map.obj
 0001:00022cc0       ___crtLCMapStringA         10b23cc0 f   LIBCMT:a_map.obj
 0001:00022d05       __isleadbyte_l             10b23d05 f i LIBCMT:_wctype.obj
 0001:00022d3d       _isleadbyte                10b23d3d f i LIBCMT:_wctype.obj
 0001:00022d50       __isctype_l                10b23d50 f   LIBCMT:isctype.obj
 0001:00022e08       ___crtLCMapStringW         10b23e08 f   LIBCMT:w_map.obj
 0001:00022e5f       __iswctype_l               10b23e5f f   LIBCMT:iswctype.obj
 0001:00022ee9       __setenvp                  10b23ee9 f   LIBCMT:stdenvp.obj
 0001:00023161       __setargv                  10b24161 f   LIBCMT:stdargv.obj
 0001:0002321c       ___crtGetEnvironmentStringsA 10b2421c f   LIBCMT:a_env.obj
 0001:00023353       __RTC_Initialize           10b24353 f   LIBCMT:_initsect_.obj
 0001:00023379       __RTC_Terminate            10b24379 f   LIBCMT:_initsect_.obj
 0001:0002339f       ___security_init_cookie    10b2439f f   LIBCMT:gs_support.obj
 0001:00023435       __lseeki64_nolock          10b24435 f   LIBCMT:lseeki64.obj
 0001:000234ba       __lseeki64                 10b244ba f   LIBCMT:lseeki64.obj
 0001:000235d3       __write_nolock             10b245d3 f   LIBCMT:write.obj
 0001:00023d06       __write                    10b24d06 f   LIBCMT:write.obj
 0001:00023de2       __getbuf                   10b24de2 f   LIBCMT:_getbuf.obj
 0001:00023e2b       __isatty                   10b24e2b f   LIBCMT:isatty.obj
 0001:00023e8f       __wctomb_s_l               10b24e8f f   LIBCMT:wctomb.obj
 0001:00023ffb       _wctomb_s                  10b24ffb f   LIBCMT:wctomb.obj
 0001:00024020       __aulldvrm                 10b25020 f   LIBCMT:ulldvrm.obj
 0001:000240b5       ?_ValidateWrite@@YAHPAXI@Z 10b250b5 f   LIBCMT:validate.obj
 0001:000240b5       ?_ValidateRead@@YAHPBXI@Z  10b250b5 f   LIBCMT:validate.obj
 0001:000240b5       ?_ValidateExecute@@YAHP6GHXZ@Z 10b250b5 f   LIBCMT:validate.obj
 0001:000240c8       __global_unwind2           10b250c8 f   LIBCMT:exsup.obj
 0001:0002412d       __local_unwind2            10b2512d f   LIBCMT:exsup.obj
 0001:000241b1       __abnormal_termination     10b251b1 f   LIBCMT:exsup.obj
 0001:000241d4       __NLG_Notify1              10b251d4 f   LIBCMT:exsup.obj
 0001:000241dd       __NLG_Notify               10b251dd f   LIBCMT:exsup.obj
 0001:000241f4       __NLG_Dispatch             10b251f4     LIBCMT:exsup.obj
 0001:000241f4       __NLG_Dispatch2            10b251f4     LIBCMT:exsup.obj
 0001:000241fc       __NLG_Call                 10b251fc f   LIBCMT:exsup.obj
 0001:000241fe       __NLG_Return2              10b251fe     LIBCMT:exsup.obj
 0001:000241ff       __set_osfhnd               10b251ff f   LIBCMT:osfinfo.obj
 0001:00024280       __free_osfhnd              10b25280 f   LIBCMT:osfinfo.obj
 0001:00024306       __get_osfhandle            10b25306 f   LIBCMT:osfinfo.obj
 0001:0002437d       ___lock_fhandle            10b2537d f   LIBCMT:osfinfo.obj
 0001:0002441d       __unlock_fhandle           10b2541d f   LIBCMT:osfinfo.obj
 0001:00024444       __alloc_osfhnd             10b25444 f   LIBCMT:osfinfo.obj
 0001:000245de       __commit                   10b255de f   LIBCMT:commit.obj
 0001:000246bf       __fcloseall                10b256bf f   LIBCMT:closeall.obj
 0001:0002475e       __initp_misc_initcrit      10b2575e f   LIBCMT:initcrit.obj
 0001:0002476d       ___crtInitCritSecAndSpinCount 10b2576d f   LIBCMT:initcrit.obj
 0001:00024eec       __sopen_helper             10b25eec f   LIBCMT:open.obj
 0001:00024fb8       __sopen_s                  10b25fb8 f   LIBCMT:open.obj
 0001:00024fd8       __mbsnbicmp_l              10b25fd8 f   LIBCMT:mbsnbicm.obj
 0001:00025203       __mbsnbicmp                10b26203 f   LIBCMT:mbsnbicm.obj
 0001:0002521d       __mbsnbcmp_l               10b2621d f   LIBCMT:mbsnbcmp.obj
 0001:00025387       __mbsnbcmp                 10b26387 f   LIBCMT:mbsnbcmp.obj
 0001:000253b0       __allmul                   10b263b0 f   LIBCMT:llmul.obj
 0001:000253e4       __calloc_impl              10b263e4 f   LIBCMT:calloc_impl.obj
 0001:00025502       _realloc                   10b26502 f   LIBCMT:realloc.obj
 0001:0002571d       __initp_misc_winsig        10b2671d f   LIBCMT:winsig.obj
 0001:00025772       ___get_sigabrt             10b26772 f   LIBCMT:winsig.obj
 0001:0002577f       _raise                     10b2677f f   LIBCMT:winsig.obj
 0001:0002592f       __initp_misc_rand_s        10b2692f f   LIBCMT:rand_s.obj
 0001:00025af8       ___crtGetStringTypeA       10b26af8 f   LIBCMT:a_str.obj
 0001:00025b3a       ___free_lc_time            10b26b3a f   LIBCMT:inittime.obj
 0001:00025ccf       ___free_lconv_num          10b26ccf f   LIBCMT:initnum.obj
 0001:00025d14       ___free_lconv_mon          10b26d14 f   LIBCMT:initmon.obj
 0001:00025da2       _strcat_s                  10b26da2 f   LIBCMT:strcat_s.obj
 0001:00025e20       _strcspn                   10b26e20 f   LIBCMT:strcspn.obj
 0001:00025e66       _strncpy_s                 10b26e66 f   LIBCMT:strncpy_s.obj
 0001:00025f20       _strpbrk                   10b26f20 f   LIBCMT:strpbrk.obj
 0001:00025f70       _strchr                    10b26f70 f   LIBCMT:strchr.obj
 0001:00025f76       ___from_strstr_to_strchr   10b26f76     LIBCMT:strchr.obj
 0001:0002602e       ___crtMessageBoxA          10b2702e f   LIBCMT:crtmbox.obj
 0001:00026197       __set_error_mode           10b27197 f   LIBCMT:errmode.obj
 0001:000261f0       _strrchr                   10b271f0 f   LIBCMT:strrchr.obj
 0001:0002621d       __atodbl_l                 10b2721d f   LIBCMT:atodbl.obj
 0001:000262c5       __atoflt_l                 10b272c5 f   LIBCMT:atodbl.obj
 0001:0002636d       __fptostr                  10b2736d f   LIBCMT:_fptostr.obj
 0001:0002642c       ___dtold                   10b2742c f   LIBCMT:_cfout_.obj
 0001:000264e9       __fltout2                  10b274e9 f   LIBCMT:_cfout_.obj
 0001:00026580       __alldvrm                  10b27580 f   LIBCMT:lldvrm.obj
 0001:00026660       __aullshr                  10b27660 f   LIBCMT:ullshr.obj
 0001:0002667f       __fptrap                   10b2767f f   LIBCMT:crt0fp.obj
 0001:00026688       __controlfp_s              10b27688 f   LIBCMT:_contrlfp_.obj
 0001:000266f4       __fputwc_nolock            10b276f4 f   LIBCMT:fputwc.obj
 0001:0002687b       __mbtowc_l                 10b2787b f   LIBCMT:mbtowc.obj
 0001:00026992       _mbtowc                    10b27992 f   LIBCMT:mbtowc.obj
 0001:000269ac       ___ansicp                  10b279ac f   LIBCMT:convrtcp.obj
 0001:000269f5       ___convertcp               10b279f5 f   LIBCMT:convrtcp.obj
 0001:00026ba9       ___crtGetStringTypeW       10b27ba9 f   LIBCMT:w_str.obj
 0001:00026c3a       __ismbblead                10b27c3a f   LIBCMT:ismbbyte.obj
 0001:00026c52       __putwch_nolock            10b27c52 f   LIBCMT:putwch.obj
 0001:00026d17       __chsize_nolock            10b27d17 f   LIBCMT:chsize.obj
 0001:00026ecd       __read_nolock              10b27ecd f   LIBCMT:read.obj
 0001:0002748f       __lseek_nolock             10b2848f f   LIBCMT:lseek.obj
 0001:00027504       __setmode_nolock           10b28504 f   LIBCMT:setmode.obj
 0001:000275c0       __get_fmode                10b285c0 f   LIBCMT:setmode.obj
 0001:000275f9       __strnicmp_l               10b285f9 f   LIBCMT:strnicmp.obj
 0001:000276eb       __strnicmp                 10b286eb f   LIBCMT:strnicmp.obj
 0001:00027749       __ld12tod                  10b28749 f   LIBCMT:_intrncvt_.obj
 0001:00027c8d       __ld12tof                  10b28c8d f   LIBCMT:_intrncvt_.obj
 0001:000281d1       ___strgtold12_l            10b291d1 f   LIBCMT:_strgtold_.obj
 0001:000288c9       _$I10_OUTPUT               10b298c9 f   LIBCMT:_x10fout_.obj
 0001:0002931b       __control87                10b2a31b f i LIBCMT:_ieee87_.obj
 0001:0002962a       __flswbuf                  10b2a62a f   LIBCMT:_flswbuf.obj
 0001:0002979e       ___initconout              10b2a79e f   LIBCMT:initcon.obj
 0001:000297bd       ___termcon                 10b2a7bd f   LIBCMT:initcon.obj
 0001:000297f0       ___ascii_strnicmp          10b2a7f0 f   LIBCMT:_strnicm.obj
 0001:00029851       ___mtold12                 10b2a851 f   LIBCMT:_mantold_.obj
 0001:00029a1f       ___set_fpsr_sse2           10b2aa1f f   LIBCMT:_fpctrl_.obj
 0001:00029a92       _RtlUnwind@16              10b2aa92 f   kernel32:KERNEL32.dll
 0002:00000000       __imp__xdbgAssertA@16      10b2d000     BDBG:BDBG.dll
 0002:00000004       \177BDBG_NULL_THUNK_DATA   10b2d004     BDBG:BDBG.dll
 0002:00000008       __imp_?XbufCreate@@YGPAUIXBuf@@PAU1@@Z 10b2d008     BMB:BMB.dll
 0002:0000000c       \177BMB_NULL_THUNK_DATA    10b2d00c     BMB:BMB.dll
 0002:00000010       __imp__InitializeCriticalSectionAndSpinCount@8 10b2d010     kernel32:KERNEL32.dll
 0002:00000014       __imp__DeleteCriticalSection@4 10b2d014     kernel32:KERNEL32.dll
 0002:00000018       __imp__GetLastError@0      10b2d018     kernel32:KERNEL32.dll
 0002:0000001c       __imp__CreateEventA@16     10b2d01c     kernel32:KERNEL32.dll
 0002:00000020       __imp__CloseHandle@4       10b2d020     kernel32:KERNEL32.dll
 0002:00000024       __imp__WaitForSingleObject@8 10b2d024     kernel32:KERNEL32.dll
 0002:00000028       __imp__SetEvent@4          10b2d028     kernel32:KERNEL32.dll
 0002:0000002c       __imp__GetCurrentProcessId@0 10b2d02c     kernel32:KERNEL32.dll
 0002:00000030       __imp__ExitProcess@4       10b2d030     kernel32:KERNEL32.dll
 0002:00000034       __imp__WaitForMultipleObjects@16 10b2d034     kernel32:KERNEL32.dll
 0002:00000038       __imp__SetLastError@4      10b2d038     kernel32:KERNEL32.dll
 0002:0000003c       __imp__EnterCriticalSection@4 10b2d03c     kernel32:KERNEL32.dll
 0002:00000040       __imp__LeaveCriticalSection@4 10b2d040     kernel32:KERNEL32.dll
 0002:00000044       __imp__DisableThreadLibraryCalls@4 10b2d044     kernel32:KERNEL32.dll
 0002:00000048       __imp__SignalObjectAndWait@16 10b2d048     kernel32:KERNEL32.dll
 0002:0000004c       __imp__WaitForSingleObjectEx@12 10b2d04c     kernel32:KERNEL32.dll
 0002:00000050       __imp__WaitForMultipleObjectsEx@20 10b2d050     kernel32:KERNEL32.dll
 0002:00000054       __imp__CreateSemaphoreA@16 10b2d054     kernel32:KERNEL32.dll
 0002:00000058       __imp__OpenSemaphoreA@12   10b2d058     kernel32:KERNEL32.dll
 0002:0000005c       __imp__ReleaseSemaphore@12 10b2d05c     kernel32:KERNEL32.dll
 0002:00000060       __imp__CreateMutexA@12     10b2d060     kernel32:KERNEL32.dll
 0002:00000064       __imp__OpenMutexA@12       10b2d064     kernel32:KERNEL32.dll
 0002:00000068       __imp__ReleaseMutex@4      10b2d068     kernel32:KERNEL32.dll
 0002:0000006c       __imp__OpenEventA@12       10b2d06c     kernel32:KERNEL32.dll
 0002:00000070       __imp__PulseEvent@4        10b2d070     kernel32:KERNEL32.dll
 0002:00000074       __imp__ResetEvent@4        10b2d074     kernel32:KERNEL32.dll
 0002:00000078       __imp__TryEnterCriticalSection@4 10b2d078     kernel32:KERNEL32.dll
 0002:0000007c       __imp__WideCharToMultiByte@32 10b2d07c     kernel32:KERNEL32.dll
 0002:00000080       __imp__MultiByteToWideChar@24 10b2d080     kernel32:KERNEL32.dll
 0002:00000084       __imp__ReadFile@20         10b2d084     kernel32:KERNEL32.dll
 0002:00000088       __imp__GetProcessHeap@0    10b2d088     kernel32:KERNEL32.dll
 0002:0000008c       __imp__SetEndOfFile@4      10b2d08c     kernel32:KERNEL32.dll
 0002:00000090       __imp__WriteConsoleW@20    10b2d090     kernel32:KERNEL32.dll
 0002:00000094       __imp__GetConsoleOutputCP@0 10b2d094     kernel32:KERNEL32.dll
 0002:00000098       __imp__WriteConsoleA@20    10b2d098     kernel32:KERNEL32.dll
 0002:0000009c       __imp__GetPrivateProfileStringA@24 10b2d09c     kernel32:KERNEL32.dll
 0002:000000a0       __imp__GetLocaleInfoA@16   10b2d0a0     kernel32:KERNEL32.dll
 0002:000000a4       __imp__GetStringTypeW@16   10b2d0a4     kernel32:KERNEL32.dll
 0002:000000a8       __imp__GetStringTypeA@20   10b2d0a8     kernel32:KERNEL32.dll
 0002:000000ac       __imp__LoadLibraryA@4      10b2d0ac     kernel32:KERNEL32.dll
 0002:000000b0       __imp__CreateFileA@28      10b2d0b0     kernel32:KERNEL32.dll
 0002:000000b4       __imp__FlushFileBuffers@4  10b2d0b4     kernel32:KERNEL32.dll
 0002:000000b8       __imp__SetStdHandle@8      10b2d0b8     kernel32:KERNEL32.dll
 0002:000000bc       __imp__GetConsoleMode@8    10b2d0bc     kernel32:KERNEL32.dll
 0002:000000c0       __imp__GetConsoleCP@0      10b2d0c0     kernel32:KERNEL32.dll
 0002:000000c4       __imp__SetFilePointer@16   10b2d0c4     kernel32:KERNEL32.dll
 0002:000000c8       __imp__GetSystemTimeAsFileTime@4 10b2d0c8     kernel32:KERNEL32.dll
 0002:000000cc       __imp__GetTickCount@0      10b2d0cc     kernel32:KERNEL32.dll
 0002:000000d0       __imp__QueryPerformanceCounter@4 10b2d0d0     kernel32:KERNEL32.dll
 0002:000000d4       __imp__GetEnvironmentStringsW@0 10b2d0d4     kernel32:KERNEL32.dll
 0002:000000d8       __imp__FreeEnvironmentStringsW@4 10b2d0d8     kernel32:KERNEL32.dll
 0002:000000dc       __imp__GetEnvironmentStrings@0 10b2d0dc     kernel32:KERNEL32.dll
 0002:000000e0       __imp__FreeEnvironmentStringsA@4 10b2d0e0     kernel32:KERNEL32.dll
 0002:000000e4       __imp__LCMapStringW@24     10b2d0e4     kernel32:KERNEL32.dll
 0002:000000e8       __imp__LCMapStringA@24     10b2d0e8     kernel32:KERNEL32.dll
 0002:000000ec       __imp__HeapDestroy@4       10b2d0ec     kernel32:KERNEL32.dll
 0002:000000f0       __imp__HeapCreate@12       10b2d0f0     kernel32:KERNEL32.dll
 0002:000000f4       __imp__HeapReAlloc@16      10b2d0f4     kernel32:KERNEL32.dll
 0002:000000f8       __imp__VirtualAlloc@16     10b2d0f8     kernel32:KERNEL32.dll
 0002:000000fc       __imp__VirtualFree@12      10b2d0fc     kernel32:KERNEL32.dll
 0002:00000100       __imp__GetModuleHandleA@4  10b2d100     kernel32:KERNEL32.dll
 0002:00000104       __imp__WriteFile@20        10b2d104     kernel32:KERNEL32.dll
 0002:00000108       __imp__IsValidCodePage@4   10b2d108     kernel32:KERNEL32.dll
 0002:0000010c       __imp__GetOEMCP@0          10b2d10c     kernel32:KERNEL32.dll
 0002:00000110       __imp__GetACP@0            10b2d110     kernel32:KERNEL32.dll
 0002:00000114       __imp__GetModuleFileNameA@12 10b2d114     kernel32:KERNEL32.dll
 0002:00000118       __imp__GetLocalTime@4      10b2d118     kernel32:KERNEL32.dll
 0002:0000011c       __imp__CreateDirectoryA@8  10b2d11c     kernel32:KERNEL32.dll
 0002:00000120       __imp__RtlUnwind@16        10b2d120     kernel32:KERNEL32.dll
 0002:00000124       __imp__RaiseException@16   10b2d124     kernel32:KERNEL32.dll
 0002:00000128       __imp__ExitThread@4        10b2d128     kernel32:KERNEL32.dll
 0002:0000012c       __imp__GetCurrentThreadId@0 10b2d12c     kernel32:KERNEL32.dll
 0002:00000130       __imp__CreateThread@24     10b2d130     kernel32:KERNEL32.dll
 0002:00000134       __imp__TerminateProcess@8  10b2d134     kernel32:KERNEL32.dll
 0002:00000138       __imp__GetCurrentProcess@0 10b2d138     kernel32:KERNEL32.dll
 0002:0000013c       __imp__UnhandledExceptionFilter@4 10b2d13c     kernel32:KERNEL32.dll
 0002:00000140       __imp__SetUnhandledExceptionFilter@4 10b2d140     kernel32:KERNEL32.dll
 0002:00000144       __imp__IsDebuggerPresent@0 10b2d144     kernel32:KERNEL32.dll
 0002:00000148       __imp__HeapAlloc@12        10b2d148     kernel32:KERNEL32.dll
 0002:0000014c       __imp__HeapFree@12         10b2d14c     kernel32:KERNEL32.dll
 0002:00000150       __imp__GetCommandLineA@0   10b2d150     kernel32:KERNEL32.dll
 0002:00000154       __imp__GetModuleHandleW@4  10b2d154     kernel32:KERNEL32.dll
 0002:00000158       __imp__GetProcAddress@8    10b2d158     kernel32:KERNEL32.dll
 0002:0000015c       __imp__TlsGetValue@4       10b2d15c     kernel32:KERNEL32.dll
 0002:00000160       __imp__TlsAlloc@0          10b2d160     kernel32:KERNEL32.dll
 0002:00000164       __imp__TlsSetValue@8       10b2d164     kernel32:KERNEL32.dll
 0002:00000168       __imp__TlsFree@4           10b2d168     kernel32:KERNEL32.dll
 0002:0000016c       __imp__InterlockedIncrement@4 10b2d16c     kernel32:KERNEL32.dll
 0002:00000170       __imp__InterlockedDecrement@4 10b2d170     kernel32:KERNEL32.dll
 0002:00000174       __imp__SetHandleCount@4    10b2d174     kernel32:KERNEL32.dll
 0002:00000178       __imp__GetStdHandle@4      10b2d178     kernel32:KERNEL32.dll
 0002:0000017c       __imp__GetFileType@4       10b2d17c     kernel32:KERNEL32.dll
 0002:00000180       __imp__GetStartupInfoA@4   10b2d180     kernel32:KERNEL32.dll
 0002:00000184       __imp__Sleep@4             10b2d184     kernel32:KERNEL32.dll
 0002:00000188       __imp__HeapSize@12         10b2d188     kernel32:KERNEL32.dll
 0002:0000018c       __imp__GetCPInfo@8         10b2d18c     kernel32:KERNEL32.dll
 0002:00000190       \177KERNEL32_NULL_THUNK_DATA 10b2d190     kernel32:KERNEL32.dll
 0002:00000194       __imp__SysStringByteLen@4  10b2d194     oleaut32:OLEAUT32.dll
 0002:00000198       __imp__SysAllocStringByteLen@8 10b2d198     oleaut32:OLEAUT32.dll
 0002:0000019c       __imp__VariantClear@4      10b2d19c     oleaut32:OLEAUT32.dll
 0002:000001a0       __imp__SafeArrayCreateVector@12 10b2d1a0     oleaut32:OLEAUT32.dll
 0002:000001a4       __imp__SafeArrayUnaccessData@4 10b2d1a4     oleaut32:OLEAUT32.dll
 0002:000001a8       __imp__SafeArrayDestroy@4  10b2d1a8     oleaut32:OLEAUT32.dll
 0002:000001ac       __imp__SafeArrayAccessData@8 10b2d1ac     oleaut32:OLEAUT32.dll
 0002:000001b0       \177OLEAUT32_NULL_THUNK_DATA 10b2d1b0     oleaut32:OLEAUT32.dll
 0002:000001b4       __imp__MessageBoxA@16      10b2d1b4     user32:USER32.dll
 0002:000001b8       __imp__MsgWaitForMultipleObjects@20 10b2d1b8     user32:USER32.dll
 0002:000001bc       __imp__GetActiveWindow@0   10b2d1bc     user32:USER32.dll
 0002:000001c0       __imp__MsgWaitForMultipleObjectsEx@20 10b2d1c0     user32:USER32.dll
 0002:000001c4       \177USER32_NULL_THUNK_DATA 10b2d1c4     user32:USER32.dll
 0002:000001c8       __imp__accept@12           10b2d1c8     ws2_32:WS2_32.dll
 0002:000001cc       __imp__listen@8            10b2d1cc     ws2_32:WS2_32.dll
 0002:000001d0       __imp__getsockopt@20       10b2d1d0     ws2_32:WS2_32.dll
 0002:000001d4       __imp__setsockopt@20       10b2d1d4     ws2_32:WS2_32.dll
 0002:000001d8       __imp__getsockname@12      10b2d1d8     ws2_32:WS2_32.dll
 0002:000001dc       __imp__getpeername@12      10b2d1dc     ws2_32:WS2_32.dll
 0002:000001e0       __imp__inet_ntoa@4         10b2d1e0     ws2_32:WS2_32.dll
 0002:000001e4       __imp__ntohs@4             10b2d1e4     ws2_32:WS2_32.dll
 0002:000001e8       __imp__WSAGetLastError@0   10b2d1e8     ws2_32:WS2_32.dll
 0002:000001ec       __imp__WSASetLastError@4   10b2d1ec     ws2_32:WS2_32.dll
 0002:000001f0       __imp__htons@4             10b2d1f0     ws2_32:WS2_32.dll
 0002:000001f4       __imp__socket@12           10b2d1f4     ws2_32:WS2_32.dll
 0002:000001f8       __imp__WSACleanup@0        10b2d1f8     ws2_32:WS2_32.dll
 0002:000001fc       __imp__WSAStartup@8        10b2d1fc     ws2_32:WS2_32.dll
 0002:00000200       __imp__ioctlsocket@12      10b2d200     ws2_32:WS2_32.dll
 0002:00000204       __imp__WSASetEvent@4       10b2d204     ws2_32:WS2_32.dll
 0002:00000208       __imp__WSACloseEvent@4     10b2d208     ws2_32:WS2_32.dll
 0002:0000020c       __imp__WSACreateEvent@0    10b2d20c     ws2_32:WS2_32.dll
 0002:00000210       __imp__WSAEventSelect@12   10b2d210     ws2_32:WS2_32.dll
 0002:00000214       __imp__WSAEnumNetworkEvents@12 10b2d214     ws2_32:WS2_32.dll
 0002:00000218       __imp__WSAResetEvent@4     10b2d218     ws2_32:WS2_32.dll
 0002:0000021c       __imp__htonl@4             10b2d21c     ws2_32:WS2_32.dll
 0002:00000220       __imp__bind@12             10b2d220     ws2_32:WS2_32.dll
 0002:00000224       __imp__connect@12          10b2d224     ws2_32:WS2_32.dll
 0002:00000228       __imp__recv@16             10b2d228     ws2_32:WS2_32.dll
 0002:0000022c       __imp__send@16             10b2d22c     ws2_32:WS2_32.dll
 0002:00000230       __imp__recvfrom@24         10b2d230     ws2_32:WS2_32.dll
 0002:00000234       __imp__sendto@24           10b2d234     ws2_32:WS2_32.dll
 0002:00000238       __imp__WSARecvFrom@36      10b2d238     ws2_32:WS2_32.dll
 0002:0000023c       __imp__WSASendTo@36        10b2d23c     ws2_32:WS2_32.dll
 0002:00000240       __imp__gethostbyname@4     10b2d240     ws2_32:WS2_32.dll
 0002:00000244       __imp__inet_addr@4         10b2d244     ws2_32:WS2_32.dll
 0002:00000248       __imp__gethostname@8       10b2d248     ws2_32:WS2_32.dll
 0002:0000024c       __imp__closesocket@4       10b2d24c     ws2_32:WS2_32.dll
 0002:00000250       \177WS2_32_NULL_THUNK_DATA 10b2d250     ws2_32:WS2_32.dll
 0002:00000254       ___xc_a                    10b2d254     LIBCMT:crt0init.obj
 0002:00000260       ___xc_z                    10b2d260     LIBCMT:crt0init.obj
 0002:00000264       ___xi_a                    10b2d264     LIBCMT:crt0init.obj
 0002:00000278       ___xi_z                    10b2d278     LIBCMT:crt0init.obj
 0002:0000027c       ___xp_a                    10b2d27c     LIBCMT:crt0init.obj
 0002:00000288       ___xp_z                    10b2d288     LIBCMT:crt0init.obj
 0002:0000028c       ___xt_a                    10b2d28c     LIBCMT:crt0init.obj
 0002:00000290       ___xt_z                    10b2d290     LIBCMT:crt0init.obj
 0002:00000350       ?npos@?$basic_string@DU?$char_traits@D@std@@V?$allocator@D@2@@std@@2IB 10b2d350     ErrorLog.obj
 0002:00000350       ?npos@?$basic_string@GU?$char_traits@G@std@@V?$allocator@G@2@@std@@2IB 10b2d350     GAdlUtl.obj
 0002:00000358       ??_7bad_alloc@std@@6B@     10b2d358     ErrorLog.obj
 0002:000005b4       ??_7CLinkManager@@6B@      10b2d5b4     LinkManager.obj
 0002:00000604       ??_7?$AdlSocketSingleT@VGSocketHandler@@VGBufSocket@@VPayloadGS@@@@6B@ 10b2d604     LinkManager.obj
 0002:00000644       ??_7GSafeBufQ@@6B@         10b2d644     LinkManager.obj
 0002:00000654       ??_7?$AdlSocketDispatcherImplT@V?$BufSocketSingleT@VGSocketHandler@@VGBufSocket@@@@VPayloadGS@@@@6B@ 10b2d654     LinkManager.obj
 0002:00000694       ??_7?$BufSocketSingleT@VGSocketHandler@@VGBufSocket@@@@6B@ 10b2d694     LinkManager.obj
 0002:000006d0       ??_7?$BufSocketDispatcherImplT@V?$SocketSingleT@VGSocketHandler@@VGBufSocket@@@@@@6B@ 10b2d6d0     LinkManager.obj
 0002:0000070c       ??_7?$SocketSingleT@VGSocketHandler@@VGBufSocket@@@@6B@ 10b2d70c     LinkManager.obj
 0002:00000748       ??_7?$SocketDispatcherT@VGSocketHandler@@VGBufSocket@@@@6B@ 10b2d748     LinkManager.obj
 0002:00000784       ??_7GSocketHandler@@6B@    10b2d784     LinkManager.obj
 0002:0000078c       ??_7PMSUnitID@@6B@         10b2d78c     LinkManager.obj
 0002:00000790       ??_C@_0BD@OLBABOEK@vector?$DMT?$DO?5too?5long?$AA@ 10b2d790     LinkManager.obj
 0002:000007a8       ??_7length_error@std@@6B@  10b2d7a8     LinkManager.obj
 0002:000007b4       ??_7logic_error@std@@6B@   10b2d7b4     LinkManager.obj
 0002:00000808       ??_7PMSRegionInfo@@6B@     10b2d808     LinkManagerMsg.obj
 0002:00000810       ??_7PMSStatBase@@6B@       10b2d810     LinkManagerMsg.obj
 0002:00000818       ??_7CPMSPerformanceInfo@@6B@ 10b2d818     LinkManagerMsg.obj
 0002:00000824       ??_7IPMSPerformanceInfo@@6B@ 10b2d824     LinkManagerMsg.obj
 0002:00000830       ??_7CPMSRegionInfoList@@6B@ 10b2d830     LinkManagerMsg.obj
 0002:00000848       ??_7IPMSRegionInfoList@@6B@ 10b2d848     LinkManagerMsg.obj
 0002:0000085c       ??_7CPMSStatInfoList@@6B@  10b2d85c     LinkManagerMsg.obj
 0002:00000868       ??_7IPMSStatInfoList@@6B@  10b2d868     LinkManagerMsg.obj
 0002:00000870       ??_7CPMSRegionInfoListPC@@6B@ 10b2d870     LinkManagerMsg.obj
 0002:00000884       ??_7IPMSRegionInfoListPC@@6B@ 10b2d884     LinkManagerMsg.obj
 0002:00000894       ??_7CPMSStatInfoListPC@@6B@ 10b2d894     LinkManagerMsg.obj
 0002:000008a0       ??_7IPMSStatInfoListPC@@6B@ 10b2d8a0     LinkManagerMsg.obj
 0002:000008a4       ??_C@_0BB@MOGOBHAF@list?$DMT?$DO?5too?5long?$AA@ 10b2d8a4     LinkManagerMsg.obj
 0002:00000a1c       ??_7GKernelObj@@6B@        10b2da1c     GKernelObj.obj
 0002:00000a28       ??_7GWaitableObj@@6B@      10b2da28     GKernelObj.obj
 0002:00000a34       ??_7GSyncObj@@6B@          10b2da34     GKernelObj.obj
 0002:00000a48       ??_7GSemaphore@@6B@        10b2da48     GKernelObj.obj
 0002:00000a60       ??_7GMutex@@6B@            10b2da60     GKernelObj.obj
 0002:00000a74       ??_7GEvent@@6B@            10b2da74     GKernelObj.obj
 0002:00000a88       ??_7GSelector@@6B@         10b2da88     GKernelObj.obj
 0002:00000a90       ??_7?$pvector@VGSyncObj@@@@6B@ 10b2da90     GKernelObj.obj
 0002:000013c4       ??_7GSocketEvent@@6B@      10b2e3c4     GSocket.obj
 0002:000013dc       ??_7GSocket@@6B@           10b2e3dc     GSocket.obj
 0002:0000142c       ??_7GTxtSocket@@6B@        10b2e42c     GSocketUtl.obj
 0002:0000148c       ??_7GBufSocket@@6B@        10b2e48c     GSocketUtl.obj
 0002:000014f8       ??_C@_0P@GHFPNOJB@bad?5allocation?$AA@ 10b2e4f8     libcpmt:string.obj
 0002:0000150c       ??_7out_of_range@std@@6B@  10b2e50c     libcpmt:string.obj
 0002:00001514       ??_C@_0BA@JFNIOLAK@string?5too?5long?$AA@ 10b2e514     libcpmt:string.obj
 0002:00001524       ??_C@_0BI@CFPLBAOH@invalid?5string?5position?$AA@ 10b2e524     libcpmt:string.obj
 0002:00001560       ??_7type_info@@6B@         10b2e560     LIBCMT:typinfo.obj
 0002:00001568       ??_7exception@std@@6B@     10b2e568     LIBCMT:stdexcpt.obj
 0002:00001570       ??_C@_0BC@EOODALEL@Unknown?5exception?$AA@ 10b2e570     LIBCMT:stdexcpt.obj
 0002:00001584       __FPinit                   10b2e584     LIBCMT:_fpinit_.obj
 0002:00001588       __FPmtinit                 10b2e588     LIBCMT:_fpinit_.obj
 0002:0000158c       __FPmtterm                 10b2e58c     LIBCMT:_fpinit_.obj
 0002:00001590       __pDefaultRawDllMain       10b2e590     LIBCMT:dllcrt0.obj
 0002:00001590       __pRawDllMain              10b2e590     LIBCMT:dllcrt0.obj
 0002:00001594       ??_C@_1O@CEDCILHN@?$AA?$CI?$AAn?$AAu?$AAl?$AAl?$AA?$CJ?$AA?$AA@ 10b2e594     LIBCMT:output.obj
 0002:000015a4       ??_C@_06OJHGLDPL@?$CInull?$CJ?$AA@ 10b2e5a4     LIBCMT:output.obj
 0002:000015b0       ___lookuptable             10b2e5b0     LIBCMT:output.obj
 0002:0000160c       __pDestructExceptionObject 10b2e60c     LIBCMT:frame.obj
 0002:00001614       ??_7bad_exception@std@@6B@ 10b2e614     LIBCMT:frame.obj
 0002:0000161c       ??_C@_0O@DPKOEFFH@bad?5exception?$AA@ 10b2e61c     LIBCMT:frame.obj
 0002:0000162c       ??_C@_0O@NLDKAIKN@EncodePointer?$AA@ 10b2e62c     LIBCMT:tidtable.obj
 0002:0000163c       ??_C@_1BK@DBDEIDLH@?$AAK?$AAE?$AAR?$AAN?$AAE?$AAL?$AA3?$AA2?$AA?4?$AAD?$AAL?$AAL?$AA?$AA@ 10b2e63c     LIBCMT:tidtable.obj
 0002:00001658       ??_C@_0O@KBPMFGHI@DecodePointer?$AA@ 10b2e658     LIBCMT:tidtable.obj
 0002:00001668       ??_C@_07PEJMOBNF@FlsFree?$AA@ 10b2e668     LIBCMT:tidtable.obj
 0002:00001670       ??_C@_0M@JCPCPOEF@FlsSetValue?$AA@ 10b2e670     LIBCMT:tidtable.obj
 0002:0000167c       ??_C@_0M@GDNOONDI@FlsGetValue?$AA@ 10b2e67c     LIBCMT:tidtable.obj
 0002:00001688       ??_C@_08KNHFBNJ@FlsAlloc?$AA@ 10b2e688     LIBCMT:tidtable.obj
 0002:000016c0       ___lookuptable_s           10b2e6c0     LIBCMT:outputs.obj
 0002:0000171c       ??_C@_0P@MIGLKIOC@CorExitProcess?$AA@ 10b2e71c     LIBCMT:crt0dat.obj
 0002:0000172c       ??_C@_1BI@BGOHAHKC@?$AAm?$AAs?$AAc?$AAo?$AAr?$AAe?$AAe?$AA?4?$AAd?$AAl?$AAl?$AA?$AA@ 10b2e72c     LIBCMT:crt0dat.obj
 0002:000017c8       ??_C@_01NEMOKFLO@?$DN?$AA@ 10b2e7c8     LIBCMT:setlocal.obj
 0002:000017ca       ??_C@_00CNPNBAHC@?$AA@     10b2e7ca     LIBCMT:setlocal.obj
 0002:000017cc       ??_C@_0P@GGKDKEEG@runtime?5error?5?$AA@ 10b2e7cc     LIBCMT:crt0msg.obj
 0002:000017dc       ??_C@_02PCIJFNDE@?$AN?6?$AA@ 10b2e7dc     LIBCMT:crt0msg.obj
 0002:000017e0       ??_C@_0O@MJNIPGOH@TLOSS?5error?$AN?6?$AA@ 10b2e7e0     LIBCMT:crt0msg.obj
 0002:000017f0       ??_C@_0N@BONNPDHF@SING?5error?$AN?6?$AA@ 10b2e7f0     LIBCMT:crt0msg.obj
 0002:00001800       ??_C@_0P@MBDAJNE@DOMAIN?5error?$AN?6?$AA@ 10b2e800     LIBCMT:crt0msg.obj
 0002:00001810       ??_C@_0JL@DFDOOABL@R6034?$AN?6An?5application?5has?5made?5a@ 10b2e810     LIBCMT:crt0msg.obj
 0002:000018b0       ??_C@_0PH@EPAFIJ@R6033?$AN?6?9?5Attempt?5to?5use?5MSIL?5cod@ 10b2e8b0     LIBCMT:crt0msg.obj
 0002:000019a8       ??_C@_0DD@BKEEABMM@R6032?$AN?6?9?5not?5enough?5space?5for?5lo@ 10b2e9a8     LIBCMT:crt0msg.obj
 0002:000019e0       ??_C@_0GD@OFKILIED@R6031?$AN?6?9?5Attempt?5to?5initialize?5t@ 10b2e9e0     LIBCMT:crt0msg.obj
 0002:00001a44       ??_C@_0BP@LPMHJOKI@R6030?$AN?6?9?5CRT?5not?5initialized?$AN?6?$AA@ 10b2ea44     LIBCMT:crt0msg.obj
 0002:00001a64       ??_C@_0CF@KJDAIALP@R6028?$AN?6?9?5unable?5to?5initialize?5he@ 10b2ea64     LIBCMT:crt0msg.obj
 0002:00001a8c       ??_C@_0DF@GAKBPDFP@R6027?$AN?6?9?5not?5enough?5space?5for?5lo@ 10b2ea8c     LIBCMT:crt0msg.obj
 0002:00001ac4       ??_C@_0DF@IBLNNAIG@R6026?$AN?6?9?5not?5enough?5space?5for?5st@ 10b2eac4     LIBCMT:crt0msg.obj
 0002:00001afc       ??_C@_0CG@IOHKGFNJ@R6025?$AN?6?9?5pure?5virtual?5function?5c@ 10b2eafc     LIBCMT:crt0msg.obj
 0002:00001b24       ??_C@_0DF@JIJJFJDC@R6024?$AN?6?9?5not?5enough?5space?5for?5_o@ 10b2eb24     LIBCMT:crt0msg.obj
 0002:00001b5c       ??_C@_0CJ@EGEJHFME@R6019?$AN?6?9?5unable?5to?5open?5console?5@ 10b2eb5c     LIBCMT:crt0msg.obj
 0002:00001b88       ??_C@_0CB@GNHNIELH@R6018?$AN?6?9?5unexpected?5heap?5error?$AN?6@ 10b2eb88     LIBCMT:crt0msg.obj
 0002:00001bac       ??_C@_0CN@FOLDKNG@R6017?$AN?6?9?5unexpected?5multithread?5@ 10b2ebac     LIBCMT:crt0msg.obj
 0002:00001bdc       ??_C@_0CM@FAHFJNHO@R6016?$AN?6?9?5not?5enough?5space?5for?5th@ 10b2ebdc     LIBCMT:crt0msg.obj
 0002:00001c08       ??_C@_0JG@LBKMGKLD@?$AN?6This?5application?5has?5requested@ 10b2ec08     LIBCMT:crt0msg.obj
 0002:00001ca0       ??_C@_0CM@FLCNIPKK@R6009?$AN?6?9?5not?5enough?5space?5for?5en@ 10b2eca0     LIBCMT:crt0msg.obj
 0002:00001ccc       ??_C@_0CK@KMMJOAPP@R6008?$AN?6?9?5not?5enough?5space?5for?5ar@ 10b2eccc     LIBCMT:crt0msg.obj
 0002:00001cf8       ??_C@_0CN@LEKKICBM@R6002?$AN?6?9?5floating?5point?5support?5@ 10b2ecf8     LIBCMT:crt0msg.obj
 0002:00001d28       ??_C@_0CF@GOGNBNAK@Microsoft?5Visual?5C?$CL?$CL?5Runtime?5Lib@ 10b2ed28     LIBCMT:crt0msg.obj
 0002:00001d50       ??_C@_02PHMGELLB@?6?6?$AA@ 10b2ed50     LIBCMT:crt0msg.obj
 0002:00001d54       ??_C@_03KHICJKCI@?4?4?4?$AA@ 10b2ed54     LIBCMT:crt0msg.obj
 0002:00001d58       ??_C@_0BH@DNAGHKFM@?$DMprogram?5name?5unknown?$DO?$AA@ 10b2ed58     LIBCMT:crt0msg.obj
 0002:00001d70       ??_C@_0BK@OFGJDLJJ@Runtime?5Error?$CB?6?6Program?3?5?$AA@ 10b2ed70     LIBCMT:crt0msg.obj
 0002:00001d90       __XcptActTab               10b2ed90     LIBCMT:winxfltr.obj
 0002:00001e08       ??_C@_05KLBDPFGC@e?$CL000?$AA@ 10b2ee08     LIBCMT:cvt.obj
 0002:00001e10       __real@4150017ec0000000    10b2ee10     LIBCMT:_testfdiv_.obj
 0002:00001e18       __real@4147ffff80000000    10b2ee18     LIBCMT:_testfdiv_.obj
 0002:00001e20       ??_C@_0BK@NHEOCAHP@IsProcessorFeaturePresent?$AA@ 10b2ee20     LIBCMT:_testfdiv_.obj
 0002:00001e3c       ??_C@_08CPNIBGIE@KERNEL32?$AA@ 10b2ee3c     LIBCMT:_testfdiv_.obj
 0002:00001e48       ??_C@_13NOLLCAOD@?$AA?$AA?$AA?$AA@ 10b2ee48     LIBCMT:a_map.obj
 0002:00001e4c       ??_C@_0BK@CFCOFLF@?5Complete?5Object?5Locator?8?$AA@ 10b2ee4c     LIBCMT:undname.obj
 0002:00001e68       ??_C@_0BN@MECKDCOJ@?5Class?5Hierarchy?5Descriptor?8?$AA@ 10b2ee68     LIBCMT:undname.obj
 0002:00001e88       ??_C@_0BD@LGICGFMM@?5Base?5Class?5Array?8?$AA@ 10b2ee88     LIBCMT:undname.obj
 0002:00001e9c       ??_C@_0BM@LDKODKLH@?5Base?5Class?5Descriptor?5at?5?$CI?$AA@ 10b2ee9c     LIBCMT:undname.obj
 0002:00001eb8       ??_C@_0BC@DAFEJGAK@?5Type?5Descriptor?8?$AA@ 10b2eeb8     LIBCMT:undname.obj
 0002:00001ecc       ??_C@_0BM@PMGGMLDN@?$GAlocal?5static?5thread?5guard?8?$AA@ 10b2eecc     LIBCMT:undname.obj
 0002:00001ee8       ??_C@_0CL@FGIJHLCE@?$GAmanaged?5vector?5copy?5constructor@ 10b2eee8     LIBCMT:undname.obj
 0002:00001f14       ??_C@_0CJ@GJELGAMM@?$GAvector?5vbase?5copy?5constructor?5i@ 10b2ef14     LIBCMT:undname.obj
 0002:00001f40       ??_C@_0CD@CGAJBKEJ@?$GAvector?5copy?5constructor?5iterato@ 10b2ef40     LIBCMT:undname.obj
 0002:00001f64       ??_C@_0CB@PDBIFEP@?$GAdynamic?5atexit?5destructor?5for?5?8@ 10b2ef64     LIBCMT:undname.obj
 0002:00001f88       ??_C@_0BL@CLIPGLGB@?$GAdynamic?5initializer?5for?5?8?$AA@ 10b2ef88     LIBCMT:undname.obj
 0002:00001fa4       ??_C@_0CM@FCBBDIGB@?$GAeh?5vector?5vbase?5copy?5constructo@ 10b2efa4     LIBCMT:undname.obj
 0002:00001fd0       ??_C@_0CG@HLDDJMAG@?$GAeh?5vector?5copy?5constructor?5iter@ 10b2efd0     LIBCMT:undname.obj
 0002:00001ff8       ??_C@_0CF@IMGKMJNO@?$GAmanaged?5vector?5destructor?5itera@ 10b2eff8     LIBCMT:undname.obj
 0002:00002020       ??_C@_0CG@CFDHKGGD@?$GAmanaged?5vector?5constructor?5iter@ 10b2f020     LIBCMT:undname.obj
 0002:00002048       ??_C@_0BN@CKNJLHMB@?$GAplacement?5delete?$FL?$FN?5closure?8?$AA@ 10b2f048     LIBCMT:undname.obj
 0002:00002068       ??_C@_0BL@CNOONJFP@?$GAplacement?5delete?5closure?8?$AA@ 10b2f068     LIBCMT:undname.obj
 0002:00002084       ??_C@_0P@HJKNJFNN@?$GAomni?5callsig?8?$AA@ 10b2f084     LIBCMT:undname.obj
 0002:00002094       ??_C@_09LBNFPBCA@?5delete?$FL?$FN?$AA@ 10b2f094     LIBCMT:undname.obj
 0002:000020a0       ??_C@_06FHBGPFGH@?5new?$FL?$FN?$AA@ 10b2f0a0     LIBCMT:undname.obj
 0002:000020a8       ??_C@_0CE@IIHCMGGL@?$GAlocal?5vftable?5constructor?5closu@ 10b2f0a8     LIBCMT:undname.obj
 0002:000020cc       ??_C@_0BA@KKLDJDLB@?$GAlocal?5vftable?8?$AA@ 10b2f0cc     LIBCMT:undname.obj
 0002:000020dc       ??_C@_05KHLCHHI@?$GARTTI?$AA@ 10b2f0dc     LIBCMT:undname.obj
 0002:000020e4       ??_C@_03KLGMFNMG@?$GAEH?$AA@ 10b2f0e4     LIBCMT:undname.obj
 0002:000020e8       ??_C@_0BA@KBCDOMBN@?$GAudt?5returning?8?$AA@ 10b2f0e8     LIBCMT:undname.obj
 0002:000020f8       ??_C@_0BL@LLKPOHJI@?$GAcopy?5constructor?5closure?8?$AA@ 10b2f0f8     LIBCMT:undname.obj
 0002:00002114       ??_C@_0CH@OOJPLCPH@?$GAeh?5vector?5vbase?5constructor?5ite@ 10b2f114     LIBCMT:undname.obj
 0002:0000213c       ??_C@_0CA@GCEOPDGL@?$GAeh?5vector?5destructor?5iterator?8?$AA@ 10b2f13c     LIBCMT:undname.obj
 0002:0000215c       ??_C@_0CB@JONCMFFK@?$GAeh?5vector?5constructor?5iterator?8@ 10b2f15c     LIBCMT:undname.obj
 0002:00002180       ??_C@_0BL@NILFHHPC@?$GAvirtual?5displacement?5map?8?$AA@ 10b2f180     LIBCMT:undname.obj
 0002:0000219c       ??_C@_0CE@IKBNEHA@?$GAvector?5vbase?5constructor?5iterat@ 10b2f19c     LIBCMT:undname.obj
 0002:000021c0       ??_C@_0BN@LFPFMEDL@?$GAvector?5destructor?5iterator?8?$AA@ 10b2f1c0     LIBCMT:undname.obj
 0002:000021e0       ??_C@_0BO@PFGOCPJJ@?$GAvector?5constructor?5iterator?8?$AA@ 10b2f1e0     LIBCMT:undname.obj
 0002:00002200       ??_C@_0BN@IMDCHIKM@?$GAscalar?5deleting?5destructor?8?$AA@ 10b2f200     LIBCMT:undname.obj
 0002:00002220       ??_C@_0BO@OBMKPJIG@?$GAdefault?5constructor?5closure?8?$AA@ 10b2f220     LIBCMT:undname.obj
 0002:00002240       ??_C@_0BN@DEGPLNFK@?$GAvector?5deleting?5destructor?8?$AA@ 10b2f240     LIBCMT:undname.obj
 0002:00002260       ??_C@_0BD@JDLKDPAB@?$GAvbase?5destructor?8?$AA@ 10b2f260     LIBCMT:undname.obj
 0002:00002274       ??_C@_08OBABFOLI@?$GAstring?8?$AA@ 10b2f274     LIBCMT:undname.obj
 0002:00002280       ??_C@_0BF@KDPPACIK@?$GAlocal?5static?5guard?8?$AA@ 10b2f280     LIBCMT:undname.obj
 0002:00002298       ??_C@_08LLFFHHDJ@?$GAtypeof?8?$AA@ 10b2f298     LIBCMT:undname.obj
 0002:000022a4       ??_C@_07FEEIOKP@?$GAvcall?8?$AA@ 10b2f2a4     LIBCMT:undname.obj
 0002:000022ac       ??_C@_09BLBHBJP@?$GAvbtable?8?$AA@ 10b2f2ac     LIBCMT:undname.obj
 0002:000022b8       ??_C@_09IFPLHPGF@?$GAvftable?8?$AA@ 10b2f2b8     LIBCMT:undname.obj
 0002:000022c4       ??_C@_02MHEGNOJ@?$FO?$DN?$AA@ 10b2f2c4     LIBCMT:undname.obj
 0002:000022c8       ??_C@_02DHLNPPGH@?$HM?$DN?$AA@ 10b2f2c8     LIBCMT:undname.obj
 0002:000022cc       ??_C@_02FGJGFEAB@?$CG?$DN?$AA@ 10b2f2cc     LIBCMT:undname.obj
 0002:000022d0       ??_C@_03CDNPDDLA@?$DM?$DM?$DN?$AA@ 10b2f2d0     LIBCMT:undname.obj
 0002:000022d4       ??_C@_03IKFCCPFF@?$DO?$DO?$DN?$AA@ 10b2f2d4     LIBCMT:undname.obj
 0002:000022d8       ??_C@_02FENAOKFI@?$CF?$DN?$AA@ 10b2f2d8     LIBCMT:undname.obj
 0002:000022dc       ??_C@_02FJEHGPIO@?1?$DN?$AA@ 10b2f2dc     LIBCMT:undname.obj
 0002:000022e0       ??_C@_02FKMDLLOA@?9?$DN?$AA@ 10b2f2e0     LIBCMT:undname.obj
 0002:000022e4       ??_C@_02FOEOMHFC@?$CL?$DN?$AA@ 10b2f2e4     LIBCMT:undname.obj
 0002:000022e8       ??_C@_02FPIMKNGF@?$CK?$DN?$AA@ 10b2f2e8     LIBCMT:undname.obj
 0002:000022ec       ??_C@_02NONPIBCD@?$HM?$HM?$AA@ 10b2f2ec     LIBCMT:undname.obj
 0002:000022f0       ??_C@_02PPKAJPJL@?$CG?$CG?$AA@ 10b2f2f0     LIBCMT:undname.obj
 0002:000022f4       ??_C@_01DNKMNLPK@?$HM?$AA@ 10b2f2f4     LIBCMT:undname.obj
 0002:000022f8       ??_C@_01JKBOJNNK@?$FO?$AA@ 10b2f2f8     LIBCMT:undname.obj
 0002:000022fc       ??_C@_01PJKLJHI@?$HO?$AA@  10b2f2fc     LIBCMT:undname.obj
 0002:00002300       ??_C@_02HCKGKOFO@?$CI?$CJ?$AA@ 10b2f300     LIBCMT:undname.obj
 0002:00002304       ??_C@_01IHBHIGKO@?0?$AA@   10b2f304     LIBCMT:undname.obj
 0002:00002308       ??_C@_02EEKDKGMJ@?$DO?$DN?$AA@ 10b2f308     LIBCMT:undname.obj
 0002:0000230c       ??_C@_01PPODPGHN@?$DO?$AA@ 10b2f30c     LIBCMT:undname.obj
 0002:00002310       ??_C@_02EHCHHCKH@?$DM?$DN?$AA@ 10b2f310     LIBCMT:undname.obj
 0002:00002314       ??_C@_01MNNFJEPP@?$DM?$AA@ 10b2f314     LIBCMT:undname.obj
 0002:00002318       ??_C@_01FGNFDNOH@?$CF?$AA@ 10b2f318     LIBCMT:undname.obj
 0002:0000231c       ??_C@_01KMDKNFGN@?1?$AA@   10b2f31c     LIBCMT:undname.obj
 0002:00002320       ??_C@_03MNHNFDLC@?9?$DO?$CK?$AA@ 10b2f320     LIBCMT:undname.obj
 0002:00002324       ??_C@_01HNPIGOCE@?$CG?$AA@ 10b2f324     LIBCMT:undname.obj
 0002:00002328       ??_C@_01MIFGBAGJ@?$CL?$AA@ 10b2f328     LIBCMT:undname.obj
 0002:0000232c       ??_C@_01JOAMLHOP@?9?$AA@   10b2f32c     LIBCMT:undname.obj
 0002:00002330       ??_C@_02BAABKJLB@?9?9?$AA@ 10b2f330     LIBCMT:undname.obj
 0002:00002334       ??_C@_02ECNGHCIF@?$CL?$CL?$AA@ 10b2f334     LIBCMT:undname.obj
 0002:00002338       ??_C@_01NBENCBCI@?$CK?$AA@ 10b2f338     LIBCMT:undname.obj
 0002:0000233c       ??_C@_02HBOOOICD@?9?$DO?$AA@ 10b2f33c     LIBCMT:undname.obj
 0002:00002340       ??_C@_08LHJFAFGD@operator?$AA@ 10b2f340     LIBCMT:undname.obj
 0002:0000234c       ??_C@_02GPECMEKF@?$FL?$FN?$AA@ 10b2f34c     LIBCMT:undname.obj
 0002:00002350       ??_C@_02FDNJECIE@?$CB?$DN?$AA@ 10b2f350     LIBCMT:undname.obj
 0002:00002354       ??_C@_02EGOFBIJA@?$DN?$DN?$AA@ 10b2f354     LIBCMT:undname.obj
 0002:00002358       ??_C@_01DCLJPIOD@?$CB?$AA@ 10b2f358     LIBCMT:undname.obj
 0002:0000235c       ??_C@_02FODMEDOG@?$DM?$DM?$AA@ 10b2f35c     LIBCMT:undname.obj
 0002:00002360       ??_C@_02GPIOPFAK@?$DO?$DO?$AA@ 10b2f360     LIBCMT:undname.obj
 0002:00002364       ??_C@_07FPCDHGMM@?5delete?$AA@ 10b2f364     LIBCMT:undname.obj
 0002:0000236c       ??_C@_04NIHEBCM@?5new?$AA@ 10b2f36c     LIBCMT:undname.obj
 0002:00002374       ??_C@_0M@GFIIJFMG@__unaligned?$AA@ 10b2f374     LIBCMT:undname.obj
 0002:00002380       ??_C@_0L@PILCLIHE@__restrict?$AA@ 10b2f380     LIBCMT:undname.obj
 0002:0000238c       ??_C@_07JOMMBBKO@__ptr64?$AA@ 10b2f38c     LIBCMT:undname.obj
 0002:00002394       ??_C@_09HIJEGCPM@__clrcall?$AA@ 10b2f394     LIBCMT:undname.obj
 0002:000023a0       ??_C@_0L@JMKHOMEK@__fastcall?$AA@ 10b2f3a0     LIBCMT:undname.obj
 0002:000023ac       ??_C@_0L@NPHFGOKO@__thiscall?$AA@ 10b2f3ac     LIBCMT:undname.obj
 0002:000023b8       ??_C@_09IFJBGAPI@__stdcall?$AA@ 10b2f3b8     LIBCMT:undname.obj
 0002:000023c4       ??_C@_08GHMPAG@__pascal?$AA@ 10b2f3c4     LIBCMT:undname.obj
 0002:000023d0       ??_C@_07KOLFKCDI@__cdecl?$AA@ 10b2f3d0     LIBCMT:undname.obj
 0002:000023d8       ??_C@_08EHJDFFNH@__based?$CI?$AA@ 10b2f3d8     LIBCMT:undname.obj
 0002:00002568       ___newctype                10b2f568     LIBCMT:ctype.obj
 0002:00002868       __wctype                   10b2f868     LIBCMT:ctype.obj
 0002:00002a70       ___newclmap                10b2fa70     LIBCMT:ctype.obj
 0002:00002bf0       ___newcumap                10b2fbf0     LIBCMT:ctype.obj
 0002:00002d70       ??_C@_08JCCMCCIL@HH?3mm?3ss?$AA@ 10b2fd70     LIBCMT:strftime.obj
 0002:00002d7c       ??_C@_0BE@CKGJFCPC@dddd?0?5MMMM?5dd?0?5yyyy?$AA@ 10b2fd7c     LIBCMT:strftime.obj
 0002:00002d90       ??_C@_08BPBNCDIB@MM?1dd?1yy?$AA@ 10b2fd90     LIBCMT:strftime.obj
 0002:00002d9c       ??_C@_02CJNFDJBF@PM?$AA@   10b2fd9c     LIBCMT:strftime.obj
 0002:00002da0       ??_C@_02DEDBPAFC@AM?$AA@   10b2fda0     LIBCMT:strftime.obj
 0002:00002da4       ??_C@_08EDHMEBNP@December?$AA@ 10b2fda4     LIBCMT:strftime.obj
 0002:00002db0       ??_C@_08HCHEGEOA@November?$AA@ 10b2fdb0     LIBCMT:strftime.obj
 0002:00002dbc       ??_C@_07JJNFCEND@October?$AA@ 10b2fdbc     LIBCMT:strftime.obj
 0002:00002dc4       ??_C@_09BHHEALKD@September?$AA@ 10b2fdc4     LIBCMT:strftime.obj
 0002:00002dd0       ??_C@_06LBBHFDDG@August?$AA@ 10b2fdd0     LIBCMT:strftime.obj
 0002:00002dd8       ??_C@_04MIEPOIFP@July?$AA@ 10b2fdd8     LIBCMT:strftime.obj
 0002:00002de0       ??_C@_04CNLMGBGM@June?$AA@ 10b2fde0     LIBCMT:strftime.obj
 0002:00002de8       ??_C@_05DMJDNLEJ@April?$AA@ 10b2fde8     LIBCMT:strftime.obj
 0002:00002df0       ??_C@_05HPCKOFNC@March?$AA@ 10b2fdf0     LIBCMT:strftime.obj
 0002:00002df8       ??_C@_08GNJGEPFN@February?$AA@ 10b2fdf8     LIBCMT:strftime.obj
 0002:00002e04       ??_C@_07CGJPFGJA@January?$AA@ 10b2fe04     LIBCMT:strftime.obj
 0002:00002e0c       ??_C@_03MKABNOCG@Dec?$AA@  10b2fe0c     LIBCMT:strftime.obj
 0002:00002e10       ??_C@_03JPJOFNIA@Nov?$AA@  10b2fe10     LIBCMT:strftime.obj
 0002:00002e14       ??_C@_03BMAOKBAD@Oct?$AA@  10b2fe14     LIBCMT:strftime.obj
 0002:00002e18       ??_C@_03GGCAPAJC@Sep?$AA@  10b2fe18     LIBCMT:strftime.obj
 0002:00002e1c       ??_C@_03IFJFEIGA@Aug?$AA@  10b2fe1c     LIBCMT:strftime.obj
 0002:00002e20       ??_C@_03LBGABGKK@Jul?$AA@  10b2fe20     LIBCMT:strftime.obj
 0002:00002e24       ??_C@_03IDFGHECI@Jun?$AA@  10b2fe24     LIBCMT:strftime.obj
 0002:00002e28       ??_C@_03CNMDKL@May?$AA@    10b2fe28     LIBCMT:strftime.obj
 0002:00002e2c       ??_C@_03LEOLGMJP@Apr?$AA@  10b2fe2c     LIBCMT:strftime.obj
 0002:00002e30       ??_C@_03ODNJBKGA@Mar?$AA@  10b2fe30     LIBCMT:strftime.obj
 0002:00002e34       ??_C@_03HJBDCHOM@Feb?$AA@  10b2fe34     LIBCMT:strftime.obj
 0002:00002e38       ??_C@_03JIHJHPIE@Jan?$AA@  10b2fe38     LIBCMT:strftime.obj
 0002:00002e3c       ??_C@_08INBOOONO@Saturday?$AA@ 10b2fe3c     LIBCMT:strftime.obj
 0002:00002e48       ??_C@_06JECMNKMI@Friday?$AA@ 10b2fe48     LIBCMT:strftime.obj
 0002:00002e50       ??_C@_08HACCIKIA@Thursday?$AA@ 10b2fe50     LIBCMT:strftime.obj
 0002:00002e5c       ??_C@_09DLIGFAKA@Wednesday?$AA@ 10b2fe5c     LIBCMT:strftime.obj
 0002:00002e68       ??_C@_07BAAGCFCM@Tuesday?$AA@ 10b2fe68     LIBCMT:strftime.obj
 0002:00002e70       ??_C@_06JLEDEDGH@Monday?$AA@ 10b2fe70     LIBCMT:strftime.obj
 0002:00002e78       ??_C@_06OOPIFAJ@Sunday?$AA@ 10b2fe78     LIBCMT:strftime.obj
 0002:00002e80       ??_C@_03FEFJNEK@Sat?$AA@   10b2fe80     LIBCMT:strftime.obj
 0002:00002e84       ??_C@_03IDIOELNC@Fri?$AA@  10b2fe84     LIBCMT:strftime.obj
 0002:00002e88       ??_C@_03IOFIKPDN@Thu?$AA@  10b2fe88     LIBCMT:strftime.obj
 0002:00002e8c       ??_C@_03MHOMLAJA@Wed?$AA@  10b2fe8c     LIBCMT:strftime.obj
 0002:00002e90       ??_C@_03NAGEINEP@Tue?$AA@  10b2fe90     LIBCMT:strftime.obj
 0002:00002e94       ??_C@_03PDAGKDH@Mon?$AA@   10b2fe94     LIBCMT:strftime.obj
 0002:00002e98       ??_C@_03KOEHGMDN@Sun?$AA@  10b2fe98     LIBCMT:strftime.obj
 0002:00002e9c       ??_C@_0BI@DFKBFLJE@GetProcessWindowStation?$AA@ 10b2fe9c     LIBCMT:crtmbox.obj
 0002:00002eb4       ??_C@_0BK@CIDNPOGP@GetUserObjectInformationA?$AA@ 10b2feb4     LIBCMT:crtmbox.obj
 0002:00002ed0       ??_C@_0BD@HHGDFDBJ@GetLastActivePopup?$AA@ 10b2fed0     LIBCMT:crtmbox.obj
 0002:00002ee4       ??_C@_0BA@HNOPNCHB@GetActiveWindow?$AA@ 10b2fee4     LIBCMT:crtmbox.obj
 0002:00002ef4       ??_C@_0M@CHKKJDAI@MessageBoxA?$AA@ 10b2fef4     LIBCMT:crtmbox.obj
 0002:00002f00       ??_C@_0L@NDEGIDAG@USER32?4DLL?$AA@ 10b2ff00     LIBCMT:crtmbox.obj
 0002:00002f0c       ___dnames                  10b2ff0c     LIBCMT:timeset.obj
 0002:00002f24       ___mnames                  10b2ff24     LIBCMT:timeset.obj
 0002:00002f4c       ??_C@_06IMKFLFPG@1?$CDQNAN?$AA@ 10b2ff4c     LIBCMT:_x10fout_.obj
 0002:00002f54       ??_C@_05DNEBIAHO@1?$CDINF?$AA@ 10b2ff54     LIBCMT:_x10fout_.obj
 0002:00002f5c       ??_C@_05PHHOCPM@1?$CDIND?$AA@ 10b2ff5c     LIBCMT:_x10fout_.obj
 0002:00002f64       ??_C@_06PGGFOGJG@1?$CDSNAN?$AA@ 10b2ff64     LIBCMT:_x10fout_.obj
 0002:00002f6c       ??_C@_07GPDNMNG@CONOUT$?$AA@ 10b2ff6c     LIBCMT:initcon.obj
 0002:00002f78       __load_config_used         10b2ff78     LIBCMT:loadcfg.obj
 0002:0000301c       ??_R4bad_alloc@std@@6B@    10b3001c     ErrorLog.obj
 0002:00003030       ??_R3bad_alloc@std@@8      10b30030     ErrorLog.obj
 0002:00003040       ??_R2bad_alloc@std@@8      10b30040     ErrorLog.obj
 0002:0000304c       ??_R1A@?0A@EA@bad_alloc@std@@8 10b3004c     ErrorLog.obj
 0002:00003068       ??_R1A@?0A@EA@exception@std@@8 10b30068     ErrorLog.obj
 0002:00003084       ??_R3exception@std@@8      10b30084     ErrorLog.obj
 0002:00003094       ??_R2exception@std@@8      10b30094     ErrorLog.obj
 0002:0000309c       ??_R4CLinkManager@@6B@     10b3009c     LinkManager.obj
 0002:000030b0       ??_R3CLinkManager@@8       10b300b0     LinkManager.obj
 0002:000030c0       ??_R2CLinkManager@@8       10b300c0     LinkManager.obj
 0002:000030e4       ??_R1A@?0A@EA@CLinkManager@@8 10b300e4     LinkManager.obj
 0002:00003100       ??_R1A@?0A@EA@?$AdlSocketSingleT@VGSocketHandler@@VGBufSocket@@VPayloadGS@@@@8 10b30100     LinkManager.obj
 0002:0000311c       ??_R3?$AdlSocketSingleT@VGSocketHandler@@VGBufSocket@@VPayloadGS@@@@8 10b3011c     LinkManager.obj
 0002:0000312c       ??_R2?$AdlSocketSingleT@VGSocketHandler@@VGBufSocket@@VPayloadGS@@@@8 10b3012c     LinkManager.obj
 0002:0000314c       ??_R1A@?0A@EA@?$AdlSocketDispatcherImplT@V?$BufSocketSingleT@VGSocketHandler@@VGBufSocket@@@@VPayloadGS@@@@8 10b3014c     LinkManager.obj
 0002:00003168       ??_R3?$AdlSocketDispatcherImplT@V?$BufSocketSingleT@VGSocketHandler@@VGBufSocket@@@@VPayloadGS@@@@8 10b30168     LinkManager.obj
 0002:00003178       ??_R2?$AdlSocketDispatcherImplT@V?$BufSocketSingleT@VGSocketHandler@@VGBufSocket@@@@VPayloadGS@@@@8 10b30178     LinkManager.obj
 0002:00003194       ??_R1A@?0A@EA@?$BufSocketSingleT@VGSocketHandler@@VGBufSocket@@@@8 10b30194     LinkManager.obj
 0002:000031b0       ??_R3?$BufSocketSingleT@VGSocketHandler@@VGBufSocket@@@@8 10b301b0     LinkManager.obj
 0002:000031c0       ??_R2?$BufSocketSingleT@VGSocketHandler@@VGBufSocket@@@@8 10b301c0     LinkManager.obj
 0002:000031d8       ??_R1A@?0A@EA@?$BufSocketDispatcherImplT@V?$SocketSingleT@VGSocketHandler@@VGBufSocket@@@@@@8 10b301d8     LinkManager.obj
 0002:000031f4       ??_R3?$BufSocketDispatcherImplT@V?$SocketSingleT@VGSocketHandler@@VGBufSocket@@@@@@8 10b301f4     LinkManager.obj
 0002:00003204       ??_R2?$BufSocketDispatcherImplT@V?$SocketSingleT@VGSocketHandler@@VGBufSocket@@@@@@8 10b30204     LinkManager.obj
 0002:00003218       ??_R1A@?0A@EA@?$SocketSingleT@VGSocketHandler@@VGBufSocket@@@@8 10b30218     LinkManager.obj
 0002:00003234       ??_R3?$SocketSingleT@VGSocketHandler@@VGBufSocket@@@@8 10b30234     LinkManager.obj
 0002:00003244       ??_R2?$SocketSingleT@VGSocketHandler@@VGBufSocket@@@@8 10b30244     LinkManager.obj
 0002:00003254       ??_R1A@?0A@EA@?$SocketDispatcherT@VGSocketHandler@@VGBufSocket@@@@8 10b30254     LinkManager.obj
 0002:00003270       ??_R3?$SocketDispatcherT@VGSocketHandler@@VGBufSocket@@@@8 10b30270     LinkManager.obj
 0002:00003280       ??_R2?$SocketDispatcherT@VGSocketHandler@@VGBufSocket@@@@8 10b30280     LinkManager.obj
 0002:0000328c       ??_R1A@?0A@EA@GSocketHandler@@8 10b3028c     LinkManager.obj
 0002:000032a8       ??_R3GSocketHandler@@8     10b302a8     LinkManager.obj
 0002:000032b8       ??_R2GSocketHandler@@8     10b302b8     LinkManager.obj
 0002:000032c0       ??_R4?$AdlSocketSingleT@VGSocketHandler@@VGBufSocket@@VPayloadGS@@@@6B@ 10b302c0     LinkManager.obj
 0002:000032d4       ??_R4GSafeBufQ@@6B@        10b302d4     LinkManager.obj
 0002:000032e8       ??_R3GSafeBufQ@@8          10b302e8     LinkManager.obj
 0002:000032f8       ??_R2GSafeBufQ@@8          10b302f8     LinkManager.obj
 0002:00003300       ??_R1A@?0A@EA@GSafeBufQ@@8 10b30300     LinkManager.obj
 0002:0000331c       ??_R4?$AdlSocketDispatcherImplT@V?$BufSocketSingleT@VGSocketHandler@@VGBufSocket@@@@VPayloadGS@@@@6B@ 10b3031c     LinkManager.obj
 0002:00003330       ??_R4?$BufSocketSingleT@VGSocketHandler@@VGBufSocket@@@@6B@ 10b30330     LinkManager.obj
 0002:00003344       ??_R4?$BufSocketDispatcherImplT@V?$SocketSingleT@VGSocketHandler@@VGBufSocket@@@@@@6B@ 10b30344     LinkManager.obj
 0002:00003358       ??_R4?$SocketSingleT@VGSocketHandler@@VGBufSocket@@@@6B@ 10b30358     LinkManager.obj
 0002:0000336c       ??_R4?$SocketDispatcherT@VGSocketHandler@@VGBufSocket@@@@6B@ 10b3036c     LinkManager.obj
 0002:00003380       ??_R4GSocketHandler@@6B@   10b30380     LinkManager.obj
 0002:00003394       ??_R4PMSUnitID@@6B@        10b30394     LinkManager.obj
 0002:000033a8       ??_R3PMSUnitID@@8          10b303a8     LinkManager.obj
 0002:000033b8       ??_R2PMSUnitID@@8          10b303b8     LinkManager.obj
 0002:000033c0       ??_R1A@?0A@EA@PMSUnitID@@8 10b303c0     LinkManager.obj
 0002:000033dc       ??_R4length_error@std@@6B@ 10b303dc     LinkManager.obj
 0002:000033f0       ??_R3length_error@std@@8   10b303f0     LinkManager.obj
 0002:00003400       ??_R2length_error@std@@8   10b30400     LinkManager.obj
 0002:00003410       ??_R1A@?0A@EA@length_error@std@@8 10b30410     LinkManager.obj
 0002:0000342c       ??_R1A@?0A@EA@logic_error@std@@8 10b3042c     LinkManager.obj
 0002:00003448       ??_R3logic_error@std@@8    10b30448     LinkManager.obj
 0002:00003458       ??_R2logic_error@std@@8    10b30458     LinkManager.obj
 0002:00003464       ??_R4logic_error@std@@6B@  10b30464     LinkManager.obj
 0002:00003478       ??_R4PMSRegionInfo@@6B@    10b30478     LinkManagerMsg.obj
 0002:0000348c       ??_R3PMSRegionInfo@@8      10b3048c     LinkManagerMsg.obj
 0002:0000349c       ??_R2PMSRegionInfo@@8      10b3049c     LinkManagerMsg.obj
 0002:000034a4       ??_R1A@?0A@EA@PMSRegionInfo@@8 10b304a4     LinkManagerMsg.obj
 0002:000034c0       ??_R4PMSStatBase@@6B@      10b304c0     LinkManagerMsg.obj
 0002:000034d4       ??_R3PMSStatBase@@8        10b304d4     LinkManagerMsg.obj
 0002:000034e4       ??_R2PMSStatBase@@8        10b304e4     LinkManagerMsg.obj
 0002:000034ec       ??_R1A@?0A@EA@PMSStatBase@@8 10b304ec     LinkManagerMsg.obj
 0002:00003508       ??_R4CPMSPerformanceInfo@@6B@ 10b30508     LinkManagerMsg.obj
 0002:0000351c       ??_R3CPMSPerformanceInfo@@8 10b3051c     LinkManagerMsg.obj
 0002:0000352c       ??_R2CPMSPerformanceInfo@@8 10b3052c     LinkManagerMsg.obj
 0002:00003538       ??_R1A@?0A@EA@CPMSPerformanceInfo@@8 10b30538     LinkManagerMsg.obj
 0002:00003554       ??_R1A@?0A@EA@IPMSPerformanceInfo@@8 10b30554     LinkManagerMsg.obj
 0002:00003570       ??_R3IPMSPerformanceInfo@@8 10b30570     LinkManagerMsg.obj
 0002:00003580       ??_R2IPMSPerformanceInfo@@8 10b30580     LinkManagerMsg.obj
 0002:00003588       ??_R4IPMSPerformanceInfo@@6B@ 10b30588     LinkManagerMsg.obj
 0002:0000359c       ??_R4CPMSRegionInfoList@@6B@ 10b3059c     LinkManagerMsg.obj
 0002:000035b0       ??_R3CPMSRegionInfoList@@8 10b305b0     LinkManagerMsg.obj
 0002:000035c0       ??_R2CPMSRegionInfoList@@8 10b305c0     LinkManagerMsg.obj
 0002:000035cc       ??_R1A@?0A@EA@CPMSRegionInfoList@@8 10b305cc     LinkManagerMsg.obj
 0002:000035e8       ??_R1A@?0A@EA@IPMSRegionInfoList@@8 10b305e8     LinkManagerMsg.obj
 0002:00003604       ??_R3IPMSRegionInfoList@@8 10b30604     LinkManagerMsg.obj
 0002:00003614       ??_R2IPMSRegionInfoList@@8 10b30614     LinkManagerMsg.obj
 0002:0000361c       ??_R4IPMSRegionInfoList@@6B@ 10b3061c     LinkManagerMsg.obj
 0002:00003630       ??_R4CPMSStatInfoList@@6B@ 10b30630     LinkManagerMsg.obj
 0002:00003644       ??_R3CPMSStatInfoList@@8   10b30644     LinkManagerMsg.obj
 0002:00003654       ??_R2CPMSStatInfoList@@8   10b30654     LinkManagerMsg.obj
 0002:00003660       ??_R1A@?0A@EA@CPMSStatInfoList@@8 10b30660     LinkManagerMsg.obj
 0002:0000367c       ??_R1A@?0A@EA@IPMSStatInfoList@@8 10b3067c     LinkManagerMsg.obj
 0002:00003698       ??_R3IPMSStatInfoList@@8   10b30698     LinkManagerMsg.obj
 0002:000036a8       ??_R2IPMSStatInfoList@@8   10b306a8     LinkManagerMsg.obj
 0002:000036b0       ??_R4IPMSStatInfoList@@6B@ 10b306b0     LinkManagerMsg.obj
 0002:000036c4       ??_R4CPMSRegionInfoListPC@@6B@ 10b306c4     LinkManagerMsg.obj
 0002:000036d8       ??_R3CPMSRegionInfoListPC@@8 10b306d8     LinkManagerMsg.obj
 0002:000036e8       ??_R2CPMSRegionInfoListPC@@8 10b306e8     LinkManagerMsg.obj
 0002:000036f4       ??_R1A@?0A@EA@CPMSRegionInfoListPC@@8 10b306f4     LinkManagerMsg.obj
 0002:00003710       ??_R1A@?0A@EA@IPMSRegionInfoListPC@@8 10b30710     LinkManagerMsg.obj
 0002:0000372c       ??_R3IPMSRegionInfoListPC@@8 10b3072c     LinkManagerMsg.obj
 0002:0000373c       ??_R2IPMSRegionInfoListPC@@8 10b3073c     LinkManagerMsg.obj
 0002:00003744       ??_R4IPMSRegionInfoListPC@@6B@ 10b30744     LinkManagerMsg.obj
 0002:00003758       ??_R4CPMSStatInfoListPC@@6B@ 10b30758     LinkManagerMsg.obj
 0002:0000376c       ??_R3CPMSStatInfoListPC@@8 10b3076c     LinkManagerMsg.obj
 0002:0000377c       ??_R2CPMSStatInfoListPC@@8 10b3077c     LinkManagerMsg.obj
 0002:00003788       ??_R1A@?0A@EA@CPMSStatInfoListPC@@8 10b30788     LinkManagerMsg.obj
 0002:000037a4       ??_R1A@?0A@EA@IPMSStatInfoListPC@@8 10b307a4     LinkManagerMsg.obj
 0002:000037c0       ??_R3IPMSStatInfoListPC@@8 10b307c0     LinkManagerMsg.obj
 0002:000037d0       ??_R2IPMSStatInfoListPC@@8 10b307d0     LinkManagerMsg.obj
 0002:000037d8       ??_R4IPMSStatInfoListPC@@6B@ 10b307d8     LinkManagerMsg.obj
 0002:000037ec       ??_R4GKernelObj@@6B@       10b307ec     GKernelObj.obj
 0002:00003800       ??_R3GKernelObj@@8         10b30800     GKernelObj.obj
 0002:00003810       ??_R2GKernelObj@@8         10b30810     GKernelObj.obj
 0002:0000381c       ??_R1A@?0A@EA@GKernelObj@@8 10b3081c     GKernelObj.obj
 0002:00003838       ??_R1A@?0A@EA@GWaitableObj@@8 10b30838     GKernelObj.obj
 0002:00003854       ??_R3GWaitableObj@@8       10b30854     GKernelObj.obj
 0002:00003864       ??_R2GWaitableObj@@8       10b30864     GKernelObj.obj
 0002:0000386c       ??_R4GWaitableObj@@6B@     10b3086c     GKernelObj.obj
 0002:00003880       ??_R4GSyncObj@@6B@         10b30880     GKernelObj.obj
 0002:00003894       ??_R3GSyncObj@@8           10b30894     GKernelObj.obj
 0002:000038a4       ??_R2GSyncObj@@8           10b308a4     GKernelObj.obj
 0002:000038b4       ??_R1A@?0A@EA@GSyncObj@@8  10b308b4     GKernelObj.obj
 0002:000038d0       ??_R4GSemaphore@@6B@       10b308d0     GKernelObj.obj
 0002:000038e4       ??_R3GSemaphore@@8         10b308e4     GKernelObj.obj
 0002:000038f4       ??_R2GSemaphore@@8         10b308f4     GKernelObj.obj
 0002:00003908       ??_R1A@?0A@EA@GSemaphore@@8 10b30908     GKernelObj.obj
 0002:00003924       ??_R4GMutex@@6B@           10b30924     GKernelObj.obj
 0002:00003938       ??_R3GMutex@@8             10b30938     GKernelObj.obj
 0002:00003948       ??_R2GMutex@@8             10b30948     GKernelObj.obj
 0002:0000395c       ??_R1A@?0A@EA@GMutex@@8    10b3095c     GKernelObj.obj
 0002:00003978       ??_R4GEvent@@6B@           10b30978     GKernelObj.obj
 0002:0000398c       ??_R3GEvent@@8             10b3098c     GKernelObj.obj
 0002:0000399c       ??_R2GEvent@@8             10b3099c     GKernelObj.obj
 0002:000039b0       ??_R1A@?0A@EA@GEvent@@8    10b309b0     GKernelObj.obj
 0002:000039cc       ??_R4GSelector@@6B@        10b309cc     GKernelObj.obj
 0002:000039e0       ??_R3GSelector@@8          10b309e0     GKernelObj.obj
 0002:000039f0       ??_R2GSelector@@8          10b309f0     GKernelObj.obj
 0002:000039f8       ??_R1A@?0A@EA@GSelector@@8 10b309f8     GKernelObj.obj
 0002:00003a14       ??_R4?$pvector@VGSyncObj@@@@6B@ 10b30a14     GKernelObj.obj
 0002:00003a28       ??_R3?$pvector@VGSyncObj@@@@8 10b30a28     GKernelObj.obj
 0002:00003a38       ??_R2?$pvector@VGSyncObj@@@@8 10b30a38     GKernelObj.obj
 0002:00003a50       ??_R1A@?0A@EA@?$pvector@VGSyncObj@@@@8 10b30a50     GKernelObj.obj
 0002:00003a6c       ??_R13?0A@EA@?$vector@PAVGSyncObj@@V?$allocator@PAVGSyncObj@@@std@@@std@@8 10b30a6c     GKernelObj.obj
 0002:00003a88       ??_R3?$vector@PAVGSyncObj@@V?$allocator@PAVGSyncObj@@@std@@@std@@8 10b30a88     GKernelObj.obj
 0002:00003a98       ??_R2?$vector@PAVGSyncObj@@V?$allocator@PAVGSyncObj@@@std@@@std@@8 10b30a98     GKernelObj.obj
 0002:00003aac       ??_R1A@?0A@EA@?$vector@PAVGSyncObj@@V?$allocator@PAVGSyncObj@@@std@@@std@@8 10b30aac     GKernelObj.obj
 0002:00003ac8       ??_R1A@?0A@EA@?$_Vector_val@PAVGSyncObj@@V?$allocator@PAVGSyncObj@@@std@@@std@@8 10b30ac8     GKernelObj.obj
 0002:00003ae4       ??_R3?$_Vector_val@PAVGSyncObj@@V?$allocator@PAVGSyncObj@@@std@@@std@@8 10b30ae4     GKernelObj.obj
 0002:00003af4       ??_R2?$_Vector_val@PAVGSyncObj@@V?$allocator@PAVGSyncObj@@@std@@@std@@8 10b30af4     GKernelObj.obj
 0002:00003b04       ??_R1A@?0A@EA@?$_Container_base_aux_alloc_real@V?$allocator@PAVGSyncObj@@@std@@@std@@8 10b30b04     GKernelObj.obj
 0002:00003b20       ??_R3?$_Container_base_aux_alloc_real@V?$allocator@PAVGSyncObj@@@std@@@std@@8 10b30b20     GKernelObj.obj
 0002:00003b30       ??_R2?$_Container_base_aux_alloc_real@V?$allocator@PAVGSyncObj@@@std@@@std@@8 10b30b30     GKernelObj.obj
 0002:00003b3c       ??_R1A@?0A@EA@_Container_base_aux@std@@8 10b30b3c     GKernelObj.obj
 0002:00003b58       ??_R3_Container_base_aux@std@@8 10b30b58     GKernelObj.obj
 0002:00003b68       ??_R2_Container_base_aux@std@@8 10b30b68     GKernelObj.obj
 0002:00003b70       ??_R13?0A@EA@?$_Vector_val@PAVGSyncObj@@V?$allocator@PAVGSyncObj@@@std@@@std@@8 10b30b70     GKernelObj.obj
 0002:00003b8c       ??_R13?0A@EA@?$_Container_base_aux_alloc_real@V?$allocator@PAVGSyncObj@@@std@@@std@@8 10b30b8c     GKernelObj.obj
 0002:00003ba8       ??_R13?0A@EA@_Container_base_aux@std@@8 10b30ba8     GKernelObj.obj
 0002:00003bc4       ??_R4GSocketEvent@@6B@     10b30bc4     GSocket.obj
 0002:00003bd8       ??_R3GSocketEvent@@8       10b30bd8     GSocket.obj
 0002:00003be8       ??_R2GSocketEvent@@8       10b30be8     GSocket.obj
 0002:00003bfc       ??_R1A@?0A@EA@GSocketEvent@@8 10b30bfc     GSocket.obj
 0002:00003c18       ??_R4GSocket@@6B@          10b30c18     GSocket.obj
 0002:00003c2c       ??_R3GSocket@@8            10b30c2c     GSocket.obj
 0002:00003c3c       ??_R2GSocket@@8            10b30c3c     GSocket.obj
 0002:00003c44       ??_R1A@?0A@EA@GSocket@@8   10b30c44     GSocket.obj
 0002:00003c60       ??_R4GTxtSocket@@6B@       10b30c60     GSocketUtl.obj
 0002:00003c74       ??_R3GTxtSocket@@8         10b30c74     GSocketUtl.obj
 0002:00003c84       ??_R2GTxtSocket@@8         10b30c84     GSocketUtl.obj
 0002:00003c90       ??_R1A@?0A@EA@GTxtSocket@@8 10b30c90     GSocketUtl.obj
 0002:00003cac       ??_R4GBufSocket@@6B@       10b30cac     GSocketUtl.obj
 0002:00003cc0       ??_R3GBufSocket@@8         10b30cc0     GSocketUtl.obj
 0002:00003cd0       ??_R2GBufSocket@@8         10b30cd0     GSocketUtl.obj
 0002:00003cdc       ??_R1A@?0A@EA@GBufSocket@@8 10b30cdc     GSocketUtl.obj
 0002:00003cf8       ??_R4out_of_range@std@@6B@ 10b30cf8     libcpmt:string.obj
 0002:00003d0c       ??_R3out_of_range@std@@8   10b30d0c     libcpmt:string.obj
 0002:00003d1c       ??_R2out_of_range@std@@8   10b30d1c     libcpmt:string.obj
 0002:00003d2c       ??_R1A@?0A@EA@out_of_range@std@@8 10b30d2c     libcpmt:string.obj
 0002:00003d48       ??_R4type_info@@6B@        10b30d48     LIBCMT:typinfo.obj
 0002:00003d5c       ??_R3type_info@@8          10b30d5c     LIBCMT:typinfo.obj
 0002:00003d6c       ??_R2type_info@@8          10b30d6c     LIBCMT:typinfo.obj
 0002:00003d74       ??_R1A@?0A@EA@type_info@@8 10b30d74     LIBCMT:typinfo.obj
 0002:00003d90       ??_R4exception@std@@6B@    10b30d90     LIBCMT:stdexcpt.obj
 0002:00003da4       ??_R4bad_exception@std@@6B@ 10b30da4     LIBCMT:frame.obj
 0002:00003db8       ??_R3bad_exception@std@@8  10b30db8     LIBCMT:frame.obj
 0002:00003dc8       ??_R2bad_exception@std@@8  10b30dc8     LIBCMT:frame.obj
 0002:00003dd4       ??_R1A@?0A@EA@bad_exception@std@@8 10b30dd4     LIBCMT:frame.obj
 0002:00003df0       ___safe_se_handler_table   10b30df0     <linker-defined>
 0002:00003ff4       ___rtc_iaa                 10b30ff4     LIBCMT:_initsect_.obj
 0002:00003ff8       ___rtc_izz                 10b30ff8     LIBCMT:_initsect_.obj
 0002:00003ffc       ___rtc_taa                 10b30ffc     LIBCMT:_initsect_.obj
 0002:00004000       ___rtc_tzz                 10b31000     LIBCMT:_initsect_.obj
 0002:000040d0       __TI2?AVbad_alloc@std@@    10b310d0     ErrorLog.obj
 0002:000040e0       __CTA2?AVbad_alloc@std@@   10b310e0     ErrorLog.obj
 0002:000040ec       __CT??_R0?AVbad_alloc@std@@@8??0bad_alloc@std@@QAE@ABV01@@Z12 10b310ec     ErrorLog.obj
 0002:00004108       __CT??_R0?AVexception@std@@@8??0exception@std@@QAE@ABV01@@Z12 10b31108     ErrorLog.obj
 0002:00004648       __TI3?AVlength_error@std@@ 10b31648     LinkManager.obj
 0002:00004658       __CTA3?AVlength_error@std@@ 10b31658     LinkManager.obj
 0002:00004668       __CT??_R0?AVlength_error@std@@@8??0length_error@std@@QAE@ABV01@@Z40 10b31668     LinkManager.obj
 0002:00004684       __CT??_R0?AVlogic_error@std@@@8??0logic_error@std@@QAE@ABV01@@Z40 10b31684     LinkManager.obj
 0002:00005bdc       __TI3?AVout_of_range@std@@ 10b32bdc     libcpmt:string.obj
 0002:00005c18       __CTA3?AVout_of_range@std@@ 10b32c18     libcpmt:string.obj
 0002:00005c28       __CT??_R0?AVout_of_range@std@@@8??0out_of_range@std@@QAE@ABV01@@Z40 10b32c28     libcpmt:string.obj
 0002:00005e8c       __TI2?AVbad_exception@std@@ 10b32e8c     LIBCMT:frame.obj
 0002:00005e9c       __CTA2?AVbad_exception@std@@ 10b32e9c     LIBCMT:frame.obj
 0002:00005ea8       __CT??_R0?AVbad_exception@std@@@8??0bad_exception@std@@QAE@ABV01@@Z12 10b32ea8     LIBCMT:frame.obj
 0002:00006264       __IMPORT_DESCRIPTOR_KERNEL32 10b33264     kernel32:KERNEL32.dll
 0002:00006278       __IMPORT_DESCRIPTOR_USER32 10b33278     user32:USER32.dll
 0002:0000628c       __IMPORT_DESCRIPTOR_OLEAUT32 10b3328c     oleaut32:OLEAUT32.dll
 0002:000062a0       __IMPORT_DESCRIPTOR_WS2_32 10b332a0     ws2_32:WS2_32.dll
 0002:000062b4       __IMPORT_DESCRIPTOR_BMB    10b332b4     BMB:BMB.dll
 0002:000062c8       __IMPORT_DESCRIPTOR_BDBG   10b332c8     BDBG:BDBG.dll
 0002:000062dc       __NULL_IMPORT_DESCRIPTOR   10b332dc     kernel32:KERNEL32.dll
 0003:00000000       ??_R0?AVbad_alloc@std@@@8  10b34000     ErrorLog.obj
 0003:0000001c       ??_R0?AVexception@std@@@8  10b3401c     ErrorLog.obj
 0003:00000038       ??_R0?AVCLinkManager@@@8   10b34038     LinkManager.obj
 0003:00000058       ??_R0?AV?$AdlSocketSingleT@VGSocketHandler@@VGBufSocket@@VPayloadGS@@@@@8 10b34058     LinkManager.obj
 0003:000000a8       ??_R0?AV?$AdlSocketDispatcherImplT@V?$BufSocketSingleT@VGSocketHandler@@VGBufSocket@@@@VPayloadGS@@@@@8 10b340a8     LinkManager.obj
 0003:00000118       ??_R0?AV?$BufSocketSingleT@VGSocketHandler@@VGBufSocket@@@@@8 10b34118     LinkManager.obj
 0003:00000158       ??_R0?AV?$BufSocketDispatcherImplT@V?$SocketSingleT@VGSocketHandler@@VGBufSocket@@@@@@@8 10b34158     LinkManager.obj
 0003:000001b4       ??_R0?AV?$SocketSingleT@VGSocketHandler@@VGBufSocket@@@@@8 10b341b4     LinkManager.obj
 0003:000001f8       ??_R0?AV?$SocketDispatcherT@VGSocketHandler@@VGBufSocket@@@@@8 10b341f8     LinkManager.obj
 0003:0000023c       ??_R0?AVGSocketHandler@@@8 10b3423c     LinkManager.obj
 0003:0000025c       ??_R0?AVGSafeBufQ@@@8      10b3425c     LinkManager.obj
 0003:00000274       ??_R0?AVPMSUnitID@@@8      10b34274     LinkManager.obj
 0003:0000028c       ??_R0?AVlength_error@std@@@8 10b3428c     LinkManager.obj
 0003:000002ac       ??_R0?AVlogic_error@std@@@8 10b342ac     LinkManager.obj
 0003:000002cc       ??_R0?AVPMSRegionInfo@@@8  10b342cc     LinkManagerMsg.obj
 0003:000002e8       ??_R0?AVPMSStatBase@@@8    10b342e8     LinkManagerMsg.obj
 0003:00000304       ??_R0?AVCPMSPerformanceInfo@@@8 10b34304     LinkManagerMsg.obj
 0003:00000328       ??_R0?AUIPMSPerformanceInfo@@@8 10b34328     LinkManagerMsg.obj
 0003:0000034c       ??_R0?AVCPMSRegionInfoList@@@8 10b3434c     LinkManagerMsg.obj
 0003:00000370       ??_R0?AUIPMSRegionInfoList@@@8 10b34370     LinkManagerMsg.obj
 0003:00000394       ??_R0?AVCPMSStatInfoList@@@8 10b34394     LinkManagerMsg.obj
 0003:000003b4       ??_R0?AUIPMSStatInfoList@@@8 10b343b4     LinkManagerMsg.obj
 0003:000003d4       ??_R0?AVCPMSRegionInfoListPC@@@8 10b343d4     LinkManagerMsg.obj
 0003:000003f8       ??_R0?AUIPMSRegionInfoListPC@@@8 10b343f8     LinkManagerMsg.obj
 0003:0000041c       ??_R0?AVCPMSStatInfoListPC@@@8 10b3441c     LinkManagerMsg.obj
 0003:00000440       ??_R0?AUIPMSStatInfoListPC@@@8 10b34440     LinkManagerMsg.obj
 0003:00000468       ??_R0?AVGKernelObj@@@8     10b34468     GKernelObj.obj
 0003:00000484       ??_R0?AVGWaitableObj@@@8   10b34484     GKernelObj.obj
 0003:000004a0       ??_R0?AVGSyncObj@@@8       10b344a0     GKernelObj.obj
 0003:000004b8       ??_R0?AVGSemaphore@@@8     10b344b8     GKernelObj.obj
 0003:000004d4       ??_R0?AVGMutex@@@8         10b344d4     GKernelObj.obj
 0003:000004ec       ??_R0?AVGEvent@@@8         10b344ec     GKernelObj.obj
 0003:00000504       ??_R0?AVGSelector@@@8      10b34504     GKernelObj.obj
 0003:0000051c       ??_R0?AV?$pvector@VGSyncObj@@@@@8 10b3451c     GKernelObj.obj
 0003:00000540       ??_R0?AV?$vector@PAVGSyncObj@@V?$allocator@PAVGSyncObj@@@std@@@std@@@8 10b34540     GKernelObj.obj
 0003:00000590       ??_R0?AV?$_Vector_val@PAVGSyncObj@@V?$allocator@PAVGSyncObj@@@std@@@std@@@8 10b34590     GKernelObj.obj
 0003:000005e0       ??_R0?AV?$_Container_base_aux_alloc_real@V?$allocator@PAVGSyncObj@@@std@@@std@@@8 10b345e0     GKernelObj.obj
 0003:00000634       ??_R0?AV_Container_base_aux@std@@@8 10b34634     GKernelObj.obj
 0003:0000065c       ??_R0?AVGSocketEvent@@@8   10b3465c     GSocket.obj
 0003:00000678       ??_R0?AVGSocket@@@8        10b34678     GSocket.obj
 0003:00000690       ??_R0?AVGTxtSocket@@@8     10b34690     GSocketUtl.obj
 0003:000006ac       ??_R0?AVGBufSocket@@@8     10b346ac     GSocketUtl.obj
 0003:000006cc       ??_R0?AVout_of_range@std@@@8 10b346cc     libcpmt:string.obj
 0003:000006f0       ___security_cookie         10b346f0     LIBCMT:gs_cookie.obj
 0003:000006f4       ___security_cookie_complement 10b346f4     LIBCMT:gs_cookie.obj
 0003:00000708       ??_R0?AVtype_info@@@8      10b34708     LIBCMT:typinfo.obj
 0003:00000730       __fltused                  10b34730     LIBCMT:_fpinit_.obj
 0003:00000734       __ldused                   10b34734     LIBCMT:_fpinit_.obj
 0003:00000740       ___nullstring              10b34740     LIBCMT:output.obj
 0003:00000744       ___wnullstring             10b34744     LIBCMT:output.obj
 0003:000008bc       ??_R0?AVbad_exception@std@@@8 10b348bc     LIBCMT:frame.obj
 0003:000008dc       ___flsindex                10b348dc     LIBCMT:tidtable.obj
 0003:000008e0       ___getvalueindex           10b348e0     LIBCMT:tidtable.obj
 0003:000008f0       __iob                      10b348f0     LIBCMT:_file.obj
 0003:00000b70       ___badioinfo               10b34b70     LIBCMT:ioinit.obj
 0003:00000bc0       __aexit_rtn                10b34bc0     LIBCMT:crt0dat.obj
 0003:00000bc8       ___initialmbcinfo          10b34bc8     LIBCMT:mbctype.obj
 0003:00000de8       __mbctype                  10b34de8     LIBCMT:mbctype.obj
 0003:00000ef0       __mbcasemap                10b34ef0     LIBCMT:mbctype.obj
 0003:00000ff0       ___ptmbcinfo               10b34ff0     LIBCMT:mbctype.obj
 0003:000010ec       ___globallocalestatus      10b350ec     LIBCMT:glstatus.obj
 0003:000010f0       ___clocalestr              10b350f0     LIBCMT:nlsdata2.obj
 0003:000010f8       ___initiallocinfo          10b350f8     LIBCMT:nlsdata2.obj
 0003:000011d0       ___ptlocinfo               10b351d0     LIBCMT:nlsdata2.obj
 0003:000011d4       ___lc_clike                10b351d4     LIBCMT:nlsdata2.obj
 0003:000011d8       ___initiallocalestructinfo 10b351d8     LIBCMT:nlsdata2.obj
 0003:000011e0       ___abort_behavior          10b351e0     LIBCMT:abort.obj
 0003:000012a0       __First_FPE_Indx           10b352a0     LIBCMT:winxfltr.obj
 0003:000012a4       __Num_FPE                  10b352a4     LIBCMT:winxfltr.obj
 0003:000012a8       __XcptActTabSize           10b352a8     LIBCMT:winxfltr.obj
 0003:000012ac       __XcptActTabCount          10b352ac     LIBCMT:winxfltr.obj
 0003:000012b0       __cfltcvt_tab              10b352b0     LIBCMT:cmiscdat.obj
 0003:000013f8       __amblksiz                 10b353f8     LIBCMT:heapinit.obj
 0003:00001400       __NLG_Destination          10b35400     LIBCMT:exsup.obj
 0003:00001410       __pctype                   10b35410     LIBCMT:ctype.obj
 0003:00001414       __pwctype                  10b35414     LIBCMT:ctype.obj
 0003:00001418       ___lc_time_c               10b35418     LIBCMT:strftime.obj
 0003:000014d0       ___lc_time_curr            10b354d0     LIBCMT:strftime.obj
 0003:000014d4       ___lconv_static_decimal    10b354d4     LIBCMT:lconv.obj
 0003:000014d8       ___lconv_c                 10b354d8     LIBCMT:lconv.obj
 0003:00001508       ___lconv                   10b35508     LIBCMT:lconv.obj
 0003:0000150c       ___mb_cur_max              10b3550c     LIBCMT:nlsdata1.obj
 0003:00001510       ___decimal_point           10b35510     LIBCMT:nlsdata1.obj
 0003:00001514       ___decimal_point_length    10b35514     LIBCMT:nlsdata1.obj
 0003:00001528       __lookuptrailbytes         10b35528     LIBCMT:read.obj
 0003:00001628       __timezone                 10b35628     LIBCMT:timeset.obj
 0003:0000162c       __daylight                 10b3562c     LIBCMT:timeset.obj
 0003:00001630       __dstbias                  10b35630     LIBCMT:timeset.obj
 0003:000016b8       __tzname                   10b356b8     LIBCMT:timeset.obj
 0003:00001708       __coninpfh                 10b35708     LIBCMT:initcon.obj
 0003:0000170c       __confh                    10b3570c     LIBCMT:initcon.obj
 0003:00001710       __lpdays                   10b35710     LIBCMT:days.obj
 0003:00001744       __days                     10b35744     LIBCMT:days.obj
 0003:00001778       __pow10pos                 10b35778     LIBCMT:_constpow_.obj
 0003:000018d8       __pow10neg                 10b358d8     LIBCMT:_constpow_.obj
 0003:00001a60       ?theErr@@3VCErrorLog@@A    10b35a60     ErrorLog.obj
 0003:00001be8       ?g_linkMgr@@3VCLinkManager@@A 10b35be8     LinkManager.obj
 0003:00001cbc       ___pInvalidArgHandler      10b35cbc     LIBCMT:invarg.obj
 0003:00001cc0       ___fastflag                10b35cc0     LIBCMT:_fpinit_.obj
 0003:00001cc4       __adjust_fdiv              10b35cc4     LIBCMT:_fpinit_.obj
 0003:00001ccc       __aenvptr                  10b35ccc     LIBCMT:dllcrt0.obj
 0003:00001cd0       __wenvptr                  10b35cd0     LIBCMT:dllcrt0.obj
 0003:00001cd4       ___error_mode              10b35cd4     LIBCMT:dllcrt0.obj
 0003:00001cd8       ___app_type                10b35cd8     LIBCMT:dllcrt0.obj
 0003:00001cdc       _gpFlsAlloc                10b35cdc     LIBCMT:tidtable.obj
 0003:00001ce0       _gpFlsGetValue             10b35ce0     LIBCMT:tidtable.obj
 0003:00001ce4       _gpFlsSetValue             10b35ce4     LIBCMT:tidtable.obj
 0003:00001ce8       _gpFlsFree                 10b35ce8     LIBCMT:tidtable.obj
 0003:00001cec       ?__pInconsistency@@3P6AXXZA 10b35cec     LIBCMT:hooks.obj
 0003:00002014       __cflush                   10b36014     LIBCMT:_file.obj
 0003:00002018       __stdbuf                   10b36018     LIBCMT:_sftbuf.obj
 0003:00002020       ?_pnhHeap@@3P6AHI@ZA       10b36020     LIBCMT:handler.obj
 0003:0000202c       __maxwait                  10b3602c     LIBCMT:crtheap.obj
 0003:00002030       __umaskval                 10b36030     LIBCMT:crt0dat.obj
 0003:00002034       ___argc                    10b36034     LIBCMT:crt0dat.obj
 0003:00002038       ___argv                    10b36038     LIBCMT:crt0dat.obj
 0003:0000203c       ___wargv                   10b3603c     LIBCMT:crt0dat.obj
 0003:00002040       __environ                  10b36040     LIBCMT:crt0dat.obj
 0003:00002044       ___initenv                 10b36044     LIBCMT:crt0dat.obj
 0003:00002048       __wenviron                 10b36048     LIBCMT:crt0dat.obj
 0003:0000204c       ___winitenv                10b3604c     LIBCMT:crt0dat.obj
 0003:00002050       __pgmptr                   10b36050     LIBCMT:crt0dat.obj
 0003:00002054       __wpgmptr                  10b36054     LIBCMT:crt0dat.obj
 0003:00002058       __exitflag                 10b36058     LIBCMT:crt0dat.obj
 0003:0000205c       __C_Termination_Done       10b3605c     LIBCMT:crt0dat.obj
 0003:00002060       __C_Exit_Done              10b36060     LIBCMT:crt0dat.obj
 0003:00002068       ___mbulinfo                10b36068     LIBCMT:mbctype.obj
 0003:00002074       ___mbcodepage              10b36074     LIBCMT:mbctype.obj
 0003:00002078       ___ismbcodepage            10b36078     LIBCMT:mbctype.obj
 0003:0000207c       ___mblcid                  10b3607c     LIBCMT:mbctype.obj
 0003:00002080       ___locale_changed          10b36080     LIBCMT:setlocal.obj
 0003:00002084       ___lc_handle               10b36084     LIBCMT:nlsdata2.obj
 0003:0000209c       ___lc_codepage             10b3609c     LIBCMT:nlsdata2.obj
 0003:000020a0       ___lc_collate_cp           10b360a0     LIBCMT:nlsdata2.obj
 0003:000023c4       ___pPurecall               10b363c4     LIBCMT:inithelp.obj
 0003:00002518       ___sbh_pHeaderDefer        10b36518     LIBCMT:sbheap.obj
 0003:0000251c       __crtheap                  10b3651c     LIBCMT:heapinit.obj
 0003:00002520       __newmode                  10b36520     LIBCMT:_newmode.obj
 0003:00002638       __commode                  10b36638     LIBCMT:ncommode.obj
 0003:00002650       ?pArgList@UnDecorator@@0PAVReplicator@@A 10b36650     LIBCMT:undname.obj
 0003:00002654       ?pZNameList@UnDecorator@@0PAVReplicator@@A 10b36654     LIBCMT:undname.obj
 0003:00002658       ?pTemplateArgList@UnDecorator@@0PAVReplicator@@A 10b36658     LIBCMT:undname.obj
 0003:0000265c       ?gName@UnDecorator@@0PBDB  10b3665c     LIBCMT:undname.obj
 0003:00002660       ?name@UnDecorator@@0PBDB   10b36660     LIBCMT:undname.obj
 0003:00002664       ?outputString@UnDecorator@@0PADA 10b36664     LIBCMT:undname.obj
 0003:00002668       ?maxStringLength@UnDecorator@@0HA 10b36668     LIBCMT:undname.obj
 0003:0000266c       ?disableFlags@UnDecorator@@0KA 10b3666c     LIBCMT:undname.obj
 0003:00002670       ?m_pGetParameter@UnDecorator@@0P6APADJ@ZA 10b36670     LIBCMT:undname.obj
 0003:00002674       ?fExplicitTemplateParams@UnDecorator@@0_NA 10b36674     LIBCMT:undname.obj
 0003:00002675       ?fGetTemplateArgumentList@UnDecorator@@0_NA 10b36675     LIBCMT:undname.obj
 0003:00002694       ___lconv_static_null       10b36694     LIBCMT:lconv.obj
 0003:000026ac       __outputformat             10b366ac     LIBCMT:outputformat.obj
 0003:00002768       __fmode                    10b36768     LIBCMT:txtmode.obj
 0003:0000276c       ___active_heap             10b3676c     <common>
 0003:00002770       ___sbh_cntHeaderList       10b36770     <common>
 0003:00002774       ___sbh_pHeaderList         10b36774     <common>
 0003:00002778       ___sbh_threshold           10b36778     <common>
 0003:0000277c       ___sbh_pHeaderScan         10b3677c     <common>
 0003:00002780       ___sbh_sizeHeaderList      10b36780     <common>
 0003:00002784       ___sbh_indGroupDefer       10b36784     <common>
 0003:00002788       __debugger_hook_dummy      10b36788     <common>
 0003:0000278c       ___env_initialized         10b3678c     <common>
 0003:00002790       ___onexitend               10b36790     <common>
 0003:00002794       ___onexitbegin             10b36794     <common>
 0003:00002798       ___mbctype_initialized     10b36798     <common>
 0003:0000279c       ___dyn_tls_init_callback   10b3679c     <common>
 0003:000027a0       __nhandle                  10b367a0     <common>
 0003:000027c0       ___pioinfo                 10b367c0     <common>
 0003:000028c0       ___piob                    10b368c0     <common>
 0003:000028e0       __bufin                    10b368e0     <common>
 0003:000038e0       __nstream                  10b378e0     <common>
 0003:000038e4       ___sse2_available          10b378e4     <common>
 0003:000038e8       __acmdln                   10b378e8     <common>

 entry point at        0001:0001a5d3

 Static symbols

 0001:00000bd8       __catch$?_Copy@?$basic_string@DU?$char_traits@D@std@@V?$allocator@D@2@@std@@IAEXII@Z$0 10b01bd8 f i ErrorLog.obj
 0001:00000bff       __catch$?_Copy@?$basic_string@DU?$char_traits@D@std@@V?$allocator@D@2@@std@@IAEXII@Z$1 10b01bff f i ErrorLog.obj
 0001:000047dc       __catch$?_Insert_n@?$vector@VPMSNSAP@@V?$allocator@VPMSNSAP@@@std@@@std@@IAEXV?$_Vector_const_iterator@VPMSNSAP@@V?$allocator@VPMSNSAP@@@std@@@2@IABVPMSNSAP@@@Z$0 10b057dc f i LinkManager.obj
 0001:00004937       __catch$?_Insert_n@?$vector@VPMSNSAP@@V?$allocator@VPMSNSAP@@@std@@@std@@IAEXV?$_Vector_const_iterator@VPMSNSAP@@V?$allocator@VPMSNSAP@@@std@@@2@IABVPMSNSAP@@@Z$2 10b05937 f i LinkManager.obj
 0001:00006e55       __catch$??$_Uninit_fill_n@PAVPMSNSAP@@IV1@V?$allocator@VPMSNSAP@@@std@@@std@@YAXPAVPMSNSAP@@IABV1@AAV?$allocator@VPMSNSAP@@@0@U_Nonscalar_ptr_iterator_tag@0@U_Range_checked_iterator_tag@0@@Z$0 10b07e55 f i LinkManager.obj
 0001:000075e7       __catch$??$_Uninit_copy@PAVPMSNSAP@@PAV1@V?$allocator@VPMSNSAP@@@std@@@std@@YAPAVPMSNSAP@@PAV1@00AAV?$allocator@VPMSNSAP@@@0@U_Nonscalar_ptr_iterator_tag@0@U_Range_checked_iterator_tag@0@@Z$0 10b085e7 f i LinkManager.obj
 0001:00007a3c       __catch$?_Buynode@?$list@VGBuf@@V?$allocator@VGBuf@@@std@@@std@@IAEPAU_Node@?$_List_nod@VGBuf@@V?$allocator@VGBuf@@@std@@@2@XZ$0 10b08a3c f i LinkManager.obj
 0001:00009df8       __catch$?_Insert_n@?$vector@VPMSStatBase@@V?$allocator@VPMSStatBase@@@std@@@std@@IAEXV?$_Vector_const_iterator@VPMSStatBase@@V?$allocator@VPMSStatBase@@@std@@@2@IABVPMSStatBase@@@Z$0 10b0adf8 f i LinkManagerMsg.obj
 0001:00009f98       __catch$?_Insert_n@?$vector@VPMSStatBase@@V?$allocator@VPMSStatBase@@@std@@@std@@IAEXV?$_Vector_const_iterator@VPMSStatBase@@V?$allocator@VPMSStatBase@@@std@@@2@IABVPMSStatBase@@@Z$2 10b0af98 f i LinkManagerMsg.obj
 0001:0000a39c       __catch$?_Insert_n@?$vector@VPMSRegionInfo@@V?$allocator@VPMSRegionInfo@@@std@@@std@@IAEXV?$_Vector_const_iterator@VPMSRegionInfo@@V?$allocator@VPMSRegionInfo@@@std@@@2@IABVPMSRegionInfo@@@Z$0 10b0b39c f i LinkManagerMsg.obj
 0001:0000a50c       __catch$?_Insert_n@?$vector@VPMSRegionInfo@@V?$allocator@VPMSRegionInfo@@@std@@@std@@IAEXV?$_Vector_const_iterator@VPMSRegionInfo@@V?$allocator@VPMSRegionInfo@@@std@@@2@IABVPMSRegionInfo@@@Z$2 10b0b50c f i LinkManagerMsg.obj
 0001:0000b265       __catch$??$_Uninit_fill_n@PAVPMSStatBase@@IV1@V?$allocator@VPMSStatBase@@@std@@@std@@YAXPAVPMSStatBase@@IABV1@AAV?$allocator@VPMSStatBase@@@0@U_Nonscalar_ptr_iterator_tag@0@U_Range_checked_iterator_tag@0@@Z$0 10b0c265 f i LinkManagerMsg.obj
 0001:0000b325       __catch$??$_Uninit_fill_n@PAVPMSRegionInfo@@IV1@V?$allocator@VPMSRegionInfo@@@std@@@std@@YAXPAVPMSRegionInfo@@IABV1@AAV?$allocator@VPMSRegionInfo@@@0@U_Nonscalar_ptr_iterator_tag@0@U_Range_checked_iterator_tag@0@@Z$0 10b0c325 f i LinkManagerMsg.obj
 0001:0000bab8       __catch$??$_Insert@V?$_Vector_iterator@JV?$allocator@J@std@@@std@@@?$vector@JV?$allocator@J@std@@@std@@QAEXV?$_Vector_const_iterator@JV?$allocator@J@std@@@1@V?$_Vector_iterator@JV?$allocator@J@std@@@1@1Uforward_iterator_tag@1@@Z$0 10b0cab8 f i LinkManagerMsg.obj
 0001:0000bd58       __catch$??$_Insert@PAJ@?$vector@JV?$allocator@J@std@@@std@@QAEXV?$_Vector_const_iterator@JV?$allocator@J@std@@@1@PAJ1Uforward_iterator_tag@1@@Z$0 10b0cd58 f i LinkManagerMsg.obj
 0001:0000c1a7       __catch$??$_Uninit_copy@PAVPMSStatBase@@PAV1@V?$allocator@VPMSStatBase@@@std@@@std@@YAPAVPMSStatBase@@PAV1@00AAV?$allocator@VPMSStatBase@@@0@U_Nonscalar_ptr_iterator_tag@0@U_Range_checked_iterator_tag@0@@Z$0 10b0d1a7 f i LinkManagerMsg.obj
 0001:0000c2d7       __catch$??$_Uninit_copy@PAVPMSRegionInfo@@PAV1@V?$allocator@VPMSRegionInfo@@@std@@@std@@YAPAVPMSRegionInfo@@PAV1@00AAV?$allocator@VPMSRegionInfo@@@0@U_Nonscalar_ptr_iterator_tag@0@U_Range_checked_iterator_tag@0@@Z$0 10b0d2d7 f i LinkManagerMsg.obj
 0001:0000c6b7       __catch$?_Buynode@?$list@VGBuf@@V?$allocator@VGBuf@@@std@@@std@@IAEPAU_Node@?$_List_nod@VGBuf@@V?$allocator@VGBuf@@@std@@@2@PAU342@0ABVGBuf@@@Z$0 10b0d6b7 f i LinkManagerMsg.obj
 0001:0000ef08       __catch$?_Copy@?$basic_string@GU?$char_traits@G@std@@V?$allocator@G@2@@std@@IAEXII@Z$0 10b0ff08 f i GAdlUtl.obj
 0001:0000ef2f       __catch$?_Copy@?$basic_string@GU?$char_traits@G@std@@V?$allocator@G@2@@std@@IAEXII@Z$1 10b0ff2f f i GAdlUtl.obj
 0001:00010c9c       __catch$?_Insert_n@?$vector@PAVGSyncObj@@V?$allocator@PAVGSyncObj@@@std@@@std@@IAEXV?$_Vector_const_iterator@PAVGSyncObj@@V?$allocator@PAVGSyncObj@@@std@@@2@IABQAVGSyncObj@@@Z$0 10b11c9c f i GKernelObj.obj
 0001:00010c9c       __catch$?_Insert_n@?$vector@JV?$allocator@J@std@@@std@@IAEXV?$_Vector_const_iterator@JV?$allocator@J@std@@@2@IABJ@Z$0 10b11c9c f i GKernelObj.obj
 0001:00010c9c       __catch$?_Insert_n@?$vector@PAXV?$allocator@PAX@std@@@std@@IAEXV?$_Vector_const_iterator@PAXV?$allocator@PAX@std@@@2@IABQAX@Z$0 10b11c9c f i GKernelObj.obj
 0001:00010df3       __catch$?_Insert_n@?$vector@JV?$allocator@J@std@@@std@@IAEXV?$_Vector_const_iterator@JV?$allocator@J@std@@@2@IABJ@Z$2 10b11df3 f i GKernelObj.obj
 0001:00010df3       __catch$?_Insert_n@?$vector@PAVGSyncObj@@V?$allocator@PAVGSyncObj@@@std@@@std@@IAEXV?$_Vector_const_iterator@PAVGSyncObj@@V?$allocator@PAVGSyncObj@@@std@@@2@IABQAVGSyncObj@@@Z$2 10b11df3 f i GKernelObj.obj
 0001:00010df3       __catch$?_Insert_n@?$vector@PAXV?$allocator@PAX@std@@@std@@IAEXV?$_Vector_const_iterator@PAXV?$allocator@PAX@std@@@2@IABQAX@Z$2 10b11df3 f i GKernelObj.obj
 0001:00016a1d       ?CatchGuardHandler@@YA?AW4_EXCEPTION_DISPOSITION@@PAUEHExceptionRecord@@PAUCatchGuardRN@@PAX2@Z 10b17a1d f   LIBCMT:_trnsctrl_.obj
 0001:00016b27       ?TranslatorGuardHandler@@YA?AW4_EXCEPTION_DISPOSITION@@PAUEHExceptionRecord@@PAUTranslatorGuardRN@@PAX2@Z 10b17b27 f   LIBCMT:_trnsctrl_.obj
 0001:00018d4f       __onexit_nolock            10b19d4f f   LIBCMT:onexit.obj
 0001:00019200       __callthreadstartex        10b1a200 f   LIBCMT:threadex.obj
 0001:00019241       __threadstartex@4          10b1a241 f   LIBCMT:threadex.obj
 0001:0001a4dd       ___DllMainCRTStartup       10b1b4dd f   LIBCMT:dllcrt0.obj
 0001:0001a7c3       _write_char                10b1b7c3 f   LIBCMT:output.obj
 0001:0001a7c3       _write_char                10b1b7c3 f   LIBCMT:output.obj
 0001:0001a7f6       _write_multi_char          10b1b7f6 f   LIBCMT:output.obj
 0001:0001a7f6       _write_multi_char          10b1b7f6 f   LIBCMT:output.obj
 0001:0001a81c       _write_string              10b1b81c f   LIBCMT:output.obj
 0001:0001a81c       _write_string              10b1b81c f   LIBCMT:output.obj
 0001:0001b48c       _fastzero_I                10b1c48c f   LIBCMT:p4_memset.obj
 0001:0001b572       _has_osfxsr_set            10b1c572 f   LIBCMT:cpu_disp.obj
 0001:0001b80a       ?ExFilterRethrow@@YAHPAU_EXCEPTION_POINTERS@@@Z 10b1c80a f   LIBCMT:frame.obj
 0001:0001b8cd       ?IsInExceptionSpec@@YAEPAUEHExceptionRecord@@PBU_s_ESTypeList@@@Z 10b1c8cd f   LIBCMT:frame.obj
 0001:0001b948       ?CallUnexpected@@YAXPBU_s_ESTypeList@@@Z 10b1c948 f   LIBCMT:frame.obj
 0001:0001b979       __catch$?CallUnexpected@@YAXPBU_s_ESTypeList@@@Z$0 10b1c979 f   LIBCMT:frame.obj
 0001:0001b991       ?CallCatchBlock@@YAPAXPAUEHExceptionRecord@@PAUEHRegistrationNode@@PAU_CONTEXT@@PBU_s_FuncInfo@@PAXHK@Z 10b1c991 f   LIBCMT:frame.obj
 0001:0001bd3e       ?CatchIt@@YAXPAUEHExceptionRecord@@PAUEHRegistrationNode@@PAU_CONTEXT@@PAXPBU_s_FuncInfo@@PBU_s_HandlerType@@PBU_s_CatchableType@@PBU_s_TryBlockMapEntry@@H1E@Z 10b1cd3e f   LIBCMT:frame.obj
 0001:0001bdac       ?FindHandlerForForeignException@@YAXPAUEHExceptionRecord@@PAUEHRegistrationNode@@PAU_CONTEXT@@PAXPBU_s_FuncInfo@@HH1@Z 10b1cdac f   LIBCMT:frame.obj
 0001:0001bea0       ?FindHandler@@YAXPAUEHExceptionRecord@@PAUEHRegistrationNode@@PAU_CONTEXT@@PAXPBU_s_FuncInfo@@EH1@Z 10b1cea0 f   LIBCMT:frame.obj
 0001:0001cd9e       _flsall                    10b1dd9e f   LIBCMT:fflush.obj
 0001:0001da30       __unwind_handler4          10b1ea30 f   LIBCMT:exsup4.obj
 0001:0001e6c3       ?strtoxl@@YAKPAUlocaleinfo_struct@@PBDPAPBDHH@Z 10b1f6c3 f   LIBCMT:strtol.obj
 0001:0001ef65       __initterm                 10b1ff65 f   LIBCMT:crt0dat.obj
 0001:0001f02b       _doexit                    10b2002b f   LIBCMT:crt0dat.obj
 0001:0001f1ca       ?CPtoLCID@@YAHH@Z          10b201ca f   LIBCMT:mbctype.obj
 0001:0001f1f9       ?setSBCS@@YAXPAUthreadmbcinfostruct@@@Z 10b201f9 f   LIBCMT:mbctype.obj
 0001:0001f25d       ?setSBUpLow@@YAXPAUthreadmbcinfostruct@@@Z 10b2025d f   LIBCMT:mbctype.obj
 0001:0001f494       ?getSystemCP@@YAHH@Z       10b20494 f   LIBCMT:mbctype.obj
 0001:0001fb1e       __updatetlocinfoEx_nolock  10b20b1e f   LIBCMT:setlocal.obj
 0001:00020275       _fastcopy_I                10b21275 f   LIBCMT:p4_memcpy.obj
 0001:0002054c       __shift                    10b2154c f   LIBCMT:cvt.obj
 0001:00020591       __cftoe2_l                 10b21591 f   LIBCMT:cvt.obj
 0001:00020b63       __cftof2_l                 10b21b63 f   LIBCMT:cvt.obj
 0001:00021cbb       _write_char                10b22cbb f   LIBCMT:woutput.obj
 0001:00021cea       _write_multi_char          10b22cea f   LIBCMT:woutput.obj
 0001:00021d11       _write_string              10b22d11 f   LIBCMT:woutput.obj
 0001:0002291b       ?__crtLCMapStringA_stat@@YAHPAUlocaleinfo_struct@@KKPBDHPADHHH@Z 10b2391b f   LIBCMT:a_map.obj
 0001:00022fc7       _parse_cmdline             10b23fc7 f   LIBCMT:stdargv.obj
 0001:000240e8       __unwind_handler           10b250e8 f   LIBCMT:exsup.obj
 0001:000247cd       __tsopen_nolock            10b257cd f   LIBCMT:open.obj
 0001:0002573b       _siglookup                 10b2673b f   LIBCMT:winsig.obj
 0001:0002593e       ?__crtGetStringTypeA_stat@@YAHPAUlocaleinfo_struct@@KPBDHPAGHHH@Z 10b2693e f   LIBCMT:a_str.obj
 0001:00026be7       ?x_ismbbtype_l@@YAHPAUlocaleinfo_struct@@IHH@Z 10b27be7 f   LIBCMT:ismbbyte.obj
 0001:000291ed       __hw_cw                    10b2a1ed f   LIBCMT:_ieee87_.obj
 0001:0002927b       ___hw_cw_sse2              10b2a27b f   LIBCMT:_ieee87_.obj
 0001:00029aa0       __unwindfunclet$??0CErrorLog@@QAE@XZ$0 10b2aaa0 f   ErrorLog.obj
 0001:00029aae       __unwindfunclet$??0CErrorLog@@QAE@XZ$1 10b2aaae f   ErrorLog.obj
 0001:00029ab6       __unwindfunclet$??0CErrorLog@@QAE@XZ$2 10b2aab6 f   ErrorLog.obj
 0001:00029abe       __ehhandler$??0CErrorLog@@QAE@XZ 10b2aabe f   ErrorLog.obj
 0001:00029af0       __ehhandler$?_Copy@?$basic_string@DU?$char_traits@D@std@@V?$allocator@D@2@@std@@IAEXII@Z 10b2aaf0 f   ErrorLog.obj
 0001:00029b10       __unwindfunclet$?GetExecuteFileName@@YAXPAD@Z$0 10b2ab10 f   LinkManager.obj
 0001:00029b1b       __unwindfunclet$?GetExecuteFileName@@YAXPAD@Z$1 10b2ab1b f   LinkManager.obj
 0001:00029b26       __ehhandler$?GetExecuteFileName@@YAXPAD@Z 10b2ab26 f   LinkManager.obj
 0001:00029b4e       __unwindfunclet$??0CLinkManager@@QAE@XZ$0 10b2ab4e f   LinkManager.obj
 0001:00029b56       __unwindfunclet$??0CLinkManager@@QAE@XZ$1 10b2ab56 f   LinkManager.obj
 0001:00029b61       __unwindfunclet$??0CLinkManager@@QAE@XZ$2 10b2ab61 f   LinkManager.obj
 0001:00029b6c       __ehhandler$??0CLinkManager@@QAE@XZ 10b2ab6c f   LinkManager.obj
 0001:00029b87       __unwindfunclet$??1CLinkManager@@UAE@XZ$0 10b2ab87 f   LinkManager.obj
 0001:00029b8f       __unwindfunclet$??1CLinkManager@@UAE@XZ$1 10b2ab8f f   LinkManager.obj
 0001:00029b9a       __unwindfunclet$??1CLinkManager@@UAE@XZ$2 10b2ab9a f   LinkManager.obj
 0001:00029ba5       __ehhandler$??1CLinkManager@@UAE@XZ 10b2aba5 f   LinkManager.obj
 0001:00029bc0       __unwindfunclet$?Stop@CLinkManager@@QAEXXZ$1 10b2abc0 f   LinkManager.obj
 0001:00029bc8       __ehhandler$?Stop@CLinkManager@@QAEXXZ 10b2abc8 f   LinkManager.obj
 0001:00029be3       __unwindfunclet$?Init@CLinkManager@@QAEKHQAPAD@Z$0 10b2abe3 f   LinkManager.obj
 0001:00029beb       __ehhandler$?Init@CLinkManager@@QAEKHQAPAD@Z 10b2abeb f   LinkManager.obj
 0001:00029c06       __unwindfunclet$?TryConnectToHA@CLinkManager@@AAEXXZ$1 10b2ac06 f   LinkManager.obj
 0001:00029c14       __unwindfunclet$?TryConnectToHA@CLinkManager@@AAEXXZ$2 10b2ac14 f   LinkManager.obj
 0001:00029c1c       __unwindfunclet$?TryConnectToHA@CLinkManager@@AAEXXZ$4 10b2ac1c f   LinkManager.obj
 0001:00029c24       __unwindfunclet$?TryConnectToHA@CLinkManager@@AAEXXZ$5 10b2ac24 f   LinkManager.obj
 0001:00029c2c       __unwindfunclet$?TryConnectToHA@CLinkManager@@AAEXXZ$6 10b2ac2c f   LinkManager.obj
 0001:00029c37       __ehhandler$?TryConnectToHA@CLinkManager@@AAEXXZ 10b2ac37 f   LinkManager.obj
 0001:00029c5f       __unwindfunclet$?Main@CLinkManager@@QAEKXZ$0 10b2ac5f f   LinkManager.obj
 0001:00029c67       __ehhandler$?Main@CLinkManager@@QAEKXZ 10b2ac67 f   LinkManager.obj
 0001:00029c82       __unwindfunclet$?Run@CLinkManager@@QAEKPAUIPMSObject@@@Z$0 10b2ac82 f   LinkManager.obj
 0001:00029c8a       __ehhandler$?Run@CLinkManager@@QAEKPAUIPMSObject@@@Z 10b2ac8a f   LinkManager.obj
 0001:00029cb0       __unwindfunclet$??1_PMSConfig@@QAE@XZ$0 10b2acb0 f   LinkManager.obj
 0001:00029cb0       __unwindfunclet$??0_PMSConfig@@QAE@XZ$0 10b2acb0 f   LinkManager.obj
 0001:00029cbb       __ehhandler$??0_PMSConfig@@QAE@XZ 10b2acbb f   LinkManager.obj
 0001:00029cbb       __ehhandler$??1_PMSConfig@@QAE@XZ 10b2acbb f   LinkManager.obj
 0001:00029ce0       __unwindfunclet$??1GSafeBufQ@@QAE@XZ$0 10b2ace0 f   LinkManager.obj
 0001:00029ce0       __unwindfunclet$??0GSafeBufQ@@QAE@XZ$0 10b2ace0 f   LinkManager.obj
 0001:00029ceb       __ehhandler$??1GSafeBufQ@@QAE@XZ 10b2aceb f   LinkManager.obj
 0001:00029ceb       __ehhandler$??0GSafeBufQ@@QAE@XZ 10b2aceb f   LinkManager.obj
 0001:00029d10       __unwindfunclet$??1?$SocketSingleT@VGSocketHandler@@VGBufSocket@@@@QAE@XZ$0 10b2ad10 f   LinkManager.obj
 0001:00029d10       __unwindfunclet$??0?$SocketSingleT@VGSocketHandler@@VGBufSocket@@@@QAE@XZ$0 10b2ad10 f   LinkManager.obj
 0001:00029d18       __ehhandler$??1?$SocketSingleT@VGSocketHandler@@VGBufSocket@@@@QAE@XZ 10b2ad18 f   LinkManager.obj
 0001:00029d18       __ehhandler$??0?$SocketSingleT@VGSocketHandler@@VGBufSocket@@@@QAE@XZ 10b2ad18 f   LinkManager.obj
 0001:00029d40       __unwindfunclet$??0PayloadHA@@QAE@I@Z$0 10b2ad40 f   LinkManager.obj
 0001:00029d4b       __unwindfunclet$??0PayloadHA@@QAE@I@Z$1 10b2ad4b f   LinkManager.obj
 0001:00029d56       __unwindfunclet$??0PayloadHA@@QAE@I@Z$2 10b2ad56 f   LinkManager.obj
 0001:00029d61       __unwindfunclet$??0PayloadHA@@QAE@I@Z$3 10b2ad61 f   LinkManager.obj
 0001:00029d6c       __unwindfunclet$??0PayloadHA@@QAE@I@Z$4 10b2ad6c f   LinkManager.obj
 0001:00029d77       __unwindfunclet$??0PayloadHA@@QAE@I@Z$5 10b2ad77 f   LinkManager.obj
 0001:00029d82       __unwindfunclet$??0PayloadHA@@QAE@I@Z$6 10b2ad82 f   LinkManager.obj
 0001:00029d8d       __unwindfunclet$??0PayloadHA@@QAE@I@Z$7 10b2ad8d f   LinkManager.obj
 0001:00029d98       __unwindfunclet$??0PayloadHA@@QAE@I@Z$8 10b2ad98 f   LinkManager.obj
 0001:00029da3       __unwindfunclet$??0PayloadHA@@QAE@I@Z$9 10b2ada3 f   LinkManager.obj
 0001:00029dae       __unwindfunclet$??0PayloadHA@@QAE@I@Z$10 10b2adae f   LinkManager.obj
 0001:00029db9       __ehhandler$??0PayloadHA@@QAE@I@Z 10b2adb9 f   LinkManager.obj
 0001:00029de0       __unwindfunclet$??0PMSAGSInitNtf@@QAE@XZ$0 10b2ade0 f   LinkManager.obj
 0001:00029deb       __unwindfunclet$??0PMSAGSInitNtf@@QAE@XZ$1 10b2adeb f   LinkManager.obj
 0001:00029df6       __ehhandler$??0PMSAGSInitNtf@@QAE@XZ 10b2adf6 f   LinkManager.obj
 0001:00029e20       __unwindfunclet$??0PMSAOrderAns@@QAE@XZ$0 10b2ae20 f   LinkManager.obj
 0001:00029e28       __unwindfunclet$??0PMSAOrderAns@@QAE@XZ$1 10b2ae28 f   LinkManager.obj
 0001:00029e33       __unwindfunclet$??0PMSAOrderAns@@QAE@XZ$2 10b2ae33 f   LinkManager.obj
 0001:00029e3e       __unwindfunclet$??0PMSAOrderAns@@QAE@XZ$3 10b2ae3e f   LinkManager.obj
 0001:00029e49       __ehhandler$??0PMSAOrderAns@@QAE@XZ 10b2ae49 f   LinkManager.obj
 0001:00029e70       __unwindfunclet$??0PMSAWarningNtf@@QAE@XZ$0 10b2ae70 f   LinkManager.obj
 0001:00029e7b       __unwindfunclet$??0PMSAWarningNtf@@QAE@XZ$1 10b2ae7b f   LinkManager.obj
 0001:00029e86       __ehhandler$??0PMSAWarningNtf@@QAE@XZ 10b2ae86 f   LinkManager.obj
 0001:00029eb0       __unwindfunclet$??1PMSAGSInitNtf@@QAE@XZ$0 10b2aeb0 f   LinkManager.obj
 0001:00029ebb       __ehhandler$??1PMSAGSInitNtf@@QAE@XZ 10b2aebb f   LinkManager.obj
 0001:00029ee0       __unwindfunclet$??1PMSAOrderAns@@QAE@XZ$0 10b2aee0 f   LinkManager.obj
 0001:00029ee8       __unwindfunclet$??1PMSAOrderAns@@QAE@XZ$1 10b2aee8 f   LinkManager.obj
 0001:00029ef3       __unwindfunclet$??1PMSAOrderAns@@QAE@XZ$2 10b2aef3 f   LinkManager.obj
 0001:00029efe       __ehhandler$??1PMSAOrderAns@@QAE@XZ 10b2aefe f   LinkManager.obj
 0001:00029f20       __unwindfunclet$??1PMSAWarningNtf@@QAE@XZ$0 10b2af20 f   LinkManager.obj
 0001:00029f2b       __ehhandler$??1PMSAWarningNtf@@QAE@XZ 10b2af2b f   LinkManager.obj
 0001:00029f50       __unwindfunclet$??1?$vector@PAVGSyncObj@@V?$allocator@PAVGSyncObj@@@std@@@std@@QAE@XZ$0 10b2af50 f   LinkManager.obj
 0001:00029f50       __unwindfunclet$??1?$vector@VPMSStatBase@@V?$allocator@VPMSStatBase@@@std@@@std@@QAE@XZ$0 10b2af50 f   LinkManager.obj
 0001:00029f50       __unwindfunclet$??1?$vector@VPMSRegionInfo@@V?$allocator@VPMSRegionInfo@@@std@@@std@@QAE@XZ$0 10b2af50 f   LinkManager.obj
 0001:00029f50       __unwindfunclet$??1?$vector@VPMSNSAP@@V?$allocator@VPMSNSAP@@@std@@@std@@QAE@XZ$0 10b2af50 f   LinkManager.obj
 0001:00029f50       __unwindfunclet$??1?$vector@JV?$allocator@J@std@@@std@@QAE@XZ$0 10b2af50 f   LinkManager.obj
 0001:00029f58       __ehhandler$??1?$vector@PAVGSyncObj@@V?$allocator@PAVGSyncObj@@@std@@@std@@QAE@XZ 10b2af58 f   LinkManager.obj
 0001:00029f58       __ehhandler$??1?$vector@JV?$allocator@J@std@@@std@@QAE@XZ 10b2af58 f   LinkManager.obj
 0001:00029f58       __ehhandler$??1?$vector@VPMSRegionInfo@@V?$allocator@VPMSRegionInfo@@@std@@@std@@QAE@XZ 10b2af58 f   LinkManager.obj
 0001:00029f58       __ehhandler$??1?$vector@VPMSStatBase@@V?$allocator@VPMSStatBase@@@std@@@std@@QAE@XZ 10b2af58 f   LinkManager.obj
 0001:00029f58       __ehhandler$??1?$vector@VPMSNSAP@@V?$allocator@VPMSNSAP@@@std@@@std@@QAE@XZ 10b2af58 f   LinkManager.obj
 0001:00029f80       __unwindfunclet$?OnReceive@?$AdlSocketDispatcherImplT@V?$BufSocketSingleT@VGSocketHandler@@VGBufSocket@@@@VPayloadGS@@@@MAEHPAVGBufSocket@@H@Z$0 10b2af80 f   LinkManager.obj
 0001:00029f88       __ehhandler$?OnReceive@?$AdlSocketDispatcherImplT@V?$BufSocketSingleT@VGSocketHandler@@VGBufSocket@@@@VPayloadGS@@@@MAEHPAVGBufSocket@@H@Z 10b2af88 f   LinkManager.obj
 0001:00029fb0       __unwindfunclet$??1?$_Container_base_aux_alloc_real@V?$allocator@VPMSRegionInfo@@@std@@@std@@IAE@XZ$0 10b2afb0 f   LinkManager.obj
 0001:00029fb0       __unwindfunclet$??1?$_Container_base_aux_alloc_real@V?$allocator@VPMSNSAP@@@std@@@std@@IAE@XZ$0 10b2afb0 f   LinkManager.obj
 0001:00029fb0       __unwindfunclet$??1?$_Container_base_aux_alloc_real@V?$allocator@VGBuf@@@std@@@std@@IAE@XZ$0 10b2afb0 f   LinkManager.obj
 0001:00029fb0       __unwindfunclet$??1?$_Container_base_aux_alloc_real@V?$allocator@VPMSStatBase@@@std@@@std@@IAE@XZ$0 10b2afb0 f   LinkManager.obj
 0001:00029fb0       __unwindfunclet$??1?$_Container_base_aux_alloc_real@V?$allocator@PAVGSyncObj@@@std@@@std@@IAE@XZ$0 10b2afb0 f   LinkManager.obj
 0001:00029fb0       __unwindfunclet$??1?$_Container_base_aux_alloc_real@V?$allocator@J@std@@@std@@IAE@XZ$0 10b2afb0 f   LinkManager.obj
 0001:00029fb8       __ehhandler$??1?$_Container_base_aux_alloc_real@V?$allocator@VPMSRegionInfo@@@std@@@std@@IAE@XZ 10b2afb8 f   LinkManager.obj
 0001:00029fb8       __ehhandler$??1?$_Container_base_aux_alloc_real@V?$allocator@J@std@@@std@@IAE@XZ 10b2afb8 f   LinkManager.obj
 0001:00029fb8       __ehhandler$??1?$_Container_base_aux_alloc_real@V?$allocator@PAVGSyncObj@@@std@@@std@@IAE@XZ 10b2afb8 f   LinkManager.obj
 0001:00029fb8       __ehhandler$??1?$_Container_base_aux_alloc_real@V?$allocator@VGBuf@@@std@@@std@@IAE@XZ 10b2afb8 f   LinkManager.obj
 0001:00029fb8       __ehhandler$??1?$_Container_base_aux_alloc_real@V?$allocator@VPMSStatBase@@@std@@@std@@IAE@XZ 10b2afb8 f   LinkManager.obj
 0001:00029fb8       __ehhandler$??1?$_Container_base_aux_alloc_real@V?$allocator@VPMSNSAP@@@std@@@std@@IAE@XZ 10b2afb8 f   LinkManager.obj
 0001:00029fe0       __unwindfunclet$??0?$vector@VPMSRegionInfo@@V?$allocator@VPMSRegionInfo@@@std@@@std@@QAE@XZ$0 10b2afe0 f   LinkManager.obj
 0001:00029fe0       __unwindfunclet$??0?$vector@JV?$allocator@J@std@@@std@@QAE@XZ$0 10b2afe0 f   LinkManager.obj
 0001:00029fe0       __unwindfunclet$??0?$vector@VPMSStatBase@@V?$allocator@VPMSStatBase@@@std@@@std@@QAE@XZ$0 10b2afe0 f   LinkManager.obj
 0001:00029fe0       __unwindfunclet$??0?$vector@PAVGSyncObj@@V?$allocator@PAVGSyncObj@@@std@@@std@@QAE@XZ$0 10b2afe0 f   LinkManager.obj
 0001:00029fe0       __unwindfunclet$??0?$vector@VPMSNSAP@@V?$allocator@VPMSNSAP@@@std@@@std@@QAE@XZ$0 10b2afe0 f   LinkManager.obj
 0001:00029fe8       __ehhandler$??0?$vector@VPMSRegionInfo@@V?$allocator@VPMSRegionInfo@@@std@@@std@@QAE@XZ 10b2afe8 f   LinkManager.obj
 0001:00029fe8       __ehhandler$??0?$vector@PAVGSyncObj@@V?$allocator@PAVGSyncObj@@@std@@@std@@QAE@XZ 10b2afe8 f   LinkManager.obj
 0001:00029fe8       __ehhandler$??0?$vector@VPMSStatBase@@V?$allocator@VPMSStatBase@@@std@@@std@@QAE@XZ 10b2afe8 f   LinkManager.obj
 0001:00029fe8       __ehhandler$??0?$vector@VPMSNSAP@@V?$allocator@VPMSNSAP@@@std@@@std@@QAE@XZ 10b2afe8 f   LinkManager.obj
 0001:00029fe8       __ehhandler$??0?$vector@JV?$allocator@J@std@@@std@@QAE@XZ 10b2afe8 f   LinkManager.obj
 0001:0002a010       __ehhandler$?_Insert_n@?$vector@VPMSNSAP@@V?$allocator@VPMSNSAP@@@std@@@std@@IAEXV?$_Vector_const_iterator@VPMSNSAP@@V?$allocator@VPMSNSAP@@@std@@@2@IABVPMSNSAP@@@Z 10b2b010 f   LinkManager.obj
 0001:0002a030       __unwindfunclet$??0logic_error@std@@QAE@ABV?$basic_string@DU?$char_traits@D@std@@V?$allocator@D@2@@1@@Z$0 10b2b030 f   LinkManager.obj
 0001:0002a030       __unwindfunclet$??0logic_error@std@@QAE@ABV01@@Z$0 10b2b030 f   LinkManager.obj
 0001:0002a038       __ehhandler$??0logic_error@std@@QAE@ABV?$basic_string@DU?$char_traits@D@std@@V?$allocator@D@2@@1@@Z 10b2b038 f   LinkManager.obj
 0001:0002a038       __ehhandler$??0logic_error@std@@QAE@ABV01@@Z 10b2b038 f   LinkManager.obj
 0001:0002a060       __unwindfunclet$?BLoad@PayloadGS@@QAEHPAUIXBuf@@@Z$0 10b2b060 f   LinkManager.obj
 0001:0002a06b       __unwindfunclet$?BLoad@PayloadGS@@QAEHPAUIXBuf@@@Z$1 10b2b06b f   LinkManager.obj
 0001:0002a076       __unwindfunclet$?BLoad@PayloadGS@@QAEHPAUIXBuf@@@Z$2 10b2b076 f   LinkManager.obj
 0001:0002a081       __unwindfunclet$?BLoad@PayloadGS@@QAEHPAUIXBuf@@@Z$3 10b2b081 f   LinkManager.obj
 0001:0002a08c       __unwindfunclet$?BLoad@PayloadGS@@QAEHPAUIXBuf@@@Z$4 10b2b08c f   LinkManager.obj
 0001:0002a097       __unwindfunclet$?BLoad@PayloadGS@@QAEHPAUIXBuf@@@Z$5 10b2b097 f   LinkManager.obj
 0001:0002a0a2       __ehhandler$?BLoad@PayloadGS@@QAEHPAUIXBuf@@@Z 10b2b0a2 f   LinkManager.obj
 0001:0002a0c0       __unwindfunclet$??0PMSAAnnounceReq@@QAE@XZ$0 10b2b0c0 f   LinkManager.obj
 0001:0002a0cb       __ehhandler$??0PMSAAnnounceReq@@QAE@XZ 10b2b0cb f   LinkManager.obj
 0001:0002a0f0       __unwindfunclet$??1PMSAOrderReq@@QAE@XZ$0 10b2b0f0 f   LinkManager.obj
 0001:0002a0f0       __unwindfunclet$??0PMSAOrderReq@@QAE@XZ$0 10b2b0f0 f   LinkManager.obj
 0001:0002a0fb       __unwindfunclet$??1PMSAOrderReq@@QAE@XZ$1 10b2b0fb f   LinkManager.obj
 0001:0002a0fb       __unwindfunclet$??0PMSAOrderReq@@QAE@XZ$1 10b2b0fb f   LinkManager.obj
 0001:0002a106       __ehhandler$??1PMSAOrderReq@@QAE@XZ 10b2b106 f   LinkManager.obj
 0001:0002a106       __ehhandler$??0PMSAOrderReq@@QAE@XZ 10b2b106 f   LinkManager.obj
 0001:0002a130       __ehhandler$??$_Uninit_fill_n@PAVPMSNSAP@@IV1@V?$allocator@VPMSNSAP@@@std@@@std@@YAXPAVPMSNSAP@@IABV1@AAV?$allocator@VPMSNSAP@@@0@U_Nonscalar_ptr_iterator_tag@0@U_Range_checked_iterator_tag@0@@Z 10b2b130 f   LinkManager.obj
 0001:0002a150       __unwindfunclet$?Pop@GSafeBufQ@@QAEHAAVGBuf@@@Z$0 10b2b150 f   LinkManager.obj
 0001:0002a158       __ehhandler$?Pop@GSafeBufQ@@QAEHAAVGBuf@@@Z 10b2b158 f   LinkManager.obj
 0001:0002a180       __ehhandler$??$_Uninit_copy@PAVPMSNSAP@@PAV1@V?$allocator@VPMSNSAP@@@std@@@std@@YAPAVPMSNSAP@@PAV1@00AAV?$allocator@VPMSNSAP@@@0@U_Nonscalar_ptr_iterator_tag@0@U_Range_checked_iterator_tag@0@@Z 10b2b180 f   LinkManager.obj
 0001:0002a1a0       __unwindfunclet$??0?$list@VGBuf@@V?$allocator@VGBuf@@@std@@@std@@QAE@XZ$0 10b2b1a0 f   LinkManager.obj
 0001:0002a1a8       __ehhandler$??0?$list@VGBuf@@V?$allocator@VGBuf@@@std@@@std@@QAE@XZ 10b2b1a8 f   LinkManager.obj
 0001:0002a1d0       __unwindfunclet$??1?$list@VGBuf@@V?$allocator@VGBuf@@@std@@@std@@QAE@XZ$0 10b2b1d0 f   LinkManager.obj
 0001:0002a1d8       __ehhandler$??1?$list@VGBuf@@V?$allocator@VGBuf@@@std@@@std@@QAE@XZ 10b2b1d8 f   LinkManager.obj
 0001:0002a200       __ehhandler$?_Buynode@?$list@VGBuf@@V?$allocator@VGBuf@@@std@@@std@@IAEPAU_Node@?$_List_nod@VGBuf@@V?$allocator@VGBuf@@@std@@@2@XZ 10b2b200 f   LinkManager.obj
 0001:0002a220       __unwindfunclet$?AddRegionInfo@CPMSRegionInfoList@@UAEXKKPAV?$vector@JV?$allocator@J@std@@@std@@@Z$0 10b2b220 f   LinkManagerMsg.obj
 0001:0002a228       __ehhandler$?AddRegionInfo@CPMSRegionInfoList@@UAEXKKPAV?$vector@JV?$allocator@J@std@@@std@@@Z 10b2b228 f   LinkManagerMsg.obj
 0001:0002a243       __unwindfunclet$?AddRegionInfo2@CPMSRegionInfoList@@UAEXKKQAJ@Z$0 10b2b243 f   LinkManagerMsg.obj
 0001:0002a24b       __ehhandler$?AddRegionInfo2@CPMSRegionInfoList@@UAEXKKQAJ@Z 10b2b24b f   LinkManagerMsg.obj
 0001:0002a266       __unwindfunclet$?AddRegionInfo238@CPMSRegionInfoList@@UAEXKKQAJ@Z$0 10b2b266 f   LinkManagerMsg.obj
 0001:0002a26e       __ehhandler$?AddRegionInfo238@CPMSRegionInfoList@@UAEXKKQAJ@Z 10b2b26e f   LinkManagerMsg.obj
 0001:0002a289       __unwindfunclet$?AddRegionInfo272@CPMSRegionInfoList@@UAEXKKQAJ@Z$0 10b2b289 f   LinkManagerMsg.obj
 0001:0002a291       __ehhandler$?AddRegionInfo272@CPMSRegionInfoList@@UAEXKKQAJ@Z 10b2b291 f   LinkManagerMsg.obj
 0001:0002a2ac       __unwindfunclet$?AddRegionInfoPC@CPMSRegionInfoListPC@@UAEXKKPAV?$vector@JV?$allocator@J@std@@@std@@@Z$0 10b2b2ac f   LinkManagerMsg.obj
 0001:0002a2b4       __ehhandler$?AddRegionInfoPC@CPMSRegionInfoListPC@@UAEXKKPAV?$vector@JV?$allocator@J@std@@@std@@@Z 10b2b2b4 f   LinkManagerMsg.obj
 0001:0002a2cf       __unwindfunclet$?AddRegionInfoPC238@CPMSRegionInfoListPC@@UAEXKKQAJ@Z$0 10b2b2cf f   LinkManagerMsg.obj
 0001:0002a2d7       __ehhandler$?AddRegionInfoPC238@CPMSRegionInfoListPC@@UAEXKKQAJ@Z 10b2b2d7 f   LinkManagerMsg.obj
 0001:0002a2f2       __unwindfunclet$?AddRegionInfoPC272@CPMSRegionInfoListPC@@UAEXKKQAJ@Z$0 10b2b2f2 f   LinkManagerMsg.obj
 0001:0002a2fa       __ehhandler$?AddRegionInfoPC272@CPMSRegionInfoListPC@@UAEXKKQAJ@Z 10b2b2fa f   LinkManagerMsg.obj
 0001:0002a315       __unwindfunclet$?AddStatInfoList@CPMSStatInfoList@@UAEXKKKKKKPBD@Z$0 10b2b315 f   LinkManagerMsg.obj
 0001:0002a31d       __ehhandler$?AddStatInfoList@CPMSStatInfoList@@UAEXKKKKKKPBD@Z 10b2b31d f   LinkManagerMsg.obj
 0001:0002a342       __unwindfunclet$?AddStatInfoListPC@CPMSStatInfoListPC@@UAEXKKKKKKPBD@Z$0 10b2b342 f   LinkManagerMsg.obj
 0001:0002a34a       __ehhandler$?AddStatInfoListPC@CPMSStatInfoListPC@@UAEXKKKKKKPBD@Z 10b2b34a f   LinkManagerMsg.obj
 0001:0002a36f       __unwindfunclet$?SendMsg@CLinkManager@@AAEXABVPayloadHA@@@Z$0 10b2b36f f   LinkManagerMsg.obj
 0001:0002a377       __unwindfunclet$?SendMsg@CLinkManager@@AAEXABVPayloadHA@@@Z$1 10b2b377 f   LinkManagerMsg.obj
 0001:0002a37f       __ehhandler$?SendMsg@CLinkManager@@AAEXABVPayloadHA@@@Z 10b2b37f f   LinkManagerMsg.obj
 0001:0002a39a       __unwindfunclet$?OnError@CLinkManager@@EAEHPAVGBufSocket@@JH@Z$0 10b2b39a f   LinkManagerMsg.obj
 0001:0002a3a2       __ehhandler$?OnError@CLinkManager@@EAEHPAVGBufSocket@@JH@Z 10b2b3a2 f   LinkManagerMsg.obj
 0001:0002a3bd       __unwindfunclet$?OnAnnounceReq@CLinkManager@@AAEXPAVPMSAAnnounceReq@@@Z$0 10b2b3bd f   LinkManagerMsg.obj
 0001:0002a3c5       __unwindfunclet$?OnAnnounceReq@CLinkManager@@AAEXPAVPMSAAnnounceReq@@@Z$1 10b2b3c5 f   LinkManagerMsg.obj
 0001:0002a3cd       __ehhandler$?OnAnnounceReq@CLinkManager@@AAEXPAVPMSAAnnounceReq@@@Z 10b2b3cd f   LinkManagerMsg.obj
 0001:0002a3e8       __unwindfunclet$?OnHeartBeatReq@CLinkManager@@AAEXPAVPMSAHeartBeatReq@@@Z$0 10b2b3e8 f   LinkManagerMsg.obj
 0001:0002a3f0       __ehhandler$?OnHeartBeatReq@CLinkManager@@AAEXPAVPMSAHeartBeatReq@@@Z 10b2b3f0 f   LinkManagerMsg.obj
 0001:0002a40b       __unwindfunclet$?OnOrderReq@CLinkManager@@AAEXPAVPMSAOrderReq@@@Z$0 10b2b40b f   LinkManagerMsg.obj
 0001:0002a413       __unwindfunclet$?OnOrderReq@CLinkManager@@AAEXPAVPMSAOrderReq@@@Z$1 10b2b413 f   LinkManagerMsg.obj
 0001:0002a41b       __unwindfunclet$?OnOrderReq@CLinkManager@@AAEXPAVPMSAOrderReq@@@Z$2 10b2b41b f   LinkManagerMsg.obj
 0001:0002a423       __ehhandler$?OnOrderReq@CLinkManager@@AAEXPAVPMSAOrderReq@@@Z 10b2b423 f   LinkManagerMsg.obj
 0001:0002a448       __unwindfunclet$?OnPerformReq@CLinkManager@@AAEXPAVPMSAPerformReq@@@Z$0 10b2b448 f   LinkManagerMsg.obj
 0001:0002a450       __ehhandler$?OnPerformReq@CLinkManager@@AAEXPAVPMSAPerformReq@@@Z 10b2b450 f   LinkManagerMsg.obj
 0001:0002a46b       __unwindfunclet$?OnRegionInfoReq@CLinkManager@@AAEXPAVPMSARegionInfoReq@@@Z$0 10b2b46b f   LinkManagerMsg.obj
 0001:0002a473       __unwindfunclet$?OnRegionInfoReq@CLinkManager@@AAEXPAVPMSARegionInfoReq@@@Z$1 10b2b473 f   LinkManagerMsg.obj
 0001:0002a47b       __ehhandler$?OnRegionInfoReq@CLinkManager@@AAEXPAVPMSARegionInfoReq@@@Z 10b2b47b f   LinkManagerMsg.obj
 0001:0002a496       __unwindfunclet$?OnStatInfoReq@CLinkManager@@AAEXPAVPMSAStatInfoReq@@@Z$0 10b2b496 f   LinkManagerMsg.obj
 0001:0002a49e       __unwindfunclet$?OnStatInfoReq@CLinkManager@@AAEXPAVPMSAStatInfoReq@@@Z$1 10b2b49e f   LinkManagerMsg.obj
 0001:0002a4a6       __ehhandler$?OnStatInfoReq@CLinkManager@@AAEXPAVPMSAStatInfoReq@@@Z 10b2b4a6 f   LinkManagerMsg.obj
 0001:0002a4c1       __unwindfunclet$?SendWarningMsg@CLinkManager@@QAEHKPBD0KK@Z$0 10b2b4c1 f   LinkManagerMsg.obj
 0001:0002a4c9       __unwindfunclet$?SendWarningMsg@CLinkManager@@QAEHKPBD0KK@Z$1 10b2b4c9 f   LinkManagerMsg.obj
 0001:0002a4d1       __ehhandler$?SendWarningMsg@CLinkManager@@QAEHKPBD0KK@Z 10b2b4d1 f   LinkManagerMsg.obj
 0001:0002a4ec       __unwindfunclet$?OnRegionInfoPCReq@CLinkManager@@AAEXPAVPMSARegionInfoReq@@@Z$0 10b2b4ec f   LinkManagerMsg.obj
 0001:0002a4f4       __unwindfunclet$?OnRegionInfoPCReq@CLinkManager@@AAEXPAVPMSARegionInfoReq@@@Z$1 10b2b4f4 f   LinkManagerMsg.obj
 0001:0002a4fc       __ehhandler$?OnRegionInfoPCReq@CLinkManager@@AAEXPAVPMSARegionInfoReq@@@Z 10b2b4fc f   LinkManagerMsg.obj
 0001:0002a517       __unwindfunclet$?OnStatInfoPCReq@CLinkManager@@AAEXPAVPMSAStatInfoReq@@@Z$0 10b2b517 f   LinkManagerMsg.obj
 0001:0002a51f       __unwindfunclet$?OnStatInfoPCReq@CLinkManager@@AAEXPAVPMSAStatInfoReq@@@Z$1 10b2b51f f   LinkManagerMsg.obj
 0001:0002a527       __ehhandler$?OnStatInfoPCReq@CLinkManager@@AAEXPAVPMSAStatInfoReq@@@Z 10b2b527 f   LinkManagerMsg.obj
 0001:0002a550       __unwindfunclet$??0PMSRegionInfo@@QAE@XZ$0 10b2b550 f   LinkManagerMsg.obj
 0001:0002a550       __unwindfunclet$??0PMSRegionInfo@@QAE@ABV0@@Z$0 10b2b550 f   LinkManagerMsg.obj
 0001:0002a55b       __ehhandler$??0PMSRegionInfo@@QAE@XZ 10b2b55b f   LinkManagerMsg.obj
 0001:0002a55b       __ehhandler$??0PMSRegionInfo@@QAE@ABV0@@Z 10b2b55b f   LinkManagerMsg.obj
 0001:0002a580       __unwindfunclet$??0PMSStatBase@@QAE@ABV0@@Z$0 10b2b580 f   LinkManagerMsg.obj
 0001:0002a580       __unwindfunclet$??0PMSStatBase@@QAE@XZ$0 10b2b580 f   LinkManagerMsg.obj
 0001:0002a58b       __ehhandler$??0PMSStatBase@@QAE@ABV0@@Z 10b2b58b f   LinkManagerMsg.obj
 0001:0002a58b       __ehhandler$??0PMSStatBase@@QAE@XZ 10b2b58b f   LinkManagerMsg.obj
 0001:0002a5b0       __unwindfunclet$?_Insert_n@?$vector@VPMSStatBase@@V?$allocator@VPMSStatBase@@@std@@@std@@IAEXV?$_Vector_const_iterator@VPMSStatBase@@V?$allocator@VPMSStatBase@@@std@@@2@IABVPMSStatBase@@@Z$4 10b2b5b0 f   LinkManagerMsg.obj
 0001:0002a5b8       __unwindfunclet$?_Insert_n@?$vector@VPMSStatBase@@V?$allocator@VPMSStatBase@@@std@@@std@@IAEXV?$_Vector_const_iterator@VPMSStatBase@@V?$allocator@VPMSStatBase@@@std@@@2@IABVPMSStatBase@@@Z$5 10b2b5b8 f   LinkManagerMsg.obj
 0001:0002a5c3       __ehhandler$?_Insert_n@?$vector@VPMSStatBase@@V?$allocator@VPMSStatBase@@@std@@@std@@IAEXV?$_Vector_const_iterator@VPMSStatBase@@V?$allocator@VPMSStatBase@@@std@@@2@IABVPMSStatBase@@@Z 10b2b5c3 f   LinkManagerMsg.obj
 0001:0002a5f0       __unwindfunclet$?_Insert_n@?$vector@VPMSRegionInfo@@V?$allocator@VPMSRegionInfo@@@std@@@std@@IAEXV?$_Vector_const_iterator@VPMSRegionInfo@@V?$allocator@VPMSRegionInfo@@@std@@@2@IABVPMSRegionInfo@@@Z$4 10b2b5f0 f   LinkManagerMsg.obj
 0001:0002a5f8       __unwindfunclet$?_Insert_n@?$vector@VPMSRegionInfo@@V?$allocator@VPMSRegionInfo@@@std@@@std@@IAEXV?$_Vector_const_iterator@VPMSRegionInfo@@V?$allocator@VPMSRegionInfo@@@std@@@2@IABVPMSRegionInfo@@@Z$5 10b2b5f8 f   LinkManagerMsg.obj
 0001:0002a600       __ehhandler$?_Insert_n@?$vector@VPMSRegionInfo@@V?$allocator@VPMSRegionInfo@@@std@@@std@@IAEXV?$_Vector_const_iterator@VPMSRegionInfo@@V?$allocator@VPMSRegionInfo@@@std@@@2@IABVPMSRegionInfo@@@Z 10b2b600 f   LinkManagerMsg.obj
 0001:0002a620       __unwindfunclet$??$?0VPMSAHeartBeatAns@@@PayloadHA@@QAE@IABVPMSAHeartBeatAns@@@Z$0 10b2b620 f   LinkManagerMsg.obj
 0001:0002a620       __unwindfunclet$??$?0VPMSAAnnounceAns@@@PayloadHA@@QAE@IABVPMSAAnnounceAns@@@Z$0 10b2b620 f   LinkManagerMsg.obj
 0001:0002a62b       __ehhandler$??$?0VPMSAAnnounceAns@@@PayloadHA@@QAE@IABVPMSAAnnounceAns@@@Z 10b2b62b f   LinkManagerMsg.obj
 0001:0002a62b       __ehhandler$??$?0VPMSAHeartBeatAns@@@PayloadHA@@QAE@IABVPMSAHeartBeatAns@@@Z 10b2b62b f   LinkManagerMsg.obj
 0001:0002a650       __unwindfunclet$?Push@GSafeBufQ@@QAEXABVGBuf@@@Z$0 10b2b650 f   LinkManagerMsg.obj
 0001:0002a658       __ehhandler$?Push@GSafeBufQ@@QAEXABVGBuf@@@Z 10b2b658 f   LinkManagerMsg.obj
 0001:0002a680       __ehhandler$??$_Uninit_fill_n@PAVPMSStatBase@@IV1@V?$allocator@VPMSStatBase@@@std@@@std@@YAXPAVPMSStatBase@@IABV1@AAV?$allocator@VPMSStatBase@@@0@U_Nonscalar_ptr_iterator_tag@0@U_Range_checked_iterator_tag@0@@Z 10b2b680 f   LinkManagerMsg.obj
 0001:0002a6a0       __ehhandler$??$_Uninit_fill_n@PAVPMSRegionInfo@@IV1@V?$allocator@VPMSRegionInfo@@@std@@@std@@YAXPAVPMSRegionInfo@@IABV1@AAV?$allocator@VPMSRegionInfo@@@0@U_Nonscalar_ptr_iterator_tag@0@U_Range_checked_iterator_tag@0@@Z 10b2b6a0 f   LinkManagerMsg.obj
 0001:0002a6c0       __ehhandler$??$_Insert@V?$_Vector_iterator@JV?$allocator@J@std@@@std@@@?$vector@JV?$allocator@J@std@@@std@@QAEXV?$_Vector_const_iterator@JV?$allocator@J@std@@@1@V?$_Vector_iterator@JV?$allocator@J@std@@@1@1Uforward_iterator_tag@1@@Z 10b2b6c0 f   LinkManagerMsg.obj
 0001:0002a6e0       __ehhandler$??$_Insert@PAJ@?$vector@JV?$allocator@J@std@@@std@@QAEXV?$_Vector_const_iterator@JV?$allocator@J@std@@@1@PAJ1Uforward_iterator_tag@1@@Z 10b2b6e0 f   LinkManagerMsg.obj
 0001:0002a700       __ehhandler$??$_Uninit_copy@PAVPMSStatBase@@PAV1@V?$allocator@VPMSStatBase@@@std@@@std@@YAPAVPMSStatBase@@PAV1@00AAV?$allocator@VPMSStatBase@@@0@U_Nonscalar_ptr_iterator_tag@0@U_Range_checked_iterator_tag@0@@Z 10b2b700 f   LinkManagerMsg.obj
 0001:0002a720       __ehhandler$??$_Uninit_copy@PAVPMSRegionInfo@@PAV1@V?$allocator@VPMSRegionInfo@@@std@@@std@@YAPAVPMSRegionInfo@@PAV1@00AAV?$allocator@VPMSRegionInfo@@@0@U_Nonscalar_ptr_iterator_tag@0@U_Range_checked_iterator_tag@0@@Z 10b2b720 f   LinkManagerMsg.obj
 0001:0002a740       __ehhandler$?_Buynode@?$list@VGBuf@@V?$allocator@VGBuf@@@std@@@std@@IAEPAU_Node@?$_List_nod@VGBuf@@V?$allocator@VGBuf@@@std@@@2@PAU342@0ABVGBuf@@@Z 10b2b740 f   LinkManagerMsg.obj
 0001:0002a760       __unwindfunclet$?_Incsize@?$list@VGBuf@@V?$allocator@VGBuf@@@std@@@std@@IAEXI@Z$0 10b2b760 f   LinkManagerMsg.obj
 0001:0002a768       __ehhandler$?_Incsize@?$list@VGBuf@@V?$allocator@VGBuf@@@std@@@std@@IAEXI@Z 10b2b768 f   LinkManagerMsg.obj
 0001:0002a790       __unwindfunclet$??$_Construct@VPMSRegionInfo@@V1@@std@@YAXPAVPMSRegionInfo@@ABV1@@Z$0 10b2b790 f   LinkManagerMsg.obj
 0001:0002a790       __unwindfunclet$??$_Construct@VPMSStatBase@@V1@@std@@YAXPAVPMSStatBase@@ABV1@@Z$0 10b2b790 f   LinkManagerMsg.obj
 0001:0002a790       __unwindfunclet$??$_Construct@VPMSNSAP@@V1@@std@@YAXPAVPMSNSAP@@ABV1@@Z$0 10b2b790 f   LinkManagerMsg.obj
 0001:0002a790       __unwindfunclet$??$_Construct@VGBuf@@V1@@std@@YAXPAVGBuf@@ABV1@@Z$0 10b2b790 f   LinkManagerMsg.obj
 0001:0002a7a1       __ehhandler$??$_Construct@VPMSRegionInfo@@V1@@std@@YAXPAVPMSRegionInfo@@ABV1@@Z 10b2b7a1 f   LinkManagerMsg.obj
 0001:0002a7a1       __ehhandler$??$_Construct@VPMSNSAP@@V1@@std@@YAXPAVPMSNSAP@@ABV1@@Z 10b2b7a1 f   LinkManagerMsg.obj
 0001:0002a7a1       __ehhandler$??$_Construct@VPMSStatBase@@V1@@std@@YAXPAVPMSStatBase@@ABV1@@Z 10b2b7a1 f   LinkManagerMsg.obj
 0001:0002a7a1       __ehhandler$??$_Construct@VGBuf@@V1@@std@@YAXPAVGBuf@@ABV1@@Z 10b2b7a1 f   LinkManagerMsg.obj
 0001:0002a7c0       __unwindfunclet$?BLoad@@YAHAAV?$basic_string@DU?$char_traits@D@std@@V?$allocator@D@2@@std@@PAUIXBuf@@@Z$0 10b2b7c0 f   GAdlUtl.obj
 0001:0002a7c8       __ehhandler$?BLoad@@YAHAAV?$basic_string@DU?$char_traits@D@std@@V?$allocator@D@2@@std@@PAUIXBuf@@@Z 10b2b7c8 f   GAdlUtl.obj
 0001:0002a7e3       __unwindfunclet$?MLoad@@YAHAAV?$basic_string@DU?$char_traits@D@std@@V?$allocator@D@2@@std@@PAUIXBuf@@@Z$0 10b2b7e3 f   GAdlUtl.obj
 0001:0002a7eb       __ehhandler$?MLoad@@YAHAAV?$basic_string@DU?$char_traits@D@std@@V?$allocator@D@2@@std@@PAUIXBuf@@@Z 10b2b7eb f   GAdlUtl.obj
 0001:0002a806       __unwindfunclet$?BLoad@@YAHAAV?$basic_string@GU?$char_traits@G@std@@V?$allocator@G@2@@std@@PAUIXBuf@@@Z$0 10b2b806 f   GAdlUtl.obj
 0001:0002a80e       __ehhandler$?BLoad@@YAHAAV?$basic_string@GU?$char_traits@G@std@@V?$allocator@G@2@@std@@PAUIXBuf@@@Z 10b2b80e f   GAdlUtl.obj
 0001:0002a829       __unwindfunclet$?BLoad@@YAHAAVastring@@PAUIXBuf@@@Z$0 10b2b829 f   GAdlUtl.obj
 0001:0002a831       __ehhandler$?BLoad@@YAHAAVastring@@PAUIXBuf@@@Z 10b2b831 f   GAdlUtl.obj
 0001:0002a84c       __unwindfunclet$?MLoad@@YAHAAVastring@@PAUIXBuf@@@Z$0 10b2b84c f   GAdlUtl.obj
 0001:0002a854       __ehhandler$?MLoad@@YAHAAVastring@@PAUIXBuf@@@Z 10b2b854 f   GAdlUtl.obj
 0001:0002a870       __ehhandler$?_Copy@?$basic_string@GU?$char_traits@G@std@@V?$allocator@G@2@@std@@IAEXII@Z 10b2b870 f   GAdlUtl.obj
 0001:0002a890       __unwindfunclet$??0GSemaphore@@QAE@JJPBDPAU_SECURITY_ATTRIBUTES@@@Z$0 10b2b890 f   GKernelObj.obj
 0001:0002a898       __ehhandler$??0GSemaphore@@QAE@JJPBDPAU_SECURITY_ATTRIBUTES@@@Z 10b2b898 f   GKernelObj.obj
 0001:0002a8b3       __unwindfunclet$??0GSemaphore@@QAE@PBDKH@Z$0 10b2b8b3 f   GKernelObj.obj
 0001:0002a8bb       __ehhandler$??0GSemaphore@@QAE@PBDKH@Z 10b2b8bb f   GKernelObj.obj
 0001:0002a8d6       __unwindfunclet$??0GMutex@@QAE@HPBDPAU_SECURITY_ATTRIBUTES@@@Z$0 10b2b8d6 f   GKernelObj.obj
 0001:0002a8de       __ehhandler$??0GMutex@@QAE@HPBDPAU_SECURITY_ATTRIBUTES@@@Z 10b2b8de f   GKernelObj.obj
 0001:0002a8f9       __unwindfunclet$??0GMutex@@QAE@PBDKH@Z$0 10b2b8f9 f   GKernelObj.obj
 0001:0002a901       __ehhandler$??0GMutex@@QAE@PBDKH@Z 10b2b901 f   GKernelObj.obj
 0001:0002a91c       __unwindfunclet$??0GEvent@@QAE@HHPBDPAU_SECURITY_ATTRIBUTES@@@Z$0 10b2b91c f   GKernelObj.obj
 0001:0002a924       __ehhandler$??0GEvent@@QAE@HHPBDPAU_SECURITY_ATTRIBUTES@@@Z 10b2b924 f   GKernelObj.obj
 0001:0002a93f       __unwindfunclet$??0GEvent@@QAE@PBDKH@Z$0 10b2b93f f   GKernelObj.obj
 0001:0002a947       __ehhandler$??0GEvent@@QAE@PBDKH@Z 10b2b947 f   GKernelObj.obj
 0001:0002a962       __unwindfunclet$??0GMultiLock@@QAE@PAPAVGSyncObj@@KH@Z$0 10b2b962 f   GKernelObj.obj
 0001:0002a96a       __ehhandler$??0GMultiLock@@QAE@PAPAVGSyncObj@@KH@Z 10b2b96a f   GKernelObj.obj
 0001:0002a985       __unwindfunclet$??1GMultiLock@@QAE@XZ$0 10b2b985 f   GKernelObj.obj
 0001:0002a98d       __ehhandler$??1GMultiLock@@QAE@XZ 10b2b98d f   GKernelObj.obj
 0001:0002a9a8       __unwindfunclet$??0GSelector@@QAE@PAPAVGSyncObj@@KH@Z$0 10b2b9a8 f   GKernelObj.obj
 0001:0002a9b3       __ehhandler$??0GSelector@@QAE@PAPAVGSyncObj@@KH@Z 10b2b9b3 f   GKernelObj.obj
 0001:0002a9d0       __ehhandler$?_Insert_n@?$vector@PAVGSyncObj@@V?$allocator@PAVGSyncObj@@@std@@@std@@IAEXV?$_Vector_const_iterator@PAVGSyncObj@@V?$allocator@PAVGSyncObj@@@std@@@2@IABQAVGSyncObj@@@Z 10b2b9d0 f   GKernelObj.obj
 0001:0002a9d0       __ehhandler$?_Insert_n@?$vector@JV?$allocator@J@std@@@std@@IAEXV?$_Vector_const_iterator@JV?$allocator@J@std@@@2@IABJ@Z 10b2b9d0 f   GKernelObj.obj
 0001:0002a9d0       __ehhandler$?_Insert_n@?$vector@PAXV?$allocator@PAX@std@@@std@@IAEXV?$_Vector_const_iterator@PAXV?$allocator@PAX@std@@@2@IABQAX@Z 10b2b9d0 f   GKernelObj.obj
 0001:0002a9f0       __unwindfunclet$?_Xlen@?$vector@JV?$allocator@J@std@@@std@@KAXXZ$0 10b2b9f0 f   GKernelObj.obj
 0001:0002a9f0       __unwindfunclet$?_Xlen@?$vector@PAXV?$allocator@PAX@std@@@std@@KAXXZ$0 10b2b9f0 f   GKernelObj.obj
 0001:0002a9f0       __unwindfunclet$?_Xlen@?$vector@VPMSStatBase@@V?$allocator@VPMSStatBase@@@std@@@std@@KAXXZ$0 10b2b9f0 f   GKernelObj.obj
 0001:0002a9f0       __unwindfunclet$?_Xlen@?$vector@VPMSNSAP@@V?$allocator@VPMSNSAP@@@std@@@std@@KAXXZ$0 10b2b9f0 f   GKernelObj.obj
 0001:0002a9f0       __unwindfunclet$?_Xlen@?$vector@VPMSRegionInfo@@V?$allocator@VPMSRegionInfo@@@std@@@std@@KAXXZ$0 10b2b9f0 f   GKernelObj.obj
 0001:0002a9f0       __unwindfunclet$?_Xlen@?$vector@PAVGSyncObj@@V?$allocator@PAVGSyncObj@@@std@@@std@@KAXXZ$0 10b2b9f0 f   GKernelObj.obj
 0001:0002a9f8       __ehhandler$?_Xlen@?$vector@PAVGSyncObj@@V?$allocator@PAVGSyncObj@@@std@@@std@@KAXXZ 10b2b9f8 f   GKernelObj.obj
 0001:0002a9f8       __ehhandler$?_Xlen@?$vector@PAXV?$allocator@PAX@std@@@std@@KAXXZ 10b2b9f8 f   GKernelObj.obj
 0001:0002a9f8       __ehhandler$?_Xlen@?$vector@JV?$allocator@J@std@@@std@@KAXXZ 10b2b9f8 f   GKernelObj.obj
 0001:0002a9f8       __ehhandler$?_Xlen@?$vector@VPMSRegionInfo@@V?$allocator@VPMSRegionInfo@@@std@@@std@@KAXXZ 10b2b9f8 f   GKernelObj.obj
 0001:0002a9f8       __ehhandler$?_Xlen@?$vector@VPMSStatBase@@V?$allocator@VPMSStatBase@@@std@@@std@@KAXXZ 10b2b9f8 f   GKernelObj.obj
 0001:0002a9f8       __ehhandler$?_Xlen@?$vector@VPMSNSAP@@V?$allocator@VPMSNSAP@@@std@@@std@@KAXXZ 10b2b9f8 f   GKernelObj.obj
 0001:0002aa20       __unwindfunclet$??0?$_Container_base_aux_alloc_real@V?$allocator@VGBuf@@@std@@@std@@IAE@V?$allocator@VGBuf@@@1@@Z$0 10b2ba20 f   GKernelObj.obj
 0001:0002aa20       __unwindfunclet$??0?$_Container_base_aux_alloc_real@V?$allocator@VPMSRegionInfo@@@std@@@std@@IAE@V?$allocator@VPMSRegionInfo@@@1@@Z$0 10b2ba20 f   GKernelObj.obj
 0001:0002aa20       __unwindfunclet$??0?$_Container_base_aux_alloc_real@V?$allocator@PAVGSyncObj@@@std@@@std@@IAE@V?$allocator@PAVGSyncObj@@@1@@Z$0 10b2ba20 f   GKernelObj.obj
 0001:0002aa20       __unwindfunclet$??0?$_Container_base_aux_alloc_real@V?$allocator@VPMSStatBase@@@std@@@std@@IAE@V?$allocator@VPMSStatBase@@@1@@Z$0 10b2ba20 f   GKernelObj.obj
 0001:0002aa20       __unwindfunclet$??0?$_Container_base_aux_alloc_real@V?$allocator@J@std@@@std@@IAE@V?$allocator@J@1@@Z$0 10b2ba20 f   GKernelObj.obj
 0001:0002aa20       __unwindfunclet$??0?$_Container_base_aux_alloc_real@V?$allocator@VPMSNSAP@@@std@@@std@@IAE@V?$allocator@VPMSNSAP@@@1@@Z$0 10b2ba20 f   GKernelObj.obj
 0001:0002aa28       __unwindfunclet$??0?$_Container_base_aux_alloc_real@V?$allocator@VPMSRegionInfo@@@std@@@std@@IAE@V?$allocator@VPMSRegionInfo@@@1@@Z$1 10b2ba28 f   GKernelObj.obj
 0001:0002aa28       __unwindfunclet$??0?$_Container_base_aux_alloc_real@V?$allocator@VPMSNSAP@@@std@@@std@@IAE@V?$allocator@VPMSNSAP@@@1@@Z$1 10b2ba28 f   GKernelObj.obj
 0001:0002aa28       __unwindfunclet$??0?$_Container_base_aux_alloc_real@V?$allocator@VPMSStatBase@@@std@@@std@@IAE@V?$allocator@VPMSStatBase@@@1@@Z$1 10b2ba28 f   GKernelObj.obj
 0001:0002aa28       __unwindfunclet$??0?$_Container_base_aux_alloc_real@V?$allocator@J@std@@@std@@IAE@V?$allocator@J@1@@Z$1 10b2ba28 f   GKernelObj.obj
 0001:0002aa28       __unwindfunclet$??0?$_Container_base_aux_alloc_real@V?$allocator@VGBuf@@@std@@@std@@IAE@V?$allocator@VGBuf@@@1@@Z$1 10b2ba28 f   GKernelObj.obj
 0001:0002aa28       __unwindfunclet$??0?$_Container_base_aux_alloc_real@V?$allocator@PAVGSyncObj@@@std@@@std@@IAE@V?$allocator@PAVGSyncObj@@@1@@Z$1 10b2ba28 f   GKernelObj.obj
 0001:0002aa39       __ehhandler$??0?$_Container_base_aux_alloc_real@V?$allocator@VGBuf@@@std@@@std@@IAE@V?$allocator@VGBuf@@@1@@Z 10b2ba39 f   GKernelObj.obj
 0001:0002aa39       __ehhandler$??0?$_Container_base_aux_alloc_real@V?$allocator@J@std@@@std@@IAE@V?$allocator@J@1@@Z 10b2ba39 f   GKernelObj.obj
 0001:0002aa39       __ehhandler$??0?$_Container_base_aux_alloc_real@V?$allocator@VPMSStatBase@@@std@@@std@@IAE@V?$allocator@VPMSStatBase@@@1@@Z 10b2ba39 f   GKernelObj.obj
 0001:0002aa39       __ehhandler$??0?$_Container_base_aux_alloc_real@V?$allocator@VPMSNSAP@@@std@@@std@@IAE@V?$allocator@VPMSNSAP@@@1@@Z 10b2ba39 f   GKernelObj.obj
 0001:0002aa39       __ehhandler$??0?$_Container_base_aux_alloc_real@V?$allocator@PAVGSyncObj@@@std@@@std@@IAE@V?$allocator@PAVGSyncObj@@@1@@Z 10b2ba39 f   GKernelObj.obj
 0001:0002aa39       __ehhandler$??0?$_Container_base_aux_alloc_real@V?$allocator@VPMSRegionInfo@@@std@@@std@@IAE@V?$allocator@VPMSRegionInfo@@@1@@Z 10b2ba39 f   GKernelObj.obj
 0001:0002aa60       __unwindfunclet$??1?$pvector@VGSyncObj@@@@UAE@XZ$0 10b2ba60 f   GKernelObj.obj
 0001:0002aa6b       __ehhandler$??1?$pvector@VGSyncObj@@@@UAE@XZ 10b2ba6b f   GKernelObj.obj
 0001:0002aa90       __unwindfunclet$?Create@GSocket@@UAEHJHV?$basic_string@DU?$char_traits@D@std@@V?$allocator@D@2@@std@@@Z$0 10b2ba90 f   GSocket.obj
 0001:0002aa98       __ehhandler$?Create@GSocket@@UAEHJHV?$basic_string@DU?$char_traits@D@std@@V?$allocator@D@2@@std@@@Z 10b2ba98 f   GSocket.obj
 0001:0002aab3       __unwindfunclet$?Create@GSocket@@UAEHJHV?$basic_string@GU?$char_traits@G@std@@V?$allocator@G@2@@std@@@Z$0 10b2bab3 f   GSocket.obj
 0001:0002aabb       __ehhandler$?Create@GSocket@@UAEHJHV?$basic_string@GU?$char_traits@G@std@@V?$allocator@G@2@@std@@@Z 10b2babb f   GSocket.obj
 0001:0002aad6       __unwindfunclet$?GetPeerName@GSocket@@QAEHAAV?$basic_string@GU?$char_traits@G@std@@V?$allocator@G@2@@std@@AAJ@Z$0 10b2bad6 f   GSocket.obj
 0001:0002aade       __ehhandler$?GetPeerName@GSocket@@QAEHAAV?$basic_string@GU?$char_traits@G@std@@V?$allocator@G@2@@std@@AAJ@Z 10b2bade f   GSocket.obj
 0001:0002ab03       __unwindfunclet$?GetSockName@GSocket@@QAEHAAV?$basic_string@GU?$char_traits@G@std@@V?$allocator@G@2@@std@@AAJ@Z$0 10b2bb03 f   GSocket.obj
 0001:0002ab0b       __ehhandler$?GetSockName@GSocket@@QAEHAAV?$basic_string@GU?$char_traits@G@std@@V?$allocator@G@2@@std@@AAJ@Z 10b2bb0b f   GSocket.obj
 0001:0002ab30       __unwindfunclet$?Bind@GSocket@@QAEHJV?$basic_string@DU?$char_traits@D@std@@V?$allocator@D@2@@std@@@Z$0 10b2bb30 f   GSocket.obj
 0001:0002ab38       __ehhandler$?Bind@GSocket@@QAEHJV?$basic_string@DU?$char_traits@D@std@@V?$allocator@D@2@@std@@@Z 10b2bb38 f   GSocket.obj
 0001:0002ab5d       __unwindfunclet$?Bind@GSocket@@QAEHJV?$basic_string@GU?$char_traits@G@std@@V?$allocator@G@2@@std@@@Z$0 10b2bb5d f   GSocket.obj
 0001:0002ab65       __ehhandler$?Bind@GSocket@@QAEHJV?$basic_string@GU?$char_traits@G@std@@V?$allocator@G@2@@std@@@Z 10b2bb65 f   GSocket.obj
 0001:0002ab8a       __unwindfunclet$?Connect@GSocket@@QAEHV?$basic_string@DU?$char_traits@D@std@@V?$allocator@D@2@@std@@J@Z$0 10b2bb8a f   GSocket.obj
 0001:0002ab92       __ehhandler$?Connect@GSocket@@QAEHV?$basic_string@DU?$char_traits@D@std@@V?$allocator@D@2@@std@@J@Z 10b2bb92 f   GSocket.obj
 0001:0002abb7       __unwindfunclet$?Connect@GSocket@@QAEHV?$basic_string@GU?$char_traits@G@std@@V?$allocator@G@2@@std@@J@Z$0 10b2bbb7 f   GSocket.obj
 0001:0002abbf       __ehhandler$?Connect@GSocket@@QAEHV?$basic_string@GU?$char_traits@G@std@@V?$allocator@G@2@@std@@J@Z 10b2bbbf f   GSocket.obj
 0001:0002abe4       __unwindfunclet$?SendTo@GSocket@@QAEHPBXHJV?$basic_string@DU?$char_traits@D@std@@V?$allocator@D@2@@std@@H@Z$0 10b2bbe4 f   GSocket.obj
 0001:0002abec       __ehhandler$?SendTo@GSocket@@QAEHPBXHJV?$basic_string@DU?$char_traits@D@std@@V?$allocator@D@2@@std@@H@Z 10b2bbec f   GSocket.obj
 0001:0002ac11       __unwindfunclet$?SendTo@GSocket@@QAEHPBXHJV?$basic_string@GU?$char_traits@G@std@@V?$allocator@G@2@@std@@H@Z$0 10b2bc11 f   GSocket.obj
 0001:0002ac19       __ehhandler$?SendTo@GSocket@@QAEHPBXHJV?$basic_string@GU?$char_traits@G@std@@V?$allocator@G@2@@std@@H@Z 10b2bc19 f   GSocket.obj
 0001:0002ac3e       __unwindfunclet$?GetHostAddr@GSocket@@QAEHV?$basic_string@GU?$char_traits@G@std@@V?$allocator@G@2@@std@@PAUsockaddr_in@@HH@Z$0 10b2bc3e f   GSocket.obj
 0001:0002ac46       __unwindfunclet$?GetHostAddr@GSocket@@QAEHV?$basic_string@GU?$char_traits@G@std@@V?$allocator@G@2@@std@@PAUsockaddr_in@@HH@Z$1 10b2bc46 f   GSocket.obj
 0001:0002ac4e       __ehhandler$?GetHostAddr@GSocket@@QAEHV?$basic_string@GU?$char_traits@G@std@@V?$allocator@G@2@@std@@PAUsockaddr_in@@HH@Z 10b2bc4e f   GSocket.obj
 0001:0002ac73       __unwindfunclet$?GetHostAddr@GSocket@@QAEHV?$basic_string@DU?$char_traits@D@std@@V?$allocator@D@2@@std@@PAUsockaddr_in@@HH@Z$0 10b2bc73 f   GSocket.obj
 0001:0002ac7b       __unwindfunclet$?GetHostAddr@GSocket@@QAEHV?$basic_string@DU?$char_traits@D@std@@V?$allocator@D@2@@std@@PAUsockaddr_in@@HH@Z$1 10b2bc7b f   GSocket.obj
 0001:0002ac83       __ehhandler$?GetHostAddr@GSocket@@QAEHV?$basic_string@DU?$char_traits@D@std@@V?$allocator@D@2@@std@@PAUsockaddr_in@@HH@Z 10b2bc83 f   GSocket.obj
 0001:0002acb0       __unwindfunclet$?str2wstr@@YAHAAV?$basic_string@GU?$char_traits@G@std@@V?$allocator@G@2@@std@@V?$basic_string@DU?$char_traits@D@std@@V?$allocator@D@2@@2@@Z$0 10b2bcb0 f   GSocket.obj
 0001:0002acb8       __unwindfunclet$?str2wstr@@YAHAAV?$basic_string@GU?$char_traits@G@std@@V?$allocator@G@2@@std@@V?$basic_string@DU?$char_traits@D@std@@V?$allocator@D@2@@2@@Z$1 10b2bcb8 f   GSocket.obj
 0001:0002acc0       __ehhandler$?str2wstr@@YAHAAV?$basic_string@GU?$char_traits@G@std@@V?$allocator@G@2@@std@@V?$basic_string@DU?$char_traits@D@std@@V?$allocator@D@2@@2@@Z 10b2bcc0 f   GSocket.obj
 0001:0002ace0       __unwindfunclet$?wstr2str@@YAHAAV?$basic_string@DU?$char_traits@D@std@@V?$allocator@D@2@@std@@V?$basic_string@GU?$char_traits@G@std@@V?$allocator@G@2@@2@@Z$0 10b2bce0 f   GSocket.obj
 0001:0002ace8       __unwindfunclet$?wstr2str@@YAHAAV?$basic_string@DU?$char_traits@D@std@@V?$allocator@D@2@@std@@V?$basic_string@GU?$char_traits@G@std@@V?$allocator@G@2@@2@@Z$1 10b2bce8 f   GSocket.obj
 0001:0002acf0       __ehhandler$?wstr2str@@YAHAAV?$basic_string@DU?$char_traits@D@std@@V?$allocator@D@2@@std@@V?$basic_string@GU?$char_traits@G@std@@V?$allocator@G@2@@2@@Z 10b2bcf0 f   GSocket.obj
 0001:0002ad10       __unwindfunclet$?TrySend@@YAHIAAV?$basic_string@DU?$char_traits@D@std@@V?$allocator@D@2@@std@@@Z$0 10b2bd10 f   GSocketUtl.obj
 0001:0002ad18       __ehhandler$?TrySend@@YAHIAAV?$basic_string@DU?$char_traits@D@std@@V?$allocator@D@2@@std@@@Z 10b2bd18 f   GSocketUtl.obj
 0001:0002ad33       __unwindfunclet$??0GTxtSocket@@QAE@XZ$0 10b2bd33 f   GSocketUtl.obj
 0001:0002ad3b       __unwindfunclet$??0GTxtSocket@@QAE@XZ$1 10b2bd3b f   GSocketUtl.obj
 0001:0002ad46       __ehhandler$??0GTxtSocket@@QAE@XZ 10b2bd46 f   GSocketUtl.obj
 0001:0002ad61       __unwindfunclet$??1GTxtSocket@@UAE@XZ$0 10b2bd61 f   GSocketUtl.obj
 0001:0002ad69       __unwindfunclet$??1GTxtSocket@@UAE@XZ$1 10b2bd69 f   GSocketUtl.obj
 0001:0002ad74       __ehhandler$??1GTxtSocket@@UAE@XZ 10b2bd74 f   GSocketUtl.obj
 0001:0002ad8f       __unwindfunclet$?DoSend@GTxtSocket@@UAEHV?$basic_string@DU?$char_traits@D@std@@V?$allocator@D@2@@std@@@Z$0 10b2bd8f f   GSocketUtl.obj
 0001:0002ad97       __ehhandler$?DoSend@GTxtSocket@@UAEHV?$basic_string@DU?$char_traits@D@std@@V?$allocator@D@2@@std@@@Z 10b2bd97 f   GSocketUtl.obj
 0001:0002adb2       __unwindfunclet$??0GBufSocket@@QAE@XZ$0 10b2bdb2 f   GSocketUtl.obj
 0001:0002adba       __unwindfunclet$??0GBufSocket@@QAE@XZ$1 10b2bdba f   GSocketUtl.obj
 0001:0002adc5       __ehhandler$??0GBufSocket@@QAE@XZ 10b2bdc5 f   GSocketUtl.obj
 0001:0002ade0       __unwindfunclet$??1GBufSocket@@UAE@XZ$0 10b2bde0 f   GSocketUtl.obj
 0001:0002ade8       __unwindfunclet$??1GBufSocket@@UAE@XZ$1 10b2bde8 f   GSocketUtl.obj
 0001:0002adf3       __ehhandler$??1GBufSocket@@UAE@XZ 10b2bdf3 f   GSocketUtl.obj
 0001:0002ae10       __unwindfunclet$?Pop@GBufQ@@QAE?AVGBuf@@XZ$0 10b2be10 f   GSocketUtl.obj
 0001:0002ae18       __unwindfunclet$?Pop@GBufQ@@QAE?AVGBuf@@XZ$1 10b2be18 f   GSocketUtl.obj
 0001:0002ae31       __ehhandler$?Pop@GBufQ@@QAE?AVGBuf@@XZ 10b2be31 f   GSocketUtl.obj
 0001:0002ae50       __unwindfunclet$?format@@YA?AV?$basic_string@DU?$char_traits@D@std@@V?$allocator@D@2@@std@@PBDZZ$0 10b2be50 f   GString.obj
 0001:0002ae58       __unwindfunclet$?format@@YA?AV?$basic_string@DU?$char_traits@D@std@@V?$allocator@D@2@@std@@PBDZZ$1 10b2be58 f   GString.obj
 0001:0002ae71       __ehhandler$?format@@YA?AV?$basic_string@DU?$char_traits@D@std@@V?$allocator@D@2@@std@@PBDZZ 10b2be71 f   GString.obj
 0001:0002ae96       __unwindfunclet$?format@@YA?AV?$basic_string@GU?$char_traits@G@std@@V?$allocator@G@2@@std@@PBGZZ$0 10b2be96 f   GString.obj
 0001:0002ae9e       __unwindfunclet$?format@@YA?AV?$basic_string@GU?$char_traits@G@std@@V?$allocator@G@2@@std@@PBGZZ$1 10b2be9e f   GString.obj
 0001:0002aeb7       __ehhandler$?format@@YA?AV?$basic_string@GU?$char_traits@G@std@@V?$allocator@G@2@@std@@PBGZZ 10b2beb7 f   GString.obj
 0001:0002aedc       __unwindfunclet$?trimleft@@YAAAV?$basic_string@DU?$char_traits@D@std@@V?$allocator@D@2@@std@@AAV12@@Z$0 10b2bedc f   GString.obj
 0001:0002aee4       __ehhandler$?trimleft@@YAAAV?$basic_string@DU?$char_traits@D@std@@V?$allocator@D@2@@std@@AAV12@@Z 10b2bee4 f   GString.obj
 0001:0002aeff       __unwindfunclet$?stricmp@@YAHABV?$basic_string@DU?$char_traits@D@std@@V?$allocator@D@2@@std@@0@Z$0 10b2beff f   GString.obj
 0001:0002af07       __unwindfunclet$?stricmp@@YAHABV?$basic_string@DU?$char_traits@D@std@@V?$allocator@D@2@@std@@0@Z$1 10b2bf07 f   GString.obj
 0001:0002af0f       __ehhandler$?stricmp@@YAHABV?$basic_string@DU?$char_traits@D@std@@V?$allocator@D@2@@std@@0@Z 10b2bf0f f   GString.obj
 0001:0002af34       __unwindfunclet$?strncmp@@YAHABV?$basic_string@DU?$char_traits@D@std@@V?$allocator@D@2@@std@@0I@Z$0 10b2bf34 f   GString.obj
 0001:0002af3c       __unwindfunclet$?strncmp@@YAHABV?$basic_string@DU?$char_traits@D@std@@V?$allocator@D@2@@std@@0I@Z$1 10b2bf3c f   GString.obj
 0001:0002af44       __ehhandler$?strncmp@@YAHABV?$basic_string@DU?$char_traits@D@std@@V?$allocator@D@2@@std@@0I@Z 10b2bf44 f   GString.obj
 0001:0002af69       __unwindfunclet$?strnicmp@@YAHABV?$basic_string@DU?$char_traits@D@std@@V?$allocator@D@2@@std@@0I@Z$0 10b2bf69 f   GString.obj
 0001:0002af71       __unwindfunclet$?strnicmp@@YAHABV?$basic_string@DU?$char_traits@D@std@@V?$allocator@D@2@@std@@0I@Z$1 10b2bf71 f   GString.obj
 0001:0002af79       __unwindfunclet$?strnicmp@@YAHABV?$basic_string@DU?$char_traits@D@std@@V?$allocator@D@2@@std@@0I@Z$2 10b2bf79 f   GString.obj
 0001:0002af81       __unwindfunclet$?strnicmp@@YAHABV?$basic_string@DU?$char_traits@D@std@@V?$allocator@D@2@@std@@0I@Z$3 10b2bf81 f   GString.obj
 0001:0002af8c       __ehhandler$?strnicmp@@YAHABV?$basic_string@DU?$char_traits@D@std@@V?$allocator@D@2@@std@@0I@Z 10b2bf8c f   GString.obj
 0001:0002afb4       __unwindfunclet$?trimleft@@YAAAV?$basic_string@GU?$char_traits@G@std@@V?$allocator@G@2@@std@@AAV12@@Z$0 10b2bfb4 f   GString.obj
 0001:0002afbc       __ehhandler$?trimleft@@YAAAV?$basic_string@GU?$char_traits@G@std@@V?$allocator@G@2@@std@@AAV12@@Z 10b2bfbc f   GString.obj
 0001:0002afd7       __unwindfunclet$?stricmp@@YAHABV?$basic_string@GU?$char_traits@G@std@@V?$allocator@G@2@@std@@0@Z$0 10b2bfd7 f   GString.obj
 0001:0002afdf       __unwindfunclet$?stricmp@@YAHABV?$basic_string@GU?$char_traits@G@std@@V?$allocator@G@2@@std@@0@Z$1 10b2bfdf f   GString.obj
 0001:0002afe7       __ehhandler$?stricmp@@YAHABV?$basic_string@GU?$char_traits@G@std@@V?$allocator@G@2@@std@@0@Z 10b2bfe7 f   GString.obj
 0001:0002b00c       __unwindfunclet$?strncmp@@YAHABV?$basic_string@GU?$char_traits@G@std@@V?$allocator@G@2@@std@@0I@Z$0 10b2c00c f   GString.obj
 0001:0002b014       __unwindfunclet$?strncmp@@YAHABV?$basic_string@GU?$char_traits@G@std@@V?$allocator@G@2@@std@@0I@Z$1 10b2c014 f   GString.obj
 0001:0002b01c       __ehhandler$?strncmp@@YAHABV?$basic_string@GU?$char_traits@G@std@@V?$allocator@G@2@@std@@0I@Z 10b2c01c f   GString.obj
 0001:0002b041       __unwindfunclet$?strnicmp@@YAHABV?$basic_string@GU?$char_traits@G@std@@V?$allocator@G@2@@std@@0I@Z$0 10b2c041 f   GString.obj
 0001:0002b049       __unwindfunclet$?strnicmp@@YAHABV?$basic_string@GU?$char_traits@G@std@@V?$allocator@G@2@@std@@0I@Z$1 10b2c049 f   GString.obj
 0001:0002b051       __unwindfunclet$?strnicmp@@YAHABV?$basic_string@GU?$char_traits@G@std@@V?$allocator@G@2@@std@@0I@Z$2 10b2c051 f   GString.obj
 0001:0002b059       __unwindfunclet$?strnicmp@@YAHABV?$basic_string@GU?$char_traits@G@std@@V?$allocator@G@2@@std@@0I@Z$3 10b2c059 f   GString.obj
 0001:0002b064       __ehhandler$?strnicmp@@YAHABV?$basic_string@GU?$char_traits@G@std@@V?$allocator@G@2@@std@@0I@Z 10b2c064 f   GString.obj
 0001:0002b08c       __unwindfunclet$?wstr2str@@YA?AV?$basic_string@DU?$char_traits@D@std@@V?$allocator@D@2@@std@@ABV?$basic_string@GU?$char_traits@G@std@@V?$allocator@G@2@@2@@Z$0 10b2c08c f   GString.obj
 0001:0002b097       __unwindfunclet$?wstr2str@@YA?AV?$basic_string@DU?$char_traits@D@std@@V?$allocator@D@2@@std@@ABV?$basic_string@GU?$char_traits@G@std@@V?$allocator@G@2@@2@@Z$1 10b2c097 f   GString.obj
 0001:0002b0b6       __ehhandler$?wstr2str@@YA?AV?$basic_string@DU?$char_traits@D@std@@V?$allocator@D@2@@std@@ABV?$basic_string@GU?$char_traits@G@std@@V?$allocator@G@2@@2@@Z 10b2c0b6 f   GString.obj
 0001:0002b0de       __unwindfunclet$?str2wstr@@YA?AV?$basic_string@GU?$char_traits@G@std@@V?$allocator@G@2@@std@@ABV?$basic_string@DU?$char_traits@D@std@@V?$allocator@D@2@@2@@Z$0 10b2c0de f   GString.obj
 0001:0002b0e9       __unwindfunclet$?str2wstr@@YA?AV?$basic_string@GU?$char_traits@G@std@@V?$allocator@G@2@@std@@ABV?$basic_string@DU?$char_traits@D@std@@V?$allocator@D@2@@2@@Z$1 10b2c0e9 f   GString.obj
 0001:0002b108       __ehhandler$?str2wstr@@YA?AV?$basic_string@GU?$char_traits@G@std@@V?$allocator@G@2@@std@@ABV?$basic_string@DU?$char_traits@D@std@@V?$allocator@D@2@@2@@Z 10b2c108 f   GString.obj
 0001:0002b130       __unwindfunclet$?_Xran@_String_base@std@@SAXXZ$0 10b2c130 f   libcpmt:string.obj
 0001:0002b130       __unwindfunclet$?_Xlen@_String_base@std@@SAXXZ$0 10b2c130 f   libcpmt:string.obj
 0001:0002b138       __ehhandler$?_Xran@_String_base@std@@SAXXZ 10b2c138 f   libcpmt:string.obj
 0001:0002b138       __ehhandler$?_Xlen@_String_base@std@@SAXXZ 10b2c138 f   libcpmt:string.obj
 0001:0002b153       __ehhandler$?CallUnexpected@@YAXPBU_s_ESTypeList@@@Z 10b2c153 f   LIBCMT:frame.obj
 0001:0002b170       ??__EtheErr@@YAXXZ         10b2c170 f   ErrorLog.obj
 0001:0002b190       ??__Eg_linkMgr@@YAXXZ      10b2c190 f   LinkManager.obj
 0001:0002b1b0       ??__FtheErr@@YAXXZ         10b2c1b0 f   ErrorLog.obj
 0001:0002b1c0       ??__Fg_linkMgr@@YAXXZ      10b2c1c0 f   LinkManager.obj
 0001:0002b1cf       ??__Fnomem@?5???2@YAPAXI@Z@YAXXZ 10b2c1cf f   LIBCMT:new.obj
