 PMSConnD

 Timestamp is 4b6bc51e (Fri Feb 05 16:13:34 2010)

 Preferred load address is 10b00000

 Start         Length     Name                   Class
 0001:00000000 0004dbe8H .text                   CODE
 0001:0004dbf0 00002223H .text$x                 CODE
 0001:0004fe20 0000007eH .text$yc                CODE
 0001:0004fea0 00000071H .text$yd                CODE
 0002:00000000 00000278H .idata$5                DATA
 0002:00000278 00000004H .CRT$XCA                DATA
 0002:0000027c 00000004H .CRT$XCC                DATA
 0002:00000280 00000008H .CRT$XCU                DATA
 0002:00000288 00000004H .CRT$XCZ                DATA
 0002:0000028c 00000004H .CRT$XIA                DATA
 0002:00000290 00000010H .CRT$XIC                DATA
 0002:000002a0 00000004H .CRT$XIZ                DATA
 0002:000002a4 00000004H .CRT$XPA                DATA
 0002:000002a8 00000008H .CRT$XPX                DATA
 0002:000002b0 00000004H .CRT$XPXA               DATA
 0002:000002b4 00000004H .CRT$XPZ                DATA
 0002:000002b8 00000004H .CRT$XTA                DATA
 0002:000002bc 00000004H .CRT$XTZ                DATA
 0002:000002c0 0000bbc8H .rdata                  DATA
 0002:0000be88 0000005dH .rdata$debug            DATA
 0002:0000bee8 00000dd4H .rdata$r                DATA
 0002:0000ccc0 000002b4H .rdata$sxdata           DATA
 0002:0000cf74 00000004H .rtc$IAA                DATA
 0002:0000cf78 00000000H .rtc$IMZ                DATA
 0002:0000cf78 00000004H .rtc$IZZ                DATA
 0002:0000cf7c 00000004H .rtc$TAA                DATA
 0002:0000cf80 00000000H .rtc$TMZ                DATA
 0002:0000cf80 00000004H .rtc$TZZ                DATA
 0002:0000cf88 00002e7cH .xdata$x                DATA
 0002:0000fe04 00000064H .idata$2                DATA
 0002:0000fe68 00000014H .idata$3                DATA
 0002:0000fe7c 00000278H .idata$4                DATA
 0002:000100f4 000008caH .idata$6                DATA
 0002:000109c0 000000c8H .edata                  DATA
 0003:00000000 00001af4H .data                   DATA
 0003:00001b00 00001f68H .bss                    DATA
 0004:00000000 00000058H .rsrc$01                DATA
 0004:00000060 00000318H .rsrc$02                DATA

  Address         Publics by Value              Rva+Base       Lib:Object

 0000:00000000       __except_list              00000000     <absolute>
 0000:000000ad       ___safe_se_handler_count   000000ad     <absolute>
 0000:00000000       ___ImageBase               10b00000     <linker-defined>
 0001:00000000       ??0CErrorLog@@QAE@XZ       10b01000 f   ErrorLog.obj
 0001:00000230       ??1CErrorLog@@QAE@XZ       10b01230 f   ErrorLog.obj
 0001:00000260       ?LOG@CErrorLog@@QAAXHPADZZ 10b01260 f   ErrorLog.obj
 0001:00000430       ?SetIsLog@CErrorLog@@QAEHXZ 10b01430 f   ErrorLog.obj
 0001:00000530       ?NewLogFile@CErrorLog@@QAEXXZ 10b01530 f   ErrorLog.obj
 0001:00000550       ??0GCriticalSection@@QAE@XZ 10b01550 f i ErrorLog.obj
 0001:00000580       ??1GCriticalSection@@QAE@XZ 10b01580 f i ErrorLog.obj
 0001:000005b0       ?rfind@?$basic_string@DU?$char_traits@D@std@@V?$allocator@D@2@@std@@QBEIDI@Z 10b015b0 f i ErrorLog.obj
 0001:000005e0       ?substr@?$basic_string@DU?$char_traits@D@std@@V?$allocator@D@2@@std@@QBE?AV12@II@Z 10b015e0 f i ErrorLog.obj
 0001:00000650       ??0?$basic_string@DU?$char_traits@D@std@@V?$allocator@D@2@@std@@QAE@ABV01@IIABV?$allocator@D@1@@Z 10b01650 f i ErrorLog.obj
 0001:00000700       ?rfind@?$basic_string@DU?$char_traits@D@std@@V?$allocator@D@2@@std@@QBEIPBDII@Z 10b01700 f i ErrorLog.obj
 0001:00000810       ?eq@?$char_traits@D@std@@SA_NABD0@Z 10b01810 f i ErrorLog.obj
 0001:00000830       ?compare@?$char_traits@D@std@@SAHPBD0I@Z 10b01830 f i ErrorLog.obj
 0001:00000850       ??0GCRITICAL_SECTION@@QAE@K@Z 10b01850 f i ErrorLog.obj
 0001:000008a0       ??1GCRITICAL_SECTION@@QAE@XZ 10b018a0 f i ErrorLog.obj
 0001:000008e0       ??0?$basic_string@DU?$char_traits@D@std@@V?$allocator@D@2@@std@@QAE@PBD@Z 10b018e0 f i ErrorLog.obj
 0001:00000970       ??1?$basic_string@DU?$char_traits@D@std@@V?$allocator@D@2@@std@@QAE@XZ 10b01970 f i ErrorLog.obj
 0001:000009e0       ?c_str@?$basic_string@DU?$char_traits@D@std@@V?$allocator@D@2@@std@@QBEPBDXZ 10b019e0 f i ErrorLog.obj
 0001:00000a10       ??1_Container_base_secure@std@@QAE@XZ 10b01a10 f i ErrorLog.obj
 0001:00000a40       ?_Orphan_all@_Container_base_secure@std@@QBEXXZ 10b01a40 f i ErrorLog.obj
 0001:00000af0       ?assign@?$basic_string@DU?$char_traits@D@std@@V?$allocator@D@2@@std@@QAEAAV12@ABV12@II@Z 10b01af0 f i ErrorLog.obj
 0001:00000bc0       ?length@?$basic_string@DU?$char_traits@D@std@@V?$allocator@D@2@@std@@QBEIXZ 10b01bc0 f i LinkManager.obj
 0001:00000bc0       ?size@?$basic_string@DU?$char_traits@D@std@@V?$allocator@D@2@@std@@QBEIXZ 10b01bc0 f i ErrorLog.obj
 0001:00000bc0       ?length@?$basic_string@_WU?$char_traits@_W@std@@V?$allocator@_W@2@@std@@QBEIXZ 10b01bc0 f i GString.obj
 0001:00000bc0       ?size@?$basic_string@_WU?$char_traits@_W@std@@V?$allocator@_W@2@@std@@QBEIXZ 10b01bc0 f i GAdlUtl.obj
 0001:00000be0       ?assign@?$basic_string@DU?$char_traits@D@std@@V?$allocator@D@2@@std@@QAEAAV12@PBD@Z 10b01be0 f i ErrorLog.obj
 0001:00000c30       ?length@?$char_traits@D@std@@SAIPBD@Z 10b01c30 f i ErrorLog.obj
 0001:00000c50       ?assign@?$basic_string@DU?$char_traits@D@std@@V?$allocator@D@2@@std@@QAEAAV12@PBDI@Z 10b01c50 f i ErrorLog.obj
 0001:00000d10       ?_Eos@?$basic_string@DU?$char_traits@D@std@@V?$allocator@D@2@@std@@IAEXI@Z 10b01d10 f i ErrorLog.obj
 0001:00000d60       ?assign@?$char_traits@D@std@@SAXAADABD@Z 10b01d60 f i ErrorLog.obj
 0001:00000d70       ?_Grow@?$basic_string@DU?$char_traits@D@std@@V?$allocator@D@2@@std@@IAE_NI_N@Z 10b01d70 f i ErrorLog.obj
 0001:00000e20       ?_Inside@?$basic_string@DU?$char_traits@D@std@@V?$allocator@D@2@@std@@IAE_NPBD@Z 10b01e20 f i ErrorLog.obj
 0001:00000e70       ?_Tidy@?$basic_string@DU?$char_traits@D@std@@V?$allocator@D@2@@std@@IAEX_NI@Z 10b01e70 f i ErrorLog.obj
 0001:00000f10       ?_Myptr@?$basic_string@DU?$char_traits@D@std@@V?$allocator@D@2@@std@@IBEPBDXZ 10b01f10 f i ErrorLog.obj
 0001:00000f10       ?_Myptr@?$basic_string@DU?$char_traits@D@std@@V?$allocator@D@2@@std@@IAEPADXZ 10b01f10 f i ErrorLog.obj
 0001:00000f50       ??0?$_String_val@_WV?$allocator@_W@std@@@std@@IAE@V?$allocator@_W@1@@Z 10b01f50 f i GAdlUtl.obj
 0001:00000f50       ??0?$_String_val@DV?$allocator@D@std@@@std@@IAE@V?$allocator@D@1@@Z 10b01f50 f i ErrorLog.obj
 0001:00000f90       ??0_String_base@std@@QAE@XZ 10b01f90 f i ErrorLog.obj
 0001:00000fc0       ?erase@?$basic_string@DU?$char_traits@D@std@@V?$allocator@D@2@@std@@QAEAAV12@II@Z 10b01fc0 f i ErrorLog.obj
 0001:00001070       ?max_size@?$basic_string@DU?$char_traits@D@std@@V?$allocator@D@2@@std@@QBEIXZ 10b02070 f i ErrorLog.obj
 0001:000010d0       ?_Copy@?$basic_string@DU?$char_traits@D@std@@V?$allocator@D@2@@std@@IAEXII@Z 10b020d0 f i ErrorLog.obj
 0001:00001280       ?allocate@?$allocator@D@std@@QAEPADI@Z 10b02280 f i ErrorLog.obj
 0001:000012b0       ?max_size@?$allocator@D@std@@QBEIXZ 10b022b0 f i ErrorLog.obj
 0001:00001300       ??$copy_s@U?$char_traits@D@std@@@_Traits_helper@std@@YAPADPADIPBDI@Z 10b02300 f i ErrorLog.obj
 0001:00001340       ??$move_s@U?$char_traits@D@std@@@_Traits_helper@std@@YAPADPADIPBDI@Z 10b02340 f i ErrorLog.obj
 0001:00001380       ??$_Allocate@D@std@@YAPADIPAD@Z 10b02380 f i ErrorLog.obj
 0001:000013f0       ??0bad_alloc@std@@QAE@PBD@Z 10b023f0 f i ErrorLog.obj
 0001:00001430       ??1bad_alloc@std@@UAE@XZ   10b02430 f i ErrorLog.obj
 0001:00001460       ??_Ebad_alloc@std@@UAEPAXI@Z 10b02460 f i ErrorLog.obj
 0001:00001460       ??_Gbad_alloc@std@@UAEPAXI@Z 10b02460 f i ErrorLog.obj
 0001:000014a0       ??0bad_alloc@std@@QAE@ABV01@@Z 10b024a0 f i ErrorLog.obj
 0001:000014e0       ??$_Char_traits_cat@U?$char_traits@_W@std@@@std@@YA?AU_Secure_char_traits_tag@0@XZ 10b024e0 f i GAdlUtl.obj
 0001:000014e0       ??$_Char_traits_cat@U?$char_traits@D@std@@@std@@YA?AU_Secure_char_traits_tag@0@XZ 10b024e0 f i ErrorLog.obj
 0001:00001530       ??$copy_s@U?$char_traits@D@std@@@_Traits_helper@std@@YAPADPADIPBDIU_Secure_char_traits_tag@1@@Z 10b02530 f i ErrorLog.obj
 0001:00001560       ?_Copy_s@?$char_traits@D@std@@SAPADPADIPBDI@Z 10b02560 f i ErrorLog.obj
 0001:00001590       ??$move_s@U?$char_traits@D@std@@@_Traits_helper@std@@YAPADPADIPBDIU_Secure_char_traits_tag@1@@Z 10b02590 f i ErrorLog.obj
 0001:000015c0       ?_Move_s@?$char_traits@D@std@@SAPADPADIPBDI@Z 10b025c0 f i ErrorLog.obj
 0001:000015f0       ?_ThreadRoutine@@YGKPAX@Z  10b025f0 f   LinkManager.obj
 0001:00001640       ?GetOptValue@@YAPADHQAPADPBD@Z 10b02640 f   LinkManager.obj
 0001:00001700       ?GetOptValueInt@@YAKHQAPADPBD@Z 10b02700 f   LinkManager.obj
 0001:00001750       ?IsExsistOptValue@@YAHHQAPADPBD@Z 10b02750 f   LinkManager.obj
 0001:00001810       ?GetExecuteFileName@@YAXPAD@Z 10b02810 f   LinkManager.obj
 0001:00001a10       ??0CLinkManager@@QAE@XZ    10b02a10 f   LinkManager.obj
 0001:00001b10       ??1CLinkManager@@UAE@XZ    10b02b10 f   LinkManager.obj
 0001:00001bb0       ?Stop@CLinkManager@@QAEXXZ 10b02bb0 f   LinkManager.obj
 0001:00001d80       ?Init@CLinkManager@@QAEKHQAPAD@Z 10b02d80 f   LinkManager.obj
 0001:00001fc0       ?TryConnectToHA@CLinkManager@@AAEXXZ 10b02fc0 f   LinkManager.obj
 0001:000026d0       ?Main@CLinkManager@@QAEKXZ 10b036d0 f   LinkManager.obj
 0001:00002940       ?Run@CLinkManager@@QAEKPAUIPMSObject@@@Z 10b03940 f   LinkManager.obj
 0001:00002ae0       ?_tcsstr@@YAPADPADPBD@Z    10b03ae0 f i LinkManager.obj
 0001:00002b00       __tcsstr                   10b03b00 f i LinkManager.obj
 0001:00002b20       ?Lock@CLinkManager@@UBGXXZ 10b03b20 f i LinkManager.obj
 0001:00002b40       ?Unlock@CLinkManager@@UBGXXZ 10b03b40 f i LinkManager.obj
 0001:00002b60       ??_GCLinkManager@@UAEPAXI@Z 10b03b60 f i LinkManager.obj
 0001:00002b60       ??_ECLinkManager@@UAEPAXI@Z 10b03b60 f i LinkManager.obj
 0001:00002ba0       ??0?$AdlSocketSingleT@VGSocketHandler@@VGBufSocket@@VPayloadGS@@@@QAE@XZ 10b03ba0 f i LinkManager.obj
 0001:00002bd0       ??1?$AdlSocketSingleT@VGSocketHandler@@VGBufSocket@@VPayloadGS@@@@QAE@XZ 10b03bd0 f i LinkManager.obj
 0001:00002c00       ??0_PMSConfig@@QAE@XZ      10b03c00 f i LinkManager.obj
 0001:00002c70       ??1_PMSConfig@@QAE@XZ      10b03c70 f i LinkManager.obj
 0001:00002ce0       ??0GSafeBufQ@@QAE@XZ       10b03ce0 f i LinkManager.obj
 0001:00002d60       ??0?$AdlSocketDispatcherImplT@V?$BufSocketSingleT@VGSocketHandler@@VGBufSocket@@@@VPayloadGS@@@@QAE@XZ 10b03d60 f i LinkManager.obj
 0001:00002d90       ??1?$AdlSocketDispatcherImplT@V?$BufSocketSingleT@VGSocketHandler@@VGBufSocket@@@@VPayloadGS@@@@QAE@XZ 10b03d90 f i LinkManager.obj
 0001:00002dc0       ??0?$BufSocketSingleT@VGSocketHandler@@VGBufSocket@@@@QAE@XZ 10b03dc0 f i LinkManager.obj
 0001:00002df0       ??1?$BufSocketSingleT@VGSocketHandler@@VGBufSocket@@@@QAE@XZ 10b03df0 f i LinkManager.obj
 0001:00002e20       ??0?$BufSocketDispatcherImplT@V?$SocketSingleT@VGSocketHandler@@VGBufSocket@@@@@@QAE@XZ 10b03e20 f i LinkManager.obj
 0001:00002e50       ??1?$BufSocketDispatcherImplT@V?$SocketSingleT@VGSocketHandler@@VGBufSocket@@@@@@QAE@XZ 10b03e50 f i LinkManager.obj
 0001:00002e80       ??0?$SocketSingleT@VGSocketHandler@@VGBufSocket@@@@QAE@XZ 10b03e80 f i LinkManager.obj
 0001:00002f00       ??1?$SocketSingleT@VGSocketHandler@@VGBufSocket@@@@QAE@XZ 10b03f00 f i LinkManager.obj
 0001:00002f70       ??0?$SocketDispatcherT@VGSocketHandler@@VGBufSocket@@@@QAE@XZ 10b03f70 f i LinkManager.obj
 0001:00002fa0       ??1?$SocketDispatcherT@VGSocketHandler@@VGBufSocket@@@@QAE@XZ 10b03fa0 f i LinkManager.obj
 0001:00002fd0       ??0GSocketHandler@@QAE@XZ  10b03fd0 f i LinkManager.obj
 0001:00003010       ??1GSocketHandler@@QAE@XZ  10b04010 f i LinkManager.obj
 0001:00003040       ??1GSafeBufQ@@QAE@XZ       10b04040 f i LinkManager.obj
 0001:000030b0       ??0PMSNSAP@@QAE@XZ         10b040b0 f i LinkManager.obj
 0001:000030e0       ?Clear@PMSNSAP@@QAEXXZ     10b040e0 f i LinkManager.obj
 0001:00003110       ??0PayloadHA@@QAE@I@Z      10b04110 f i LinkManager.obj
 0001:00003520       ??0PMSAGSInitNtf@@QAE@XZ   10b04520 f i LinkManager.obj
 0001:000035a0       ??1?$ArcVectorT@VPMSNSAP@@@@QAE@XZ 10b045a0 f i LinkManager.obj
 0001:000035d0       ?Clear@PMSAGSInitNtf@@QAEXXZ 10b045d0 f i LinkManager.obj
 0001:00003630       ??0PMSAInitFaultNtf@@QAE@XZ 10b04630 f i LinkManager.obj
 0001:00003660       ??0PMSUnitID@@QAE@XZ       10b04660 f i LinkManager.obj
 0001:00003690       ?Clear@PMSUnitID@@UAEXXZ   10b04690 f i LinkManager.obj
 0001:000036c0       ?Clear@PMSAInitFaultNtf@@QAEXXZ 10b046c0 f i LinkManager.obj
 0001:00003700       ??0PMSAPerformAns@@QAE@XZ  10b04700 f i LinkManager.obj
 0001:00003730       ??0PMSARegionInfoAns@@QAE@XZ 10b04730 f i LinkManager.obj
 0001:00003730       ??0PMSARegionInfoPCAns@@QAE@XZ 10b04730 f i LinkManager.obj
 0001:00003760       ??0PMSAOrderAns@@QAE@XZ    10b04760 f i LinkManager.obj
 0001:00003830       ??0PMSAWarningNtf@@QAE@XZ  10b04830 f i LinkManager.obj
 0001:000038d0       ??0PMSAStatInfoPCAns@@QAE@XZ 10b048d0 f i LinkManager.obj
 0001:000038d0       ??0PMSAStatInfoAns@@QAE@XZ 10b048d0 f i LinkManager.obj
 0001:00003900       ??1PayloadHA@@QAE@XZ       10b04900 f i LinkManager.obj
 0001:00003930       ?Destroy@PayloadHA@@QAEXXZ 10b04930 f i LinkManager.obj
 0001:00003b80       ??_GPMSAGSInitNtf@@QAEPAXI@Z 10b04b80 f i LinkManager.obj
 0001:00003bc0       ??_GPMSAPerformAns@@QAEPAXI@Z 10b04bc0 f i LinkManager.obj
 0001:00003c00       ??_GPMSARegionInfoPCAns@@QAEPAXI@Z 10b04c00 f i LinkManager.obj
 0001:00003c00       ??_GPMSARegionInfoAns@@QAEPAXI@Z 10b04c00 f i LinkManager.obj
 0001:00003c40       ??_GPMSAOrderAns@@QAEPAXI@Z 10b04c40 f i LinkManager.obj
 0001:00003c80       ??_GPMSAWarningNtf@@QAEPAXI@Z 10b04c80 f i LinkManager.obj
 0001:00003cc0       ??_GPMSAStatInfoAns@@QAEPAXI@Z 10b04cc0 f i LinkManager.obj
 0001:00003cc0       ??_GPMSAStatInfoPCAns@@QAEPAXI@Z 10b04cc0 f i LinkManager.obj
 0001:00003d00       ??1PMSAGSInitNtf@@QAE@XZ   10b04d00 f i LinkManager.obj
 0001:00003d70       ??1PMSAPerformAns@@QAE@XZ  10b04d70 f i LinkManager.obj
 0001:00003da0       ??1?$ArcVectorT@J@@QAE@XZ  10b04da0 f i LinkManager.obj
 0001:00003dd0       ??1?$ArcVectorT@VPMSStatBase@@@@QAE@XZ 10b04dd0 f i LinkManager.obj
 0001:00003e00       ??1?$ArcVectorT@VPMSRegionInfo@@@@QAE@XZ 10b04e00 f i LinkManager.obj
 0001:00003e30       ??1PMSAOrderAns@@QAE@XZ    10b04e30 f i LinkManager.obj
 0001:00003ec0       ??1PMSAWarningNtf@@QAE@XZ  10b04ec0 f i LinkManager.obj
 0001:00003f30       ??1PMSAStatInfoAns@@QAE@XZ 10b04f30 f i LinkManager.obj
 0001:00003f30       ??1PMSAStatInfoPCAns@@QAE@XZ 10b04f30 f i LinkManager.obj
 0001:00003f60       ??1PMSARegionInfoPCAns@@QAE@XZ 10b04f60 f i LinkManager.obj
 0001:00003f60       ??1PMSARegionInfoAns@@QAE@XZ 10b04f60 f i LinkManager.obj
 0001:00003f90       ?BeginThread@@YAPAXPAU_SECURITY_ATTRIBUTES@@KP6GKPAX@Z1KPAK@Z 10b04f90 f i LinkManager.obj
 0001:00003fc0       ?find_last_of@?$basic_string@DU?$char_traits@D@std@@V?$allocator@D@2@@std@@QBEIPBDI@Z 10b04fc0 f i LinkManager.obj
 0001:00004020       ??0?$ArcVectorT@J@@QAE@XZ  10b05020 f i LinkManager.obj
 0001:00004050       ??1?$vector@JV?$allocator@J@std@@@std@@QAE@XZ 10b05050 f i LinkManager.obj
 0001:00004050       ??1?$vector@PAVGSyncObj@@V?$allocator@PAVGSyncObj@@@std@@@std@@QAE@XZ 10b05050 f i GKernelObj.obj
 0001:000040c0       ??0?$ArcVectorT@VPMSNSAP@@@@QAE@XZ 10b050c0 f i LinkManager.obj
 0001:000040f0       ??1?$vector@VPMSNSAP@@V?$allocator@VPMSNSAP@@@std@@@std@@QAE@XZ 10b050f0 f i LinkManager.obj
 0001:00004160       ?push_back@?$vector@VPMSNSAP@@V?$allocator@VPMSNSAP@@@std@@@std@@QAEXABVPMSNSAP@@@Z 10b05160 f i LinkManager.obj
 0001:00004260       ?clear@?$vector@VPMSNSAP@@V?$allocator@VPMSNSAP@@@std@@@std@@QAEXXZ 10b05260 f i LinkManager.obj
 0001:00004360       ??0?$ArcVectorT@VPMSStatBase@@@@QAE@XZ 10b05360 f i LinkManager.obj
 0001:00004390       ??1?$vector@VPMSStatBase@@V?$allocator@VPMSStatBase@@@std@@@std@@QAE@XZ 10b05390 f i LinkManager.obj
 0001:00004400       ??0?$ArcVectorT@VPMSRegionInfo@@@@QAE@XZ 10b05400 f i LinkManager.obj
 0001:00004430       ??1?$vector@VPMSRegionInfo@@V?$allocator@VPMSRegionInfo@@@std@@@std@@QAE@XZ 10b05430 f i LinkManager.obj
 0001:000044a0       ?OnReceive@?$AdlSocketDispatcherImplT@V?$BufSocketSingleT@VGSocketHandler@@VGBufSocket@@@@VPayloadGS@@@@MAEHPAVGBufSocket@@H@Z 10b054a0 f i LinkManager.obj
 0001:00004680       ??0_Iterator_base@std@@QAE@XZ 10b05680 f i LinkManager.obj
 0001:00004680       ??0PayloadGS@@QAE@XZ       10b05680 f i LinkManager.obj
 0001:00004680       ??0PMSAAnnounceAns@@QAE@XZ 10b05680 f i LinkManager.obj
 0001:00004680       ??0PMSAHeartBeatAns@@QAE@XZ 10b05680 f i LinkManager.obj
 0001:000046b0       ??1PayloadGS@@QAE@XZ       10b056b0 f i LinkManager.obj
 0001:000046e0       ?Destroy@PayloadGS@@QAEXXZ 10b056e0 f i LinkManager.obj
 0001:00004810       ??_GPMSAAnnounceReq@@QAEPAXI@Z 10b05810 f i LinkManager.obj
 0001:00004850       ??_GPMSAOrderReq@@QAEPAXI@Z 10b05850 f i LinkManager.obj
 0001:00004890       ??1PMSAAnnounceReq@@QAE@XZ 10b05890 f i LinkManager.obj
 0001:000048c0       ??1PMSAOrderReq@@QAE@XZ    10b058c0 f i LinkManager.obj
 0001:00004940       ?OnSend@?$AdlSocketDispatcherImplT@V?$BufSocketSingleT@VGSocketHandler@@VGBufSocket@@@@VPayloadGS@@@@MAEHPAVGBufSocket@@H@Z 10b05940 f i LinkManager.obj
 0001:000049d0       ?OnReceive@?$BufSocketDispatcherImplT@V?$SocketSingleT@VGSocketHandler@@VGBufSocket@@@@@@MAEHPAVGBufSocket@@H@Z 10b059d0 f i LinkManager.obj
 0001:00004a60       ?OnSend@?$BufSocketDispatcherImplT@V?$SocketSingleT@VGSocketHandler@@VGBufSocket@@@@@@MAEHPAVGBufSocket@@H@Z 10b05a60 f i LinkManager.obj
 0001:00004af0       ?GetSocket@?$SocketSingleT@VGSocketHandler@@VGBufSocket@@@@QAEPAVGBufSocket@@XZ 10b05af0 f i LinkManager.obj
 0001:00004b20       ?Attach@?$SocketSingleT@VGSocketHandler@@VGBufSocket@@@@IAEHPAVGBufSocket@@J@Z 10b05b20 f i LinkManager.obj
 0001:00004b70       ?Detach@?$SocketSingleT@VGSocketHandler@@VGBufSocket@@@@IAEPAVGBufSocket@@XZ 10b05b70 f i LinkManager.obj
 0001:00004bc0       ?Dispatch@?$SocketSingleT@VGSocketHandler@@VGBufSocket@@@@MAEXXZ 10b05bc0 f i LinkManager.obj
 0001:00004c20       ?DispatchSocket@?$SocketDispatcherT@VGSocketHandler@@VGBufSocket@@@@MAEXPAVGBufSocket@@@Z 10b05c20 f i LinkManager.obj
 0001:00004d70       ?OnSocketNotify@?$SocketDispatcherT@VGSocketHandler@@VGBufSocket@@@@MAEHPAVGBufSocket@@JH@Z 10b05d70 f i LinkManager.obj
 0001:00004ff0       ?OnReceive@?$SocketDispatcherT@VGSocketHandler@@VGBufSocket@@@@MAEHPAVGBufSocket@@H@Z 10b05ff0 f i LinkManager.obj
 0001:00005050       ?OnSend@?$SocketDispatcherT@VGSocketHandler@@VGBufSocket@@@@MAEHPAVGBufSocket@@H@Z 10b06050 f i LinkManager.obj
 0001:000050b0       ?OnOOB@?$SocketDispatcherT@VGSocketHandler@@VGBufSocket@@@@MAEHPAVGBufSocket@@H@Z 10b060b0 f i LinkManager.obj
 0001:00005110       ?OnAccept@?$SocketDispatcherT@VGSocketHandler@@VGBufSocket@@@@MAEHPAVGBufSocket@@H@Z 10b06110 f i LinkManager.obj
 0001:00005170       ?OnConnect@?$SocketDispatcherT@VGSocketHandler@@VGBufSocket@@@@MAEHPAVGBufSocket@@H@Z 10b06170 f i LinkManager.obj
 0001:000051d0       ?OnClose@?$SocketDispatcherT@VGSocketHandler@@VGBufSocket@@@@MAEHPAVGBufSocket@@H@Z 10b061d0 f i LinkManager.obj
 0001:00005210       ?OnQOS@?$SocketDispatcherT@VGSocketHandler@@VGBufSocket@@@@MAEHPAVGBufSocket@@H@Z 10b06210 f i LinkManager.obj
 0001:00005270       ?OnGroupQOS@?$SocketDispatcherT@VGSocketHandler@@VGBufSocket@@@@MAEHPAVGBufSocket@@H@Z 10b06270 f i LinkManager.obj
 0001:000052e0       ?OnRoutingInterfaceChange@?$SocketDispatcherT@VGSocketHandler@@VGBufSocket@@@@MAEHPAVGBufSocket@@H@Z 10b062e0 f i LinkManager.obj
 0001:00005350       ?OnAddressListChange@?$SocketDispatcherT@VGSocketHandler@@VGBufSocket@@@@MAEHPAVGBufSocket@@H@Z 10b06350 f i LinkManager.obj
 0001:000053c0       ?OnError@?$SocketDispatcherT@VGSocketHandler@@VGBufSocket@@@@MAEHPAVGBufSocket@@JH@Z 10b063c0 f i LinkManager.obj
 0001:000053e0       ??0?$AutoPtrT@VGBufSocket@@@@QAE@PAVGBufSocket@@@Z 10b063e0 f i LinkManager.obj
 0001:00005400       ??1?$AutoPtrT@VGBufSocket@@@@QAE@XZ 10b06400 f i LinkManager.obj
 0001:00005470       ??0?$ObjLockT@VCLinkManager@@@@QAE@QBVCLinkManager@@H@Z 10b06470 f i LinkManager.obj
 0001:000054c0       ??1?$ObjLockT@VCLinkManager@@@@QAE@XZ 10b064c0 f i LinkManager.obj
 0001:00005510       ??1?$_Vector_val@VPMSNSAP@@V?$allocator@VPMSNSAP@@@std@@@std@@QAE@XZ 10b06510 f i LinkManager.obj
 0001:00005510       ??1?$_Vector_val@PAVGSyncObj@@V?$allocator@PAVGSyncObj@@@std@@@std@@QAE@XZ 10b06510 f i GKernelObj.obj
 0001:00005510       ??1?$_String_val@DV?$allocator@D@std@@@std@@QAE@XZ 10b06510 f i ErrorLog.obj
 0001:00005510       ??1?$_Vector_val@JV?$allocator@J@std@@@std@@QAE@XZ 10b06510 f i LinkManager.obj
 0001:00005510       ??1?$_Vector_val@VPMSStatBase@@V?$allocator@VPMSStatBase@@@std@@@std@@QAE@XZ 10b06510 f i LinkManager.obj
 0001:00005510       ??1?$_String_val@_WV?$allocator@_W@std@@@std@@QAE@XZ 10b06510 f i GAdlUtl.obj
 0001:00005510       ??1?$_List_nod@VGBuf@@V?$allocator@VGBuf@@@std@@@std@@QAE@XZ 10b06510 f i LinkManager.obj
 0001:00005510       ??1?$_Vector_val@VPMSRegionInfo@@V?$allocator@VPMSRegionInfo@@@std@@@std@@QAE@XZ 10b06510 f i LinkManager.obj
 0001:00005540       ??0_Iterator_base@std@@QAE@ABV01@@Z 10b06540 f i LinkManager.obj
 0001:00005580       ??4_Iterator_base@std@@QAEAAV01@ABV01@@Z 10b06580 f i LinkManager.obj
 0001:00005650       ?_Adopt@_Iterator_base@std@@QAEXPBV_Container_base_secure@2@@Z 10b06650 f i LinkManager.obj
 0001:00005730       ?_Orphan_me@_Iterator_base@std@@QAEXXZ 10b06730 f i LinkManager.obj
 0001:000057d0       ??1_Iterator_base@std@@QAE@XZ 10b067d0 f i LinkManager.obj
 0001:00005880       ?find_last_of@?$basic_string@DU?$char_traits@D@std@@V?$allocator@D@2@@std@@QBEIPBDII@Z 10b06880 f i LinkManager.obj
 0001:00005950       ?find@?$char_traits@D@std@@SAPBDPBDIABD@Z 10b06950 f i LinkManager.obj
 0001:00005980       ??0?$vector@PAVGSyncObj@@V?$allocator@PAVGSyncObj@@@std@@@std@@QAE@XZ 10b06980 f i GKernelObj.obj
 0001:00005980       ??0?$vector@JV?$allocator@J@std@@@std@@QAE@XZ 10b06980 f i LinkManager.obj
 0001:00005a00       ??0?$vector@VPMSNSAP@@V?$allocator@VPMSNSAP@@@std@@@std@@QAE@XZ 10b06a00 f i LinkManager.obj
 0001:00005a80       ?capacity@?$vector@VPMSNSAP@@V?$allocator@VPMSNSAP@@@std@@@std@@QBEIXZ 10b06a80 f i LinkManager.obj
 0001:00005ad0       ?begin@?$vector@VPMSNSAP@@V?$allocator@VPMSNSAP@@@std@@@std@@QAE?AV?$_Vector_iterator@VPMSNSAP@@V?$allocator@VPMSNSAP@@@std@@@2@XZ 10b06ad0 f i LinkManager.obj
 0001:00005b20       ?end@?$vector@VPMSNSAP@@V?$allocator@VPMSNSAP@@@std@@@std@@QAE?AV?$_Vector_iterator@VPMSNSAP@@V?$allocator@VPMSNSAP@@@std@@@2@XZ 10b06b20 f i LinkManager.obj
 0001:00005b70       ?size@?$vector@VPMSNSAP@@V?$allocator@VPMSNSAP@@@std@@@std@@QBEIXZ 10b06b70 f i LinkManager.obj
 0001:00005ba0       ?insert@?$vector@VPMSNSAP@@V?$allocator@VPMSNSAP@@@std@@@std@@QAE?AV?$_Vector_iterator@VPMSNSAP@@V?$allocator@VPMSNSAP@@@std@@@2@V?$_Vector_const_iterator@VPMSNSAP@@V?$allocator@VPMSNSAP@@@std@@@2@ABVPMSNSAP@@@Z 10b06ba0 f i LinkManager.obj
 0001:00005ce0       ?erase@?$vector@VPMSNSAP@@V?$allocator@VPMSNSAP@@@std@@@std@@QAE?AV?$_Vector_iterator@VPMSNSAP@@V?$allocator@VPMSNSAP@@@std@@@2@V?$_Vector_const_iterator@VPMSNSAP@@V?$allocator@VPMSNSAP@@@std@@@2@0@Z 10b06ce0 f i LinkManager.obj
 0001:00005ed0       ?_Tidy@?$vector@VPMSNSAP@@V?$allocator@VPMSNSAP@@@std@@@std@@IAEXXZ 10b06ed0 f i LinkManager.obj
 0001:00005f60       ?_Ufill@?$vector@VPMSNSAP@@V?$allocator@VPMSNSAP@@@std@@@std@@IAEPAVPMSNSAP@@PAV3@IABV3@@Z 10b06f60 f i LinkManager.obj
 0001:00005fb0       ??0?$vector@VPMSStatBase@@V?$allocator@VPMSStatBase@@@std@@@std@@QAE@XZ 10b06fb0 f i LinkManager.obj
 0001:00006030       ?_Tidy@?$vector@VPMSStatBase@@V?$allocator@VPMSStatBase@@@std@@@std@@IAEXXZ 10b07030 f i LinkManager.obj
 0001:000060c0       ??1_String_base@std@@QAE@XZ 10b070c0 f i ErrorLog.obj
 0001:000060c0       ??1?$_Container_base_aux_alloc_empty@V?$allocator@VGBuf@@@std@@@std@@IAE@XZ 10b070c0 f i LinkManager.obj
 0001:000060c0       ??1?$_Container_base_aux_alloc_empty@V?$allocator@VPMSStatBase@@@std@@@std@@IAE@XZ 10b070c0 f i LinkManager.obj
 0001:000060c0       ??1?$_Container_base_aux_alloc_empty@V?$allocator@VPMSNSAP@@@std@@@std@@IAE@XZ 10b070c0 f i LinkManager.obj
 0001:000060c0       ??1?$_Container_base_aux_alloc_empty@V?$allocator@J@std@@@std@@IAE@XZ 10b070c0 f i LinkManager.obj
 0001:000060c0       ??1?$_Container_base_aux_alloc_empty@V?$allocator@VPMSRegionInfo@@@std@@@std@@IAE@XZ 10b070c0 f i LinkManager.obj
 0001:000060c0       ??1?$_Container_base_aux_alloc_empty@V?$allocator@PAVGSyncObj@@@std@@@std@@IAE@XZ 10b070c0 f i GKernelObj.obj
 0001:000060f0       ??0?$vector@VPMSRegionInfo@@V?$allocator@VPMSRegionInfo@@@std@@@std@@QAE@XZ 10b070f0 f i LinkManager.obj
 0001:00006170       ?_Tidy@?$vector@VPMSRegionInfo@@V?$allocator@VPMSRegionInfo@@@std@@@std@@IAEXXZ 10b07170 f i LinkManager.obj
 0001:00006200       ??C?$AutoPtrT@VGBufSocket@@@@QBEPAVGBufSocket@@XZ 10b07200 f i LinkManager.obj
 0001:00006250       ??4?$AutoPtrT@VGBufSocket@@@@QAEPAVGBufSocket@@PAV1@@Z 10b07250 f i LinkManager.obj
 0001:00006280       ?Detach@?$AutoPtrT@VGBufSocket@@@@QAEPAVGBufSocket@@XZ 10b07280 f i LinkManager.obj
 0001:000062b0       ?_Buy@?$vector@JV?$allocator@J@std@@@std@@IAE_NI@Z 10b072b0 f i LinkManager.obj
 0001:000062b0       ?_Buy@?$vector@PAVGSyncObj@@V?$allocator@PAVGSyncObj@@@std@@@std@@IAE_NI@Z 10b072b0 f i GKernelObj.obj
 0001:00006350       ?_Make_iter@?$vector@VPMSNSAP@@V?$allocator@VPMSNSAP@@@std@@@std@@QBE?AV?$_Vector_iterator@VPMSNSAP@@V?$allocator@VPMSNSAP@@@std@@@2@V?$_Vector_const_iterator@VPMSNSAP@@V?$allocator@VPMSNSAP@@@std@@@2@@Z 10b07350 f i LinkManager.obj
 0001:000063e0       ?_Buy@?$vector@VPMSNSAP@@V?$allocator@VPMSNSAP@@@std@@@std@@IAE_NI@Z 10b073e0 f i LinkManager.obj
 0001:00006480       ?_Destroy@?$vector@VPMSNSAP@@V?$allocator@VPMSNSAP@@@std@@@std@@IAEXPAVPMSNSAP@@0@Z 10b07480 f i LinkManager.obj
 0001:000064c0       ?_Insert_n@?$vector@VPMSNSAP@@V?$allocator@VPMSNSAP@@@std@@@std@@IAEXV?$_Vector_const_iterator@VPMSNSAP@@V?$allocator@VPMSNSAP@@@std@@@2@IABVPMSNSAP@@@Z 10b074c0 f i LinkManager.obj
 0001:00006940       ??0PMSNSAP@@QAE@ABV0@@Z    10b07940 f i LinkManager.obj
 0001:00006940       ??4PMSNSAP@@QAEAAV0@ABV0@@Z 10b07940 f i LinkManager.obj
 0001:00006970       ??0?$allocator@VPMSNSAP@@@std@@QAE@XZ 10b07970 f i LinkManager.obj
 0001:00006970       ??0PMSARegionInfoReq@@QAE@XZ 10b07970 f i LinkManager.obj
 0001:00006970       ??0?$allocator@PAVGSyncObj@@@std@@QAE@XZ 10b07970 f i GKernelObj.obj
 0001:00006970       ??0?$allocator@VPMSRegionInfo@@@std@@QAE@XZ 10b07970 f i LinkManager.obj
 0001:00006970       ??0?$allocator@VGBuf@@@std@@QAE@XZ 10b07970 f i LinkManager.obj
 0001:00006970       ??0PMSAStatInfoReq@@QAE@XZ 10b07970 f i LinkManager.obj
 0001:00006970       ??0?$allocator@J@std@@QAE@XZ 10b07970 f i LinkManager.obj
 0001:00006970       ??0PMSAPerformReq@@QAE@XZ  10b07970 f i LinkManager.obj
 0001:00006970       ??0?$allocator@D@std@@QAE@XZ 10b07970 f i ErrorLog.obj
 0001:00006970       ??0?$allocator@_W@std@@QAE@XZ 10b07970 f i GAdlUtl.obj
 0001:00006970       ??0?$allocator@VPMSStatBase@@@std@@QAE@XZ 10b07970 f i LinkManager.obj
 0001:00006990       ?_Buy@?$vector@VPMSStatBase@@V?$allocator@VPMSStatBase@@@std@@@std@@IAE_NI@Z 10b07990 f i LinkManager.obj
 0001:00006a30       ?_Destroy@?$vector@VPMSStatBase@@V?$allocator@VPMSStatBase@@@std@@@std@@IAEXPAVPMSStatBase@@0@Z 10b07a30 f i LinkManager.obj
 0001:00006a70       ??0?$_Vector_val@VPMSNSAP@@V?$allocator@VPMSNSAP@@@std@@@std@@IAE@V?$allocator@VPMSNSAP@@@1@@Z 10b07a70 f i LinkManager.obj
 0001:00006a70       ??0?$_Vector_val@VPMSRegionInfo@@V?$allocator@VPMSRegionInfo@@@std@@@std@@IAE@V?$allocator@VPMSRegionInfo@@@1@@Z 10b07a70 f i LinkManager.obj
 0001:00006a70       ??0?$_Vector_val@PAVGSyncObj@@V?$allocator@PAVGSyncObj@@@std@@@std@@IAE@V?$allocator@PAVGSyncObj@@@1@@Z 10b07a70 f i GKernelObj.obj
 0001:00006a70       ??0?$_Vector_val@JV?$allocator@J@std@@@std@@IAE@V?$allocator@J@1@@Z 10b07a70 f i LinkManager.obj
 0001:00006a70       ??0?$_Vector_val@VPMSStatBase@@V?$allocator@VPMSStatBase@@@std@@@std@@IAE@V?$allocator@VPMSStatBase@@@1@@Z 10b07a70 f i LinkManager.obj
 0001:00006a70       ??0?$_List_nod@VGBuf@@V?$allocator@VGBuf@@@std@@@std@@IAE@V?$allocator@VGBuf@@@1@@Z 10b07a70 f i LinkManager.obj
 0001:00006ac0       ?deallocate@?$allocator@_W@std@@QAEXPA_WI@Z 10b07ac0 f i GAdlUtl.obj
 0001:00006ac0       ?deallocate@?$allocator@J@std@@QAEXPAJI@Z 10b07ac0 f i LinkManager.obj
 0001:00006ac0       ?deallocate@?$allocator@VPMSStatBase@@@std@@QAEXPAVPMSStatBase@@I@Z 10b07ac0 f i LinkManager.obj
 0001:00006ac0       ?deallocate@?$allocator@VPMSNSAP@@@std@@QAEXPAVPMSNSAP@@I@Z 10b07ac0 f i LinkManager.obj
 0001:00006ac0       ?deallocate@?$allocator@PAX@std@@QAEXPAPAXI@Z 10b07ac0 f i GKernelObj.obj
 0001:00006ac0       ?deallocate@?$allocator@VPMSRegionInfo@@@std@@QAEXPAVPMSRegionInfo@@I@Z 10b07ac0 f i LinkManager.obj
 0001:00006ac0       ?deallocate@?$allocator@D@std@@QAEXPADI@Z 10b07ac0 f i ErrorLog.obj
 0001:00006ac0       ?deallocate@?$allocator@U_Node@?$_List_nod@VGBuf@@V?$allocator@VGBuf@@@std@@@std@@@std@@QAEXPAU_Node@?$_List_nod@VGBuf@@V?$allocator@VGBuf@@@std@@@2@I@Z 10b07ac0 f i LinkManager.obj
 0001:00006ac0       ?deallocate@?$allocator@PAVGSyncObj@@@std@@QAEXPAPAVGSyncObj@@I@Z 10b07ac0 f i GKernelObj.obj
 0001:00006af0       ?_Buy@?$vector@VPMSRegionInfo@@V?$allocator@VPMSRegionInfo@@@std@@@std@@IAE_NI@Z 10b07af0 f i LinkManager.obj
 0001:00006b90       ?_Destroy@?$vector@VPMSRegionInfo@@V?$allocator@VPMSRegionInfo@@@std@@@std@@IAEXPAVPMSRegionInfo@@0@Z 10b07b90 f i LinkManager.obj
 0001:00006bd0       ?PtrAssign@?$AutoPtrT@VGBufSocket@@@@KGPAVGBufSocket@@PAPAV2@PAV2@@Z 10b07bd0 f i LinkManager.obj
 0001:00006c60       ??0?$_Vector_iterator@VPMSNSAP@@V?$allocator@VPMSNSAP@@@std@@@std@@QAE@PAVPMSNSAP@@PBV_Container_base_secure@1@@Z 10b07c60 f i LinkManager.obj
 0001:00006ca0       ??H?$_Vector_iterator@VPMSNSAP@@V?$allocator@VPMSNSAP@@@std@@@std@@QBE?AV01@H@Z 10b07ca0 f i LinkManager.obj
 0001:00006d80       ??G?$_Vector_const_iterator@VPMSNSAP@@V?$allocator@VPMSNSAP@@@std@@@std@@QBEHABV01@@Z 10b07d80 f i LinkManager.obj
 0001:00006dc0       ??9?$_Vector_const_iterator@VPMSNSAP@@V?$allocator@VPMSNSAP@@@std@@@std@@QBE_NABV01@@Z 10b07dc0 f i LinkManager.obj
 0001:00006e00       ??M?$_Vector_const_iterator@VPMSNSAP@@V?$allocator@VPMSNSAP@@@std@@@std@@QBE_NABV01@@Z 10b07e00 f i LinkManager.obj
 0001:00006e40       ?_Xlen@?$vector@VPMSNSAP@@V?$allocator@VPMSNSAP@@@std@@@std@@KAXXZ 10b07e40 f i LinkManager.obj
 0001:00006e40       ?_Xlen@?$vector@VPMSStatBase@@V?$allocator@VPMSStatBase@@@std@@@std@@KAXXZ 10b07e40 f i LinkManager.obj
 0001:00006e40       ?_Xlen@?$vector@PAVGSyncObj@@V?$allocator@PAVGSyncObj@@@std@@@std@@KAXXZ 10b07e40 f i GKernelObj.obj
 0001:00006e40       ?_Xlen@?$vector@VPMSRegionInfo@@V?$allocator@VPMSRegionInfo@@@std@@@std@@KAXXZ 10b07e40 f i LinkManager.obj
 0001:00006e40       ?_Xlen@?$vector@PAXV?$allocator@PAX@std@@@std@@KAXXZ 10b07e40 f i GKernelObj.obj
 0001:00006e40       ?_Xlen@?$vector@JV?$allocator@J@std@@@std@@KAXXZ 10b07e40 f i LinkManager.obj
 0001:00006ed0       ??0length_error@std@@QAE@ABV?$basic_string@DU?$char_traits@D@std@@V?$allocator@D@2@@1@@Z 10b07ed0 f i LinkManager.obj
 0001:00006f10       ??0logic_error@std@@QAE@ABV?$basic_string@DU?$char_traits@D@std@@V?$allocator@D@2@@1@@Z 10b07f10 f i LinkManager.obj
 0001:00006f90       ?what@logic_error@std@@UBEPBDXZ 10b07f90 f i LinkManager.obj
 0001:00006fc0       ??_Glogic_error@std@@UAEPAXI@Z 10b07fc0 f i LinkManager.obj
 0001:00006fc0       ??_Elogic_error@std@@UAEPAXI@Z 10b07fc0 f i LinkManager.obj
 0001:00007000       ??1logic_error@std@@UAE@XZ 10b08000 f i LinkManager.obj
 0001:00007040       ??1length_error@std@@UAE@XZ 10b08040 f i LinkManager.obj
 0001:00007070       ??_Glength_error@std@@UAEPAXI@Z 10b08070 f i LinkManager.obj
 0001:00007070       ??_Elength_error@std@@UAEPAXI@Z 10b08070 f i LinkManager.obj
 0001:000070b0       ?max_size@?$vector@VPMSNSAP@@V?$allocator@VPMSNSAP@@@std@@@std@@QBEIXZ 10b080b0 f i LinkManager.obj
 0001:000070e0       ?allocate@?$allocator@VPMSNSAP@@@std@@QAEPAVPMSNSAP@@I@Z 10b080e0 f i LinkManager.obj
 0001:00007110       ?max_size@?$vector@VPMSStatBase@@V?$allocator@VPMSStatBase@@@std@@@std@@QBEIXZ 10b08110 f i LinkManager.obj
 0001:00007140       ?allocate@?$allocator@VPMSStatBase@@@std@@QAEPAVPMSStatBase@@I@Z 10b08140 f i LinkManager.obj
 0001:00007170       ?max_size@?$vector@VPMSRegionInfo@@V?$allocator@VPMSRegionInfo@@@std@@@std@@QBEIXZ 10b08170 f i LinkManager.obj
 0001:000071a0       ?allocate@?$allocator@VPMSRegionInfo@@@std@@QAEPAVPMSRegionInfo@@I@Z 10b081a0 f i LinkManager.obj
 0001:000071d0       ??Y?$_Vector_iterator@VPMSNSAP@@V?$allocator@VPMSNSAP@@@std@@@std@@QAEAAV01@H@Z 10b081d0 f i LinkManager.obj
 0001:00007200       ??0?$_Vector_const_iterator@VPMSNSAP@@V?$allocator@VPMSNSAP@@@std@@@std@@QAE@PAVPMSNSAP@@PBV_Container_base_secure@1@@Z 10b08200 f i LinkManager.obj
 0001:000072e0       ??8?$_Vector_const_iterator@VPMSNSAP@@V?$allocator@VPMSNSAP@@@std@@@std@@QBE_NABV01@@Z 10b082e0 f i LinkManager.obj
 0001:00007320       ?_Compat@?$_Vector_const_iterator@VPMSNSAP@@V?$allocator@VPMSNSAP@@@std@@@std@@QBEXABV12@@Z 10b08320 f i LinkManager.obj
 0001:000073b0       ??0logic_error@std@@QAE@ABV01@@Z 10b083b0 f i LinkManager.obj
 0001:00007430       ?max_size@?$allocator@VPMSNSAP@@@std@@QBEIXZ 10b08430 f i LinkManager.obj
 0001:00007480       ?max_size@?$allocator@VPMSStatBase@@@std@@QBEIXZ 10b08480 f i LinkManager.obj
 0001:000074d0       ?max_size@?$allocator@VPMSRegionInfo@@@std@@QBEIXZ 10b084d0 f i LinkManager.obj
 0001:00007520       ??Y?$_Vector_const_iterator@VPMSNSAP@@V?$allocator@VPMSNSAP@@@std@@@std@@QAEAAV01@H@Z 10b08520 f i LinkManager.obj
 0001:00007630       ??B?$AutoPtrT@VGBufSocket@@@@QBEPAVGBufSocket@@XZ 10b08630 f i LinkManager.obj
 0001:00007630       ??BGBuf@@QBEPAUIXBuf@@XZ   10b08630 f i LinkManager.obj
 0001:00007630       ?_Getmycont@_Iterator_base@std@@QBEPBV_Container_base_secure@2@XZ 10b08630 f i LinkManager.obj
 0001:00007630       ?c_str@astring@@QBEPBDXZ   10b08630 f i GAdlUtl.obj
 0001:00007650       ?_Has_container@_Iterator_base@std@@QBE_NXZ 10b08650 f i LinkManager.obj
 0001:00007670       ??$LStore@VPayloadHA@@@@YAHPAUIXBuf@@ABVPayloadHA@@@Z 10b08670 f i LinkManager.obj
 0001:00007760       ?BStore@@YAHPAUIXBuf@@ABVPayloadHA@@@Z 10b08760 f i LinkManager.obj
 0001:00007780       ?BStore@PayloadHA@@QBEHPAUIXBuf@@@Z 10b08780 f i LinkManager.obj
 0001:00007990       ?BStore@@YAHPAUIXBuf@@ABVPMSAGSInitNtf@@@Z 10b08990 f i LinkManager.obj
 0001:000079b0       ?BStore@PMSAGSInitNtf@@QBEHPAUIXBuf@@@Z 10b089b0 f i LinkManager.obj
 0001:00007a80       ?BStore@@YAHPAUIXBuf@@ABVPMSAInitFaultNtf@@@Z 10b08a80 f i LinkManager.obj
 0001:00007aa0       ?BStore@PMSAInitFaultNtf@@QBEHPAUIXBuf@@@Z 10b08aa0 f i LinkManager.obj
 0001:00007b00       ?BStore@@YAHPAUIXBuf@@ABVPMSUnitID@@@Z 10b08b00 f i LinkManager.obj
 0001:00007b20       ?BStore@PMSUnitID@@QBEHPAUIXBuf@@@Z 10b08b20 f i LinkManager.obj
 0001:00007ba0       ?BStore@@YAHPAUIXBuf@@ABVPMSAPerformAns@@@Z 10b08ba0 f i LinkManager.obj
 0001:00007bc0       ?BStore@PMSAPerformAns@@QBEHPAUIXBuf@@@Z 10b08bc0 f i LinkManager.obj
 0001:00007c00       ?BStore@@YAHPAUIXBuf@@ABVPMSAHeartBeatAns@@@Z 10b08c00 f i LinkManager.obj
 0001:00007c20       ?BStore@PMSAHeartBeatAns@@QBEHPAUIXBuf@@@Z 10b08c20 f i LinkManager.obj
 0001:00007c80       ?BStore@@YAHPAUIXBuf@@ABVPMSAOrderAns@@@Z 10b08c80 f i LinkManager.obj
 0001:00007ca0       ?BStore@PMSAOrderAns@@QBEHPAUIXBuf@@@Z 10b08ca0 f i LinkManager.obj
 0001:00007d90       ?BStore@@YAHPAUIXBuf@@ABVPMSAWarningNtf@@@Z 10b08d90 f i LinkManager.obj
 0001:00007db0       ?BStore@PMSAWarningNtf@@QBEHPAUIXBuf@@@Z 10b08db0 f i LinkManager.obj
 0001:00007e40       ?BStore@@YAHPAUIXBuf@@ABVPMSAStatInfoPCAns@@@Z 10b08e40 f i LinkManager.obj
 0001:00007e40       ?BStore@@YAHPAUIXBuf@@ABVPMSAStatInfoAns@@@Z 10b08e40 f i LinkManager.obj
 0001:00007e60       ?BStore@PMSAStatInfoAns@@QBEHPAUIXBuf@@@Z 10b08e60 f i LinkManager.obj
 0001:00007e60       ?BStore@PMSAStatInfoPCAns@@QBEHPAUIXBuf@@@Z 10b08e60 f i LinkManager.obj
 0001:00007ea0       ?BStore@@YAHPAUIXBuf@@ABVPMSARegionInfoPCAns@@@Z 10b08ea0 f i LinkManager.obj
 0001:00007ea0       ?BStore@@YAHPAUIXBuf@@ABVPMSARegionInfoAns@@@Z 10b08ea0 f i LinkManager.obj
 0001:00007ec0       ?BStore@PMSARegionInfoPCAns@@QBEHPAUIXBuf@@@Z 10b08ec0 f i LinkManager.obj
 0001:00007ec0       ?BStore@PMSARegionInfoAns@@QBEHPAUIXBuf@@@Z 10b08ec0 f i LinkManager.obj
 0001:00007f00       ??$BStore@J@@YAHPAUIXBuf@@ABV?$ArcVectorT@J@@@Z 10b08f00 f i LinkManager.obj
 0001:00007f20       ??$BStore@VPMSNSAP@@@@YAHPAUIXBuf@@ABV?$ArcVectorT@VPMSNSAP@@@@@Z 10b08f20 f i LinkManager.obj
 0001:00007f40       ??$BStore@VPMSStatBase@@@@YAHPAUIXBuf@@ABV?$ArcVectorT@VPMSStatBase@@@@@Z 10b08f40 f i LinkManager.obj
 0001:00007f60       ??$BStore@VPMSRegionInfo@@@@YAHPAUIXBuf@@ABV?$ArcVectorT@VPMSRegionInfo@@@@@Z 10b08f60 f i LinkManager.obj
 0001:00007f80       ??$LLoad@VPayloadGS@@@@YAHAAVPayloadGS@@PAUIXBuf@@@Z 10b08f80 f i LinkManager.obj
 0001:000080c0       ?BLoad@@YAHAAVPayloadGS@@PAUIXBuf@@@Z 10b090c0 f i LinkManager.obj
 0001:000080e0       ?BLoad@PayloadGS@@QAEHPAUIXBuf@@@Z 10b090e0 f i LinkManager.obj
 0001:00008400       ??0_Container_base_secure@std@@QAE@XZ 10b09400 f i ErrorLog.obj
 0001:00008400       ??0PMSAHeartBeatReq@@QAE@XZ 10b09400 f i LinkManager.obj
 0001:00008420       ?BLoad@@YAHAAVPMSAHeartBeatReq@@PAUIXBuf@@@Z 10b09420 f i LinkManager.obj
 0001:00008440       ?BLoad@PMSAHeartBeatReq@@QAEHPAUIXBuf@@@Z 10b09440 f i LinkManager.obj
 0001:00008480       ?BLoad@@YAHAAVPMSAPerformReq@@PAUIXBuf@@@Z 10b09480 f i LinkManager.obj
 0001:00008480       ?BLoad@@YAHAAVPMSAStatInfoReq@@PAUIXBuf@@@Z 10b09480 f i LinkManager.obj
 0001:00008480       ?BLoad@@YAHAAVPMSARegionInfoReq@@PAUIXBuf@@@Z 10b09480 f i LinkManager.obj
 0001:000084a0       ?BLoad@PMSARegionInfoReq@@QAEHPAUIXBuf@@@Z 10b094a0 f i LinkManager.obj
 0001:000084a0       ?BLoad@PMSAStatInfoReq@@QAEHPAUIXBuf@@@Z 10b094a0 f i LinkManager.obj
 0001:000084a0       ?BLoad@PMSAPerformReq@@QAEHPAUIXBuf@@@Z 10b094a0 f i LinkManager.obj
 0001:000084c0       ??0PMSAAnnounceReq@@QAE@XZ 10b094c0 f i LinkManager.obj
 0001:00008550       ?BLoad@@YAHAAVPMSAAnnounceReq@@PAUIXBuf@@@Z 10b09550 f i LinkManager.obj
 0001:00008570       ?BLoad@PMSAAnnounceReq@@QAEHPAUIXBuf@@@Z 10b09570 f i LinkManager.obj
 0001:000085d0       ?BLoad@@YAHAAVPMSUnitID@@PAUIXBuf@@@Z 10b095d0 f i LinkManager.obj
 0001:000085f0       ?BLoad@PMSUnitID@@QAEHPAUIXBuf@@@Z 10b095f0 f i LinkManager.obj
 0001:00008670       ??0PMSAOrderReq@@QAE@XZ    10b09670 f i LinkManager.obj
 0001:00008700       ?BLoad@@YAHAAVPMSAOrderReq@@PAUIXBuf@@@Z 10b09700 f i LinkManager.obj
 0001:00008720       ?BLoad@PMSAOrderReq@@QAEHPAUIXBuf@@@Z 10b09720 f i LinkManager.obj
 0001:000087f0       ??$unchecked_copy@PAVPMSNSAP@@PAV1@@stdext@@YAPAVPMSNSAP@@PAV1@00@Z 10b097f0 f i LinkManager.obj
 0001:00008870       ??$unchecked_uninitialized_fill_n@PAVPMSNSAP@@IV1@V?$allocator@VPMSNSAP@@@std@@@stdext@@YAXPAVPMSNSAP@@IABV1@AAV?$allocator@VPMSNSAP@@@std@@@Z 10b09870 f i LinkManager.obj
 0001:000088d0       ??$_Destroy_range@V?$allocator@VPMSNSAP@@@std@@@std@@YAXPAVPMSNSAP@@0AAV?$allocator@VPMSNSAP@@@0@@Z 10b098d0 f i LinkManager.obj
 0001:00008920       ??$_Umove@PAVPMSNSAP@@@?$vector@VPMSNSAP@@V?$allocator@VPMSNSAP@@@std@@@std@@IAEPAVPMSNSAP@@PAV2@00@Z 10b09920 f i LinkManager.obj
 0001:00008960       ??$fill@PAVPMSNSAP@@V1@@std@@YAXPAVPMSNSAP@@0ABV1@@Z 10b09960 f i LinkManager.obj
 0001:000089a0       ??$_Unchecked_move_backward@PAVPMSNSAP@@PAV1@@stdext@@YAPAVPMSNSAP@@PAV1@00@Z 10b099a0 f i LinkManager.obj
 0001:00008a20       ??$_Destroy_range@V?$allocator@VPMSStatBase@@@std@@@std@@YAXPAVPMSStatBase@@0AAV?$allocator@VPMSStatBase@@@0@@Z 10b09a20 f i LinkManager.obj
 0001:00008a70       ??$_Destroy_range@V?$allocator@VPMSRegionInfo@@@std@@@std@@YAXPAVPMSRegionInfo@@0AAV?$allocator@VPMSRegionInfo@@@0@@Z 10b09a70 f i LinkManager.obj
 0001:00008ac0       ??$_Allocate@VPMSNSAP@@@std@@YAPAVPMSNSAP@@IPAV1@@Z 10b09ac0 f i LinkManager.obj
 0001:00008b30       ??$_Allocate@VPMSStatBase@@@std@@YAPAVPMSStatBase@@IPAV1@@Z 10b09b30 f i LinkManager.obj
 0001:00008ba0       ??$_Allocate@VPMSRegionInfo@@@std@@YAPAVPMSRegionInfo@@IPAV1@@Z 10b09ba0 f i LinkManager.obj
 0001:00008c10       ?BStore@?$ArcVectorT@J@@QBEHPAUIXBuf@@@Z 10b09c10 f i LinkManager.obj
 0001:00008da0       ??1?$_Bidit@VGBuf@@HPBV1@ABV1@@std@@QAE@XZ 10b09da0 f i LinkManager.obj
 0001:00008da0       ??1?$_Ranit@VPMSNSAP@@HPBV1@ABV1@@std@@QAE@XZ 10b09da0 f i LinkManager.obj
 0001:00008da0       ??1?$_Ranit@PAVGSyncObj@@HPBQAV1@ABQAV1@@std@@QAE@XZ 10b09da0 f i GKernelObj.obj
 0001:00008da0       ??1?$_Ranit@VPMSRegionInfo@@HPBV1@ABV1@@std@@QAE@XZ 10b09da0 f i LinkManager.obj
 0001:00008da0       ??1?$_Ranit@PAXHPBQAXABQAX@std@@QAE@XZ 10b09da0 f i GKernelObj.obj
 0001:00008da0       ??1?$_String_const_iterator@DU?$char_traits@D@std@@V?$allocator@D@2@@std@@QAE@XZ 10b09da0 f i LinkManagerMsg.obj
 0001:00008da0       ??1?$_Ranit@JHPBJABJ@std@@QAE@XZ 10b09da0 f i LinkManager.obj
 0001:00008da0       ??1?$_Ranit@VPMSStatBase@@HPBV1@ABV1@@std@@QAE@XZ 10b09da0 f i LinkManager.obj
 0001:00008dd0       ??1?$_Iterator_with_base@Urandom_access_iterator_tag@std@@VPMSNSAP@@HPBV3@ABV3@V_Iterator_base@2@@std@@QAE@XZ 10b09dd0 f i LinkManager.obj
 0001:00008dd0       ??1?$_Ranit_base@DHPBDABDV_Iterator_base@std@@@std@@QAE@XZ 10b09dd0 f i LinkManagerMsg.obj
 0001:00008dd0       ??1?$_Iterator_with_base@Urandom_access_iterator_tag@std@@VPMSRegionInfo@@HPBV3@ABV3@V_Iterator_base@2@@std@@QAE@XZ 10b09dd0 f i LinkManager.obj
 0001:00008dd0       ??1?$_Iterator_with_base@Urandom_access_iterator_tag@std@@PAXHPBQAXABQAXV_Iterator_base@2@@std@@QAE@XZ 10b09dd0 f i GKernelObj.obj
 0001:00008dd0       ??1?$_Iterator_with_base@Ubidirectional_iterator_tag@std@@VGBuf@@HPBV3@ABV3@V_Iterator_base@2@@std@@QAE@XZ 10b09dd0 f i LinkManager.obj
 0001:00008dd0       ??1?$_Iterator_with_base@Urandom_access_iterator_tag@std@@PAVGSyncObj@@HPBQAV3@ABQAV3@V_Iterator_base@2@@std@@QAE@XZ 10b09dd0 f i GKernelObj.obj
 0001:00008dd0       ??1?$_Iterator_with_base@Urandom_access_iterator_tag@std@@VPMSStatBase@@HPBV3@ABV3@V_Iterator_base@2@@std@@QAE@XZ 10b09dd0 f i LinkManager.obj
 0001:00008dd0       ??1?$_Iterator_with_base@Urandom_access_iterator_tag@std@@JHPBJABJV_Iterator_base@2@@std@@QAE@XZ 10b09dd0 f i LinkManager.obj
 0001:00008e00       ??9?$_Vector_const_iterator@JV?$allocator@J@std@@@std@@QBE_NABV01@@Z 10b09e00 f i LinkManager.obj
 0001:00008e40       ??8?$_Vector_const_iterator@JV?$allocator@J@std@@@std@@QBE_NABV01@@Z 10b09e40 f i LinkManager.obj
 0001:00008e80       ?_Compat@?$_Vector_const_iterator@JV?$allocator@J@std@@@std@@QBEXABV12@@Z 10b09e80 f i LinkManager.obj
 0001:00008f10       ?BStore@?$ArcVectorT@VPMSNSAP@@@@QBEHPAUIXBuf@@@Z 10b09f10 f i LinkManager.obj
 0001:000090a0       ?BStore@@YAHPAUIXBuf@@ABVPMSNSAP@@@Z 10b0a0a0 f i LinkManager.obj
 0001:000090a0       ?BStore@@YAHPAUIXBuf@@ABVPMSAAnnounceAns@@@Z 10b0a0a0 f i LinkManager.obj
 0001:000090c0       ?BStore@PMSNSAP@@QBEHPAUIXBuf@@@Z 10b0a0c0 f i LinkManager.obj
 0001:000090c0       ?BStore@PMSAAnnounceAns@@QBEHPAUIXBuf@@@Z 10b0a0c0 f i LinkManager.obj
 0001:00009120       ?BStore@?$ArcVectorT@VPMSStatBase@@@@QBEHPAUIXBuf@@@Z 10b0a120 f i LinkManager.obj
 0001:000092b0       ?BStore@@YAHPAUIXBuf@@ABVPMSStatBase@@@Z 10b0a2b0 f i LinkManager.obj
 0001:000092d0       ?BStore@PMSStatBase@@QBEHPAUIXBuf@@@Z 10b0a2d0 f i LinkManager.obj
 0001:000093a0       ?BStore@?$ArcVectorT@VPMSRegionInfo@@@@QBEHPAUIXBuf@@@Z 10b0a3a0 f i LinkManager.obj
 0001:00009530       ?BStore@@YAHPAUIXBuf@@ABVPMSRegionInfo@@@Z 10b0a530 f i LinkManager.obj
 0001:00009550       ?BStore@PMSRegionInfo@@QBEHPAUIXBuf@@@Z 10b0a550 f i LinkManager.obj
 0001:000095b0       ??4?$_Ranit@VPMSRegionInfo@@HPBV1@ABV1@@std@@QAEAAU01@ABU01@@Z 10b0a5b0 f i LinkManager.obj
 0001:000095b0       ??4?$_Ranit@PAXHPBQAXABQAX@std@@QAEAAU01@ABU01@@Z 10b0a5b0 f i GKernelObj.obj
 0001:000095b0       ??4?$_Ranit@VPMSNSAP@@HPBV1@ABV1@@std@@QAEAAU01@ABU01@@Z 10b0a5b0 f i LinkManager.obj
 0001:000095b0       ??4?$_Ranit@PAVGSyncObj@@HPBQAV1@ABQAV1@@std@@QAEAAU01@ABU01@@Z 10b0a5b0 f i GKernelObj.obj
 0001:000095b0       ??4?$_Ranit@JHPBJABJ@std@@QAEAAU01@ABU01@@Z 10b0a5b0 f i LinkManager.obj
 0001:000095b0       ??4?$_Ranit@VPMSStatBase@@HPBV1@ABV1@@std@@QAEAAU01@ABU01@@Z 10b0a5b0 f i LinkManager.obj
 0001:000095e0       ?begin@?$vector@JV?$allocator@J@std@@@std@@QBE?AV?$_Vector_const_iterator@JV?$allocator@J@std@@@2@XZ 10b0a5e0 f i LinkManager.obj
 0001:00009630       ??0?$_Vector_const_iterator@JV?$allocator@J@std@@@std@@QAE@PAJPBV_Container_base_secure@1@@Z 10b0a630 f i LinkManager.obj
 0001:00009710       ?end@?$vector@JV?$allocator@J@std@@@std@@QBE?AV?$_Vector_const_iterator@JV?$allocator@J@std@@@2@XZ 10b0a710 f i LinkManager.obj
 0001:00009760       ?size@?$vector@PAXV?$allocator@PAX@std@@@std@@QBEIXZ 10b0a760 f i GKernelObj.obj
 0001:00009760       ?size@?$vector@JV?$allocator@J@std@@@std@@QBEIXZ 10b0a760 f i LinkManager.obj
 0001:00009760       ?size@?$vector@PAVGSyncObj@@V?$allocator@PAVGSyncObj@@@std@@@std@@QBEIXZ 10b0a760 f i GKernelObj.obj
 0001:00009790       ?begin@?$vector@VPMSNSAP@@V?$allocator@VPMSNSAP@@@std@@@std@@QBE?AV?$_Vector_const_iterator@VPMSNSAP@@V?$allocator@VPMSNSAP@@@std@@@2@XZ 10b0a790 f i LinkManager.obj
 0001:000097e0       ?end@?$vector@VPMSNSAP@@V?$allocator@VPMSNSAP@@@std@@@std@@QBE?AV?$_Vector_const_iterator@VPMSNSAP@@V?$allocator@VPMSNSAP@@@std@@@2@XZ 10b0a7e0 f i LinkManager.obj
 0001:00009830       ?begin@?$vector@VPMSStatBase@@V?$allocator@VPMSStatBase@@@std@@@std@@QBE?AV?$_Vector_const_iterator@VPMSStatBase@@V?$allocator@VPMSStatBase@@@std@@@2@XZ 10b0a830 f i LinkManager.obj
 0001:00009880       ?end@?$vector@VPMSStatBase@@V?$allocator@VPMSStatBase@@@std@@@std@@QBE?AV?$_Vector_const_iterator@VPMSStatBase@@V?$allocator@VPMSStatBase@@@std@@@2@XZ 10b0a880 f i LinkManager.obj
 0001:000098d0       ?size@?$vector@VPMSStatBase@@V?$allocator@VPMSStatBase@@@std@@@std@@QBEIXZ 10b0a8d0 f i LinkManager.obj
 0001:00009900       ?begin@?$vector@VPMSRegionInfo@@V?$allocator@VPMSRegionInfo@@@std@@@std@@QBE?AV?$_Vector_const_iterator@VPMSRegionInfo@@V?$allocator@VPMSRegionInfo@@@std@@@2@XZ 10b0a900 f i LinkManager.obj
 0001:00009950       ?end@?$vector@VPMSRegionInfo@@V?$allocator@VPMSRegionInfo@@@std@@@std@@QBE?AV?$_Vector_const_iterator@VPMSRegionInfo@@V?$allocator@VPMSRegionInfo@@@std@@@2@XZ 10b0a950 f i LinkManager.obj
 0001:000099a0       ?size@?$vector@VPMSRegionInfo@@V?$allocator@VPMSRegionInfo@@@std@@@std@@QBEIXZ 10b0a9a0 f i LinkManager.obj
 0001:000099d0       ??D?$_Vector_const_iterator@JV?$allocator@J@std@@@std@@QBEABJXZ 10b0a9d0 f i LinkManager.obj
 0001:00009a70       ??E?$_Vector_const_iterator@JV?$allocator@J@std@@@std@@QAE?AV01@H@Z 10b0aa70 f i LinkManager.obj
 0001:00009b40       ??E?$_Vector_const_iterator@JV?$allocator@J@std@@@std@@QAEAAV01@XZ 10b0ab40 f i LinkManager.obj
 0001:00009c40       ??D?$_Vector_const_iterator@VPMSNSAP@@V?$allocator@VPMSNSAP@@@std@@@std@@QBEABVPMSNSAP@@XZ 10b0ac40 f i LinkManager.obj
 0001:00009ce0       ??E?$_Vector_const_iterator@VPMSNSAP@@V?$allocator@VPMSNSAP@@@std@@@std@@QAE?AV01@H@Z 10b0ace0 f i LinkManager.obj
 0001:00009db0       ??E?$_Vector_const_iterator@VPMSNSAP@@V?$allocator@VPMSNSAP@@@std@@@std@@QAEAAV01@XZ 10b0adb0 f i LinkManager.obj
 0001:00009eb0       ??D?$_Vector_const_iterator@VPMSStatBase@@V?$allocator@VPMSStatBase@@@std@@@std@@QBEABVPMSStatBase@@XZ 10b0aeb0 f i LinkManager.obj
 0001:00009f50       ??E?$_Vector_const_iterator@VPMSStatBase@@V?$allocator@VPMSStatBase@@@std@@@std@@QAE?AV01@H@Z 10b0af50 f i LinkManager.obj
 0001:0000a020       ??E?$_Vector_const_iterator@VPMSStatBase@@V?$allocator@VPMSStatBase@@@std@@@std@@QAEAAV01@XZ 10b0b020 f i LinkManager.obj
 0001:0000a120       ??9?$_Vector_const_iterator@VPMSStatBase@@V?$allocator@VPMSStatBase@@@std@@@std@@QBE_NABV01@@Z 10b0b120 f i LinkManager.obj
 0001:0000a160       ??8?$_Vector_const_iterator@VPMSStatBase@@V?$allocator@VPMSStatBase@@@std@@@std@@QBE_NABV01@@Z 10b0b160 f i LinkManager.obj
 0001:0000a1a0       ??0?$_Vector_const_iterator@PAVGSyncObj@@V?$allocator@PAVGSyncObj@@@std@@@std@@QAE@XZ 10b0b1a0 f i GKernelObj.obj
 0001:0000a1a0       ??0?$_Vector_const_iterator@VPMSStatBase@@V?$allocator@VPMSStatBase@@@std@@@std@@QAE@XZ 10b0b1a0 f i LinkManager.obj
 0001:0000a1a0       ??0?$_Vector_const_iterator@VPMSRegionInfo@@V?$allocator@VPMSRegionInfo@@@std@@@std@@QAE@XZ 10b0b1a0 f i LinkManager.obj
 0001:0000a1a0       ??0?$_Vector_const_iterator@JV?$allocator@J@std@@@std@@QAE@XZ 10b0b1a0 f i LinkManager.obj
 0001:0000a1a0       ??0?$_Vector_const_iterator@VPMSNSAP@@V?$allocator@VPMSNSAP@@@std@@@std@@QAE@XZ 10b0b1a0 f i LinkManager.obj
 0001:0000a1e0       ??D?$_Vector_const_iterator@VPMSRegionInfo@@V?$allocator@VPMSRegionInfo@@@std@@@std@@QBEABVPMSRegionInfo@@XZ 10b0b1e0 f i LinkManager.obj
 0001:0000a280       ??E?$_Vector_const_iterator@VPMSRegionInfo@@V?$allocator@VPMSRegionInfo@@@std@@@std@@QAE?AV01@H@Z 10b0b280 f i LinkManager.obj
 0001:0000a350       ??E?$_Vector_const_iterator@VPMSRegionInfo@@V?$allocator@VPMSRegionInfo@@@std@@@std@@QAEAAV01@XZ 10b0b350 f i LinkManager.obj
 0001:0000a450       ??9?$_Vector_const_iterator@VPMSRegionInfo@@V?$allocator@VPMSRegionInfo@@@std@@@std@@QBE_NABV01@@Z 10b0b450 f i LinkManager.obj
 0001:0000a490       ??8?$_Vector_const_iterator@VPMSRegionInfo@@V?$allocator@VPMSRegionInfo@@@std@@@std@@QBE_NABV01@@Z 10b0b490 f i LinkManager.obj
 0001:0000a4d0       ?Lock@GCRITICAL_SECTION@@QBEXXZ 10b0b4d0 f i LinkManager.obj
 0001:0000a510       ?Unlock@GCRITICAL_SECTION@@QBEXXZ 10b0b510 f i LinkManager.obj
 0001:0000a550       ??0?$_Vector_const_iterator@VPMSStatBase@@V?$allocator@VPMSStatBase@@@std@@@std@@QAE@PAVPMSStatBase@@PBV_Container_base_secure@1@@Z 10b0b550 f i LinkManager.obj
 0001:0000a630       ?_Compat@?$_Vector_const_iterator@VPMSStatBase@@V?$allocator@VPMSStatBase@@@std@@@std@@QBEXABV12@@Z 10b0b630 f i LinkManager.obj
 0001:0000a6c0       ??0?$_Vector_const_iterator@VPMSRegionInfo@@V?$allocator@VPMSRegionInfo@@@std@@@std@@QAE@PAVPMSRegionInfo@@PBV_Container_base_secure@1@@Z 10b0b6c0 f i LinkManager.obj
 0001:0000a7a0       ?_Compat@?$_Vector_const_iterator@VPMSRegionInfo@@V?$allocator@VPMSRegionInfo@@@std@@@std@@QBEXABV12@@Z 10b0b7a0 f i LinkManager.obj
 0001:0000a830       ?GetHandle@GSocket@@QBEIXZ 10b0b830 f i LinkManager.obj
 0001:0000a870       ??0GBuf@@QAE@XZ            10b0b870 f i LinkManager.obj
 0001:0000a8b0       ??1GBuf@@QAE@XZ            10b0b8b0 f i LinkManager.obj
 0001:0000a8f0       ??0GBufQ@@QAE@XZ           10b0b8f0 f i LinkManager.obj
 0001:0000a920       ??1GBufQ@@QAE@XZ           10b0b920 f i LinkManager.obj
 0001:0000a950       ?Lock@GSafeBufQ@@UBGXXZ    10b0b950 f i LinkManager.obj
 0001:0000a970       ?Unlock@GSafeBufQ@@UBGXXZ  10b0b970 f i LinkManager.obj
 0001:0000a990       ?Pop@GSafeBufQ@@QAEHAAVGBuf@@@Z 10b0b990 f i LinkManager.obj
 0001:0000aa80       ?IsEmpty@GBufQ@@QBEHXZ     10b0ba80 f i LinkManager.obj
 0001:0000aab0       ?Pop@GBufQ@@QAEHAAVGBuf@@@Z 10b0bab0 f i LinkManager.obj
 0001:0000ab00       ??4GBuf@@QAEAAV0@ABV0@@Z   10b0bb00 f i LinkManager.obj
 0001:0000ab50       ?BCopy@@YAXAAKABK@Z        10b0bb50 f i LinkManager.obj
 0001:0000ab50       ?BCopy@@YAXAAJABJ@Z        10b0bb50 f i LinkManager.obj
 0001:0000ab60       ?EventSelect@GSocketHandler@@QAEHIJ@Z 10b0bb60 f i LinkManager.obj
 0001:0000abb0       ?Dispatch@GSocketHandler@@UAEXXZ 10b0bbb0 f i LinkManager.obj
 0001:0000abd0       ??0?$basic_string@DU?$char_traits@D@std@@V?$allocator@D@2@@std@@QAE@XZ 10b0bbd0 f i LinkManager.obj
 0001:0000ac50       ??0?$basic_string@DU?$char_traits@D@std@@V?$allocator@D@2@@std@@QAE@ABV01@@Z 10b0bc50 f i LinkManager.obj
 0001:0000ace0       ??$_Move_cat@PAVPMSNSAP@@@std@@YA?AU_Undefined_move_tag@0@ABQAVPMSNSAP@@@Z 10b0bce0 f i LinkManager.obj
 0001:0000ace0       ??$_Ptr_cat@V?$_Vector_iterator@JV?$allocator@J@std@@@std@@PAJ@std@@YA?AU_Scalar_ptr_iterator_tag@0@AAV?$_Vector_iterator@JV?$allocator@J@std@@@0@AAPAJ@Z 10b0bce0 f i LinkManagerMsg.obj
 0001:0000ace0       ??$_Move_cat@PAPAVGSyncObj@@@std@@YA?AU_Undefined_move_tag@0@ABQAPAVGSyncObj@@@Z 10b0bce0 f i GKernelObj.obj
 0001:0000ace0       ??$_Move_cat@PAVPMSRegionInfo@@@std@@YA?AU_Undefined_move_tag@0@ABQAVPMSRegionInfo@@@Z 10b0bce0 f i LinkManagerMsg.obj
 0001:0000ace0       ??$_Ptr_cat@PAPAXPAPAX@std@@YA?AU_Scalar_ptr_iterator_tag@0@AAPAPAX0@Z 10b0bce0 f i GKernelObj.obj
 0001:0000ace0       ??$_Ptr_cat@PAVPMSStatBase@@PAV1@@std@@YA?AU_Nonscalar_ptr_iterator_tag@0@AAPAVPMSStatBase@@0@Z 10b0bce0 f i LinkManager.obj
 0001:0000ace0       ??$_Ptr_cat@PAVPMSNSAP@@PAV1@@std@@YA?AU_Nonscalar_ptr_iterator_tag@0@AAPAVPMSNSAP@@0@Z 10b0bce0 f i LinkManager.obj
 0001:0000ace0       ??$_Move_cat@PAVPMSStatBase@@@std@@YA?AU_Undefined_move_tag@0@ABQAVPMSStatBase@@@Z 10b0bce0 f i LinkManagerMsg.obj
 0001:0000ace0       ??$_Move_cat@PAJ@std@@YA?AU_Undefined_move_tag@0@ABQAJ@Z 10b0bce0 f i LinkManagerMsg.obj
 0001:0000ace0       ??$_Ptr_cat@PAPAVGSyncObj@@PAPAV1@@std@@YA?AU_Scalar_ptr_iterator_tag@0@AAPAPAVGSyncObj@@0@Z 10b0bce0 f i GKernelObj.obj
 0001:0000ace0       ??$_Ptr_cat@PAJPAJ@std@@YA?AU_Scalar_ptr_iterator_tag@0@AAPAJ0@Z 10b0bce0 f i LinkManager.obj
 0001:0000ace0       ??$_Move_cat@PAPAX@std@@YA?AU_Undefined_move_tag@0@ABQAPAX@Z 10b0bce0 f i GKernelObj.obj
 0001:0000ace0       ??$_Ptr_cat@PAVPMSRegionInfo@@PAV1@@std@@YA?AU_Nonscalar_ptr_iterator_tag@0@AAPAVPMSRegionInfo@@0@Z 10b0bce0 f i LinkManager.obj
 0001:0000ad30       ??$_Copy_opt@PAVPMSNSAP@@PAV1@@std@@YAPAVPMSNSAP@@PAV1@00Urandom_access_iterator_tag@0@U_Nonscalar_ptr_iterator_tag@0@U_Range_checked_iterator_tag@0@@Z 10b0bd30 f i LinkManager.obj
 0001:0000ada0       ??4?$basic_string@DU?$char_traits@D@std@@V?$allocator@D@2@@std@@QAEAAV01@PBD@Z 10b0bda0 f i LinkManager.obj
 0001:0000add0       ??$_Uninit_fill_n@PAVPMSNSAP@@IV1@V?$allocator@VPMSNSAP@@@std@@@std@@YAXPAVPMSNSAP@@IABV1@AAV?$allocator@VPMSNSAP@@@0@U_Nonscalar_ptr_iterator_tag@0@U_Range_checked_iterator_tag@0@@Z 10b0bdd0 f i LinkManager.obj
 0001:0000aea0       ??$_Destroy_range@V?$allocator@VPMSNSAP@@@std@@@std@@YAXPAVPMSNSAP@@0AAV?$allocator@VPMSNSAP@@@0@U_Nonscalar_ptr_iterator_tag@0@@Z 10b0bea0 f i LinkManager.obj
 0001:0000aed0       ??$_Unchecked_uninitialized_move@PAVPMSNSAP@@PAV1@V?$allocator@VPMSNSAP@@@std@@@stdext@@YAPAVPMSNSAP@@PAV1@00AAV?$allocator@VPMSNSAP@@@std@@@Z 10b0bed0 f i LinkManager.obj
 0001:0000af40       ??$_Fill@PAVPMSNSAP@@V1@@std@@YAXPAVPMSNSAP@@0ABV1@@Z 10b0bf40 f i LinkManager.obj
 0001:0000af90       ??$_Move_backward_opt@PAVPMSNSAP@@PAV1@Urandom_access_iterator_tag@std@@U_Undefined_move_tag@3@@std@@YAPAVPMSNSAP@@PAV1@00Urandom_access_iterator_tag@0@U_Undefined_move_tag@0@U_Range_checked_iterator_tag@0@@Z 10b0bf90 f i LinkManager.obj
 0001:0000aff0       ??$_Destroy_range@V?$allocator@VPMSStatBase@@@std@@@std@@YAXPAVPMSStatBase@@0AAV?$allocator@VPMSStatBase@@@0@U_Nonscalar_ptr_iterator_tag@0@@Z 10b0bff0 f i LinkManager.obj
 0001:0000b020       ??$_Destroy_range@V?$allocator@VPMSRegionInfo@@@std@@@std@@YAXPAVPMSRegionInfo@@0AAV?$allocator@VPMSRegionInfo@@@0@U_Nonscalar_ptr_iterator_tag@0@@Z 10b0c020 f i LinkManager.obj
 0001:0000b050       ?construct@?$allocator@VPMSNSAP@@@std@@QAEXPAVPMSNSAP@@ABV3@@Z 10b0c050 f i LinkManager.obj
 0001:0000b080       ?destroy@?$allocator@PAU_Node@?$_List_nod@VGBuf@@V?$allocator@VGBuf@@@std@@@std@@@std@@QAEXPAPAU_Node@?$_List_nod@VGBuf@@V?$allocator@VGBuf@@@std@@@2@@Z 10b0c080 f i LinkManager.obj
 0001:0000b080       ?destroy@?$allocator@VPMSNSAP@@@std@@QAEXPAVPMSNSAP@@@Z 10b0c080 f i LinkManager.obj
 0001:0000b0b0       ?destroy@?$allocator@VPMSStatBase@@@std@@QAEXPAVPMSStatBase@@@Z 10b0c0b0 f i LinkManager.obj
 0001:0000b0e0       ?destroy@?$allocator@VPMSRegionInfo@@@std@@QAEXPAVPMSRegionInfo@@@Z 10b0c0e0 f i LinkManager.obj
 0001:0000b110       ??$_Copy_opt@PAVPMSNSAP@@PAV1@Uforward_iterator_tag@std@@@std@@YAPAVPMSNSAP@@PAV1@00Uforward_iterator_tag@0@U_Nonscalar_ptr_iterator_tag@0@U_Range_checked_iterator_tag@0@@Z 10b0c110 f i LinkManager.obj
 0001:0000b170       ??$_Uninit_move@PAVPMSNSAP@@PAV1@V?$allocator@VPMSNSAP@@@std@@U_Undefined_move_tag@3@@std@@YAPAVPMSNSAP@@PAV1@00AAV?$allocator@VPMSNSAP@@@0@U_Undefined_move_tag@0@U_Range_checked_iterator_tag@0@@Z 10b0c170 f i LinkManager.obj
 0001:0000b1a0       ??$_Copy_backward_opt@PAVPMSNSAP@@PAV1@@std@@YAPAVPMSNSAP@@PAV1@00Urandom_access_iterator_tag@0@U_Nonscalar_ptr_iterator_tag@0@U_Range_checked_iterator_tag@0@@Z 10b0c1a0 f i LinkManager.obj
 0001:0000b210       ??$_Construct@VPMSNSAP@@V1@@std@@YAXPAVPMSNSAP@@ABV1@@Z 10b0c210 f i LinkManager.obj
 0001:0000b2b0       ??2@YAPAXIPAX@Z            10b0c2b0 f i LinkManager.obj
 0001:0000b2c0       ??3@YAXPAX0@Z              10b0c2c0 f i LinkManager.obj
 0001:0000b2c0       ??$_Destroy@VPMSNSAP@@@std@@YAXPAVPMSNSAP@@@Z 10b0c2c0 f i LinkManager.obj
 0001:0000b2c0       ??$_Destroy_range@V?$allocator@J@std@@@std@@YAXPAJ0AAV?$allocator@J@0@U_Scalar_ptr_iterator_tag@0@@Z 10b0c2c0 f i LinkManager.obj
 0001:0000b2c0       ??$_Debug_pointer@V?$_Vector_iterator@PAVGSyncObj@@V?$allocator@PAVGSyncObj@@@std@@@std@@@std@@YAXAAV?$_Vector_iterator@PAVGSyncObj@@V?$allocator@PAVGSyncObj@@@std@@@0@PB_WI@Z 10b0c2c0 f i GKernelObj.obj
 0001:0000b2c0       ??$_Debug_pointer@V?$_Vector_iterator@PAXV?$allocator@PAX@std@@@std@@@std@@YAXAAV?$_Vector_iterator@PAXV?$allocator@PAX@std@@@0@PB_WI@Z 10b0c2c0 f i GKernelObj.obj
 0001:0000b2c0       ??$_Destroy_range@V?$allocator@PAX@std@@@std@@YAXPAPAX0AAV?$allocator@PAX@0@U_Scalar_ptr_iterator_tag@0@@Z 10b0c2c0 f i GKernelObj.obj
 0001:0000b2c0       ??$_Destroy@PAU_Node@?$_List_nod@VGBuf@@V?$allocator@VGBuf@@@std@@@std@@@std@@YAXPAPAU_Node@?$_List_nod@VGBuf@@V?$allocator@VGBuf@@@std@@@0@@Z 10b0c2c0 f i LinkManager.obj
 0001:0000b2c0       ??$_Debug_pointer@V?$_Vector_iterator@JV?$allocator@J@std@@@std@@@std@@YAXAAV?$_Vector_iterator@JV?$allocator@J@std@@@0@PB_WI@Z 10b0c2c0 f i LinkManagerMsg.obj
 0001:0000b2c0       ??$_Debug_pointer@V?$_Vector_const_iterator@PAVGSyncObj@@V?$allocator@PAVGSyncObj@@@std@@@std@@@std@@YAXAAV?$_Vector_const_iterator@PAVGSyncObj@@V?$allocator@PAVGSyncObj@@@std@@@0@PB_WI@Z 10b0c2c0 f i GKernelObj.obj
 0001:0000b2c0       ??$_Destroy_range@V?$allocator@PAVGSyncObj@@@std@@@std@@YAXPAPAVGSyncObj@@0AAV?$allocator@PAVGSyncObj@@@0@U_Scalar_ptr_iterator_tag@0@@Z 10b0c2c0 f i GKernelObj.obj
 0001:0000b2d0       ??$_Destroy@VPMSStatBase@@@std@@YAXPAVPMSStatBase@@@Z 10b0c2d0 f i LinkManager.obj
 0001:0000b2f0       ??$_Destroy@VPMSRegionInfo@@@std@@YAXPAVPMSRegionInfo@@@Z 10b0c2f0 f i LinkManager.obj
 0001:0000b310       ??_GPMSStatBase@@QAEPAXI@Z 10b0c310 f i LinkManager.obj
 0001:0000b350       ??1PMSStatBase@@QAE@XZ     10b0c350 f i LinkManager.obj
 0001:0000b380       ??_GPMSRegionInfo@@QAEPAXI@Z 10b0c380 f i LinkManager.obj
 0001:0000b3c0       ??1PMSRegionInfo@@QAE@XZ   10b0c3c0 f i LinkManager.obj
 0001:0000b3f0       ??$unchecked_uninitialized_copy@PAVPMSNSAP@@PAV1@V?$allocator@VPMSNSAP@@@std@@@stdext@@YAPAVPMSNSAP@@PAV1@00AAV?$allocator@VPMSNSAP@@@std@@@Z 10b0c3f0 f i LinkManager.obj
 0001:0000b460       ??$_Copy_backward_opt@PAVPMSNSAP@@PAV1@Uforward_iterator_tag@std@@@std@@YAPAVPMSNSAP@@PAV1@00Uforward_iterator_tag@0@U_Nonscalar_ptr_iterator_tag@0@U_Range_checked_iterator_tag@0@@Z 10b0c460 f i LinkManager.obj
 0001:0000b4c0       ??$_Uninit_copy@PAVPMSNSAP@@PAV1@V?$allocator@VPMSNSAP@@@std@@@std@@YAPAVPMSNSAP@@PAV1@00AAV?$allocator@VPMSNSAP@@@0@U_Nonscalar_ptr_iterator_tag@0@U_Range_checked_iterator_tag@0@@Z 10b0c4c0 f i LinkManager.obj
 0001:0000b5c0       ??0?$list@VGBuf@@V?$allocator@VGBuf@@@std@@@std@@QAE@XZ 10b0c5c0 f i LinkManager.obj
 0001:0000b650       ??1?$list@VGBuf@@V?$allocator@VGBuf@@@std@@@std@@QAE@XZ 10b0c650 f i LinkManager.obj
 0001:0000b6c0       ?size@?$list@VGBuf@@V?$allocator@VGBuf@@@std@@@std@@QBEIXZ 10b0c6c0 f i LinkManager.obj
 0001:0000b6e0       ?front@?$list@VGBuf@@V?$allocator@VGBuf@@@std@@@std@@QAEAAVGBuf@@XZ 10b0c6e0 f i LinkManager.obj
 0001:0000b780       ?pop_front@?$list@VGBuf@@V?$allocator@VGBuf@@@std@@@std@@QAEXXZ 10b0c780 f i LinkManager.obj
 0001:0000b830       ??0?$_Vector_const_iterator@VPMSRegionInfo@@V?$allocator@VPMSRegionInfo@@@std@@@std@@QAE@ABV01@@Z 10b0c830 f i LinkManager.obj
 0001:0000b830       ??0?$_Vector_const_iterator@VPMSNSAP@@V?$allocator@VPMSNSAP@@@std@@@std@@QAE@ABV01@@Z 10b0c830 f i LinkManager.obj
 0001:0000b830       ??0?$_Vector_const_iterator@PAXV?$allocator@PAX@std@@@std@@QAE@ABV01@@Z 10b0c830 f i GKernelObj.obj
 0001:0000b830       ??0?$_Vector_const_iterator@VPMSStatBase@@V?$allocator@VPMSStatBase@@@std@@@std@@QAE@ABV01@@Z 10b0c830 f i LinkManager.obj
 0001:0000b830       ??0?$_Const_iterator@$00@?$list@VGBuf@@V?$allocator@VGBuf@@@std@@@std@@QAE@ABV012@@Z 10b0c830 f i LinkManager.obj
 0001:0000b830       ??0?$_Vector_const_iterator@PAVGSyncObj@@V?$allocator@PAVGSyncObj@@@std@@@std@@QAE@ABV01@@Z 10b0c830 f i GKernelObj.obj
 0001:0000b830       ??0?$_Vector_const_iterator@JV?$allocator@J@std@@@std@@QAE@ABV01@@Z 10b0c830 f i LinkManager.obj
 0001:0000b870       ??0?$_Iterator_with_base@Urandom_access_iterator_tag@std@@JHPBJABJV_Iterator_base@2@@std@@QAE@ABU01@@Z 10b0c870 f i LinkManager.obj
 0001:0000b870       ??0?$_Iterator_with_base@Urandom_access_iterator_tag@std@@PAXHPBQAXABQAXV_Iterator_base@2@@std@@QAE@ABU01@@Z 10b0c870 f i GKernelObj.obj
 0001:0000b870       ??0?$_Iterator_with_base@Urandom_access_iterator_tag@std@@VPMSRegionInfo@@HPBV3@ABV3@V_Iterator_base@2@@std@@QAE@ABU01@@Z 10b0c870 f i LinkManager.obj
 0001:0000b870       ??0?$_Ranit_base@DHPBDABDV_Iterator_base@std@@@std@@QAE@ABU01@@Z 10b0c870 f i LinkManagerMsg.obj
 0001:0000b870       ??0?$_Iterator_with_base@Urandom_access_iterator_tag@std@@VPMSNSAP@@HPBV3@ABV3@V_Iterator_base@2@@std@@QAE@ABU01@@Z 10b0c870 f i LinkManager.obj
 0001:0000b870       ??0?$_Iterator_with_base@Ubidirectional_iterator_tag@std@@VGBuf@@HPBV3@ABV3@V_Iterator_base@2@@std@@QAE@ABU01@@Z 10b0c870 f i LinkManager.obj
 0001:0000b870       ??0?$_Iterator_with_base@Urandom_access_iterator_tag@std@@PAVGSyncObj@@HPBQAV3@ABQAV3@V_Iterator_base@2@@std@@QAE@ABU01@@Z 10b0c870 f i GKernelObj.obj
 0001:0000b870       ??0?$_Iterator_with_base@Urandom_access_iterator_tag@std@@VPMSStatBase@@HPBV3@ABV3@V_Iterator_base@2@@std@@QAE@ABU01@@Z 10b0c870 f i LinkManager.obj
 0001:0000b8a0       ??0?$ObjLockT@VGSafeBufQ@@@@QAE@QBVGSafeBufQ@@H@Z 10b0c8a0 f i LinkManager.obj
 0001:0000b8f0       ??1?$ObjLockT@VGSafeBufQ@@@@QAE@XZ 10b0c8f0 f i LinkManager.obj
 0001:0000b940       ??1?$_List_val@VGBuf@@V?$allocator@VGBuf@@@std@@@std@@QAE@XZ 10b0c940 f i LinkManager.obj
 0001:0000b970       ??1?$_List_ptr@VGBuf@@V?$allocator@VGBuf@@@std@@@std@@QAE@XZ 10b0c970 f i LinkManager.obj
 0001:0000b9a0       ?assign@?$basic_string@DU?$char_traits@D@std@@V?$allocator@D@2@@std@@QAEAAV12@ABV12@@Z 10b0c9a0 f i LinkManager.obj
 0001:0000b9e0       ??0?$_String_val@DV?$allocator@D@std@@@std@@QAE@ABV01@@Z 10b0c9e0 f i LinkManager.obj
 0001:0000b9e0       ??0?$_String_val@_WV?$allocator@_W@std@@@std@@QAE@ABV01@@Z 10b0c9e0 f i GSocket.obj
 0001:0000ba30       ?begin@?$list@VGBuf@@V?$allocator@VGBuf@@@std@@@std@@QAE?AV?$_Iterator@$00@12@XZ 10b0ca30 f i LinkManager.obj
 0001:0000ba90       ?_Nextnode@?$list@VGBuf@@V?$allocator@VGBuf@@@std@@@std@@KAAAPAU_Node@?$_List_nod@VGBuf@@V?$allocator@VGBuf@@@std@@@2@PAU342@@Z 10b0ca90 f i LinkManager.obj
 0001:0000baa0       ?erase@?$list@VGBuf@@V?$allocator@VGBuf@@@std@@@std@@QAE?AV?$_Iterator@$00@12@V?$_Const_iterator@$00@12@@Z 10b0caa0 f i LinkManager.obj
 0001:0000bc40       ?_Prevnode@?$list@VGBuf@@V?$allocator@VGBuf@@@std@@@std@@KAAAPAU_Node@?$_List_nod@VGBuf@@V?$allocator@VGBuf@@@std@@@2@PAU342@@Z 10b0cc40 f i LinkManager.obj
 0001:0000bc50       ?_Buynode@?$list@VGBuf@@V?$allocator@VGBuf@@@std@@@std@@IAEPAU_Node@?$_List_nod@VGBuf@@V?$allocator@VGBuf@@@std@@@2@XZ 10b0cc50 f i LinkManager.obj
 0001:0000bda0       ?_Tidy@?$list@VGBuf@@V?$allocator@VGBuf@@@std@@@std@@IAEXXZ 10b0cda0 f i LinkManager.obj
 0001:0000be20       ?clear@?$list@VGBuf@@V?$allocator@VGBuf@@@std@@@std@@QAEXXZ 10b0ce20 f i LinkManager.obj
 0001:0000bef0       ?_Orphan_ptr@?$list@VGBuf@@V?$allocator@VGBuf@@@std@@@std@@IBEXAAV12@PAU_Node@?$_List_nod@VGBuf@@V?$allocator@VGBuf@@@std@@@2@@Z 10b0cef0 f i LinkManager.obj
 0001:0000bfc0       ??0?$_List_val@VGBuf@@V?$allocator@VGBuf@@@std@@@std@@QAE@V?$allocator@VGBuf@@@1@@Z 10b0cfc0 f i LinkManager.obj
 0001:0000c010       ??$?0VGBuf@@@?$allocator@PAU_Node@?$_List_nod@VGBuf@@V?$allocator@VGBuf@@@std@@@std@@@std@@QAE@ABV?$allocator@VGBuf@@@1@@Z 10b0d010 f i LinkManager.obj
 0001:0000c010       ??0?$allocator@VPMSStatBase@@@std@@QAE@ABV01@@Z 10b0d010 f i LinkManager.obj
 0001:0000c010       ??0?$allocator@VGBuf@@@std@@QAE@ABV01@@Z 10b0d010 f i LinkManager.obj
 0001:0000c010       ??0?$allocator@D@std@@QAE@ABV01@@Z 10b0d010 f i ErrorLog.obj
 0001:0000c010       ??0?$allocator@VPMSNSAP@@@std@@QAE@ABV01@@Z 10b0d010 f i LinkManager.obj
 0001:0000c010       ??0?$allocator@J@std@@QAE@ABV01@@Z 10b0d010 f i LinkManager.obj
 0001:0000c010       ??0?$allocator@_W@std@@QAE@ABV01@@Z 10b0d010 f i GAdlUtl.obj
 0001:0000c010       ??0?$allocator@VPMSRegionInfo@@@std@@QAE@ABV01@@Z 10b0d010 f i LinkManager.obj
 0001:0000c010       ??0?$allocator@PAVGSyncObj@@@std@@QAE@ABV01@@Z 10b0d010 f i GKernelObj.obj
 0001:0000c010       ??$?0VGBuf@@@?$allocator@U_Node@?$_List_nod@VGBuf@@V?$allocator@VGBuf@@@std@@@std@@@std@@QAE@ABV?$allocator@VGBuf@@@1@@Z 10b0d010 f i LinkManager.obj
 0001:0000c030       ?destroy@?$allocator@U_Node@?$_List_nod@VGBuf@@V?$allocator@VGBuf@@@std@@@std@@@std@@QAEXPAU_Node@?$_List_nod@VGBuf@@V?$allocator@VGBuf@@@std@@@2@@Z 10b0d030 f i LinkManager.obj
 0001:0000c060       ??0?$_Iterator@$00@?$list@VGBuf@@V?$allocator@VGBuf@@@std@@@std@@QAE@PAU_Node@?$_List_nod@VGBuf@@V?$allocator@VGBuf@@@std@@@2@PBV12@@Z 10b0d060 f i LinkManager.obj
 0001:0000c0a0       ??D?$_Iterator@$00@?$list@VGBuf@@V?$allocator@VGBuf@@@std@@@std@@QBEAAVGBuf@@XZ 10b0d0a0 f i LinkManager.obj
 0001:0000c0d0       ??0?$_Const_iterator@$00@?$list@VGBuf@@V?$allocator@VGBuf@@@std@@@std@@QAE@PAU_Node@?$_List_nod@VGBuf@@V?$allocator@VGBuf@@@std@@@2@PBV12@@Z 10b0d0d0 f i LinkManager.obj
 0001:0000c150       ?_Make_iter@?$list@VGBuf@@V?$allocator@VGBuf@@@std@@@std@@QBE?AV?$_Iterator@$00@12@V?$_Const_iterator@$00@12@@Z 10b0d150 f i LinkManager.obj
 0001:0000c1e0       ??0?$_List_ptr@VGBuf@@V?$allocator@VGBuf@@@std@@@std@@IAE@V?$allocator@VGBuf@@@1@@Z 10b0d1e0 f i LinkManager.obj
 0001:0000c230       ?allocate@?$allocator@U_Node@?$_List_nod@VGBuf@@V?$allocator@VGBuf@@@std@@@std@@@std@@QAEPAU_Node@?$_List_nod@VGBuf@@V?$allocator@VGBuf@@@std@@@2@I@Z 10b0d230 f i LinkManager.obj
 0001:0000c260       ?construct@?$allocator@PAU_Node@?$_List_nod@VGBuf@@V?$allocator@VGBuf@@@std@@@std@@@std@@QAEXPAPAU_Node@?$_List_nod@VGBuf@@V?$allocator@VGBuf@@@std@@@2@ABQAU342@@Z 10b0d260 f i LinkManager.obj
 0001:0000c290       ??D?$_Const_iterator@$00@?$list@VGBuf@@V?$allocator@VGBuf@@@std@@@std@@QBEABVGBuf@@XZ 10b0d290 f i LinkManager.obj
 0001:0000c340       ??E?$_Const_iterator@$00@?$list@VGBuf@@V?$allocator@VGBuf@@@std@@@std@@QAE?AV012@H@Z 10b0d340 f i LinkManager.obj
 0001:0000c410       ?_Mynode@?$_Const_iterator@$00@?$list@VGBuf@@V?$allocator@VGBuf@@@std@@@std@@QBEPAU_Node@?$_List_nod@VGBuf@@V?$allocator@VGBuf@@@std@@@3@XZ 10b0d410 f i LinkManager.obj
 0001:0000c430       ??0length_error@std@@QAE@ABV01@@Z 10b0d430 f i LinkManager.obj
 0001:0000c470       ?_Myval@?$list@VGBuf@@V?$allocator@VGBuf@@@std@@@std@@KAAAVGBuf@@PAU_Node@?$_List_nod@VGBuf@@V?$allocator@VGBuf@@@std@@@2@@Z 10b0d470 f i LinkManager.obj
 0001:0000c480       ??E?$_Const_iterator@$00@?$list@VGBuf@@V?$allocator@VGBuf@@@std@@@std@@QAEAAV012@XZ 10b0d480 f i LinkManager.obj
 0001:0000c540       ??0?$_Container_base_aux_alloc_empty@V?$allocator@VPMSStatBase@@@std@@@std@@IAE@V?$allocator@VPMSStatBase@@@1@@Z 10b0d540 f i LinkManager.obj
 0001:0000c540       ??0?$_Container_base_aux_alloc_empty@V?$allocator@J@std@@@std@@IAE@V?$allocator@J@1@@Z 10b0d540 f i LinkManager.obj
 0001:0000c540       ??0?$_Container_base_aux_alloc_empty@V?$allocator@PAVGSyncObj@@@std@@@std@@IAE@V?$allocator@PAVGSyncObj@@@1@@Z 10b0d540 f i GKernelObj.obj
 0001:0000c540       ??0?$_Container_base_aux_alloc_empty@V?$allocator@VPMSRegionInfo@@@std@@@std@@IAE@V?$allocator@VPMSRegionInfo@@@1@@Z 10b0d540 f i LinkManager.obj
 0001:0000c540       ??0?$_Container_base_aux_alloc_empty@V?$allocator@VGBuf@@@std@@@std@@IAE@V?$allocator@VGBuf@@@1@@Z 10b0d540 f i LinkManager.obj
 0001:0000c540       ??0?$_Container_base_aux_alloc_empty@V?$allocator@VPMSNSAP@@@std@@@std@@IAE@V?$allocator@VPMSNSAP@@@1@@Z 10b0d540 f i LinkManager.obj
 0001:0000c570       ??$_Destroy@U_Node@?$_List_nod@VGBuf@@V?$allocator@VGBuf@@@std@@@std@@@std@@YAXPAU_Node@?$_List_nod@VGBuf@@V?$allocator@VGBuf@@@std@@@0@@Z 10b0d570 f i LinkManager.obj
 0001:0000c590       ??$_Allocate@U_Node@?$_List_nod@VGBuf@@V?$allocator@VGBuf@@@std@@@std@@@std@@YAPAU_Node@?$_List_nod@VGBuf@@V?$allocator@VGBuf@@@std@@@0@IPAU120@@Z 10b0d590 f i LinkManager.obj
 0001:0000c600       ??$_Construct@PAU_Node@?$_List_nod@VGBuf@@V?$allocator@VGBuf@@@std@@@std@@PAU123@@std@@YAXPAPAU_Node@?$_List_nod@VGBuf@@V?$allocator@VGBuf@@@std@@@0@ABQAU120@@Z 10b0d600 f i LinkManager.obj
 0001:0000c660       ??_G_Node@?$_List_nod@VGBuf@@V?$allocator@VGBuf@@@std@@@std@@QAEPAXI@Z 10b0d660 f i LinkManager.obj
 0001:0000c6a0       ??1_Node@?$_List_nod@VGBuf@@V?$allocator@VGBuf@@@std@@@std@@QAE@XZ 10b0d6a0 f i LinkManager.obj
 0001:0000c6d0       ?AddRegionInfo@CPMSRegionInfoList@@UAEXKKPAV?$vector@JV?$allocator@J@std@@@std@@@Z 10b0d6d0 f   LinkManagerMsg.obj
 0001:0000c820       ?AddRegionInfo2@CPMSRegionInfoList@@UAEXKKQAJ@Z 10b0d820 f   LinkManagerMsg.obj
 0001:0000c920       ?AddRegionInfo238@CPMSRegionInfoList@@UAEXKKQAJ@Z 10b0d920 f   LinkManagerMsg.obj
 0001:0000ca20       ?AddRegionInfo272@CPMSRegionInfoList@@UAEXKKQAJ@Z 10b0da20 f   LinkManagerMsg.obj
 0001:0000cb20       ?AddRegionInfoPC@CPMSRegionInfoListPC@@UAEXKKPAV?$vector@JV?$allocator@J@std@@@std@@@Z 10b0db20 f   LinkManagerMsg.obj
 0001:0000cc70       ?AddRegionInfoPC238@CPMSRegionInfoListPC@@UAEXKKQAJ@Z 10b0dc70 f   LinkManagerMsg.obj
 0001:0000cd70       ?AddRegionInfoPC272@CPMSRegionInfoListPC@@UAEXKKQAJ@Z 10b0dd70 f   LinkManagerMsg.obj
 0001:0000ce70       ?AddStatInfoList@CPMSStatInfoList@@UAEXKKKKKKPBD@Z 10b0de70 f   LinkManagerMsg.obj
 0001:0000cf80       ?AddStatInfoListPC@CPMSStatInfoListPC@@UAEXKKKKKKPBD@Z 10b0df80 f   LinkManagerMsg.obj
 0001:0000d090       ?SendMsg@CLinkManager@@AAEXABVPayloadHA@@@Z 10b0e090 f   LinkManagerMsg.obj
 0001:0000d1b0       ?OnRcvMsg@CLinkManager@@EAEHPAVGBufSocket@@AAVPayloadGS@@@Z 10b0e1b0 f   LinkManagerMsg.obj
 0001:0000d2b0       ?OnError@CLinkManager@@EAEHPAVGBufSocket@@JH@Z 10b0e2b0 f   LinkManagerMsg.obj
 0001:0000d3f0       ?OnAnnounceReq@CLinkManager@@AAEXPAVPMSAAnnounceReq@@@Z 10b0e3f0 f   LinkManagerMsg.obj
 0001:0000d580       ?OnHeartBeatReq@CLinkManager@@AAEXPAVPMSAHeartBeatReq@@@Z 10b0e580 f   LinkManagerMsg.obj
 0001:0000d6a0       ?OnOrderReq@CLinkManager@@AAEXPAVPMSAOrderReq@@@Z 10b0e6a0 f   LinkManagerMsg.obj
 0001:0000d9f0       ?OnPerformReq@CLinkManager@@AAEXPAVPMSAPerformReq@@@Z 10b0e9f0 f   LinkManagerMsg.obj
 0001:0000db20       ?OnRegionInfoReq@CLinkManager@@AAEXPAVPMSARegionInfoReq@@@Z 10b0eb20 f   LinkManagerMsg.obj
 0001:0000dc60       ?OnStatInfoReq@CLinkManager@@AAEXPAVPMSAStatInfoReq@@@Z 10b0ec60 f   LinkManagerMsg.obj
 0001:0000dd90       ?SendWarningMsg@CLinkManager@@QAEHKPBD0KK@Z 10b0ed90 f   LinkManagerMsg.obj
 0001:0000df20       ?OnRegionInfoPCReq@CLinkManager@@AAEXPAVPMSARegionInfoReq@@@Z 10b0ef20 f   LinkManagerMsg.obj
 0001:0000e060       ?OnStatInfoPCReq@CLinkManager@@AAEXPAVPMSAStatInfoReq@@@Z 10b0f060 f   LinkManagerMsg.obj
 0001:0000e1a0       ??0PMSRegionInfo@@QAE@XZ   10b0f1a0 f i LinkManagerMsg.obj
 0001:0000e220       ?Clear@PMSRegionInfo@@UAEXXZ 10b0f220 f i LinkManagerMsg.obj
 0001:0000e270       ??1?$_Vector_iterator@VPMSNSAP@@V?$allocator@VPMSNSAP@@@std@@@std@@QAE@XZ 10b0f270 f i LinkManager.obj
 0001:0000e270       ??1?$_Vector_iterator@JV?$allocator@J@std@@@std@@QAE@XZ 10b0f270 f i LinkManagerMsg.obj
 0001:0000e270       ??1?$_Vector_iterator@PAVGSyncObj@@V?$allocator@PAVGSyncObj@@@std@@@std@@QAE@XZ 10b0f270 f i GKernelObj.obj
 0001:0000e270       ??1?$_Vector_iterator@VPMSRegionInfo@@V?$allocator@VPMSRegionInfo@@@std@@@std@@QAE@XZ 10b0f270 f i LinkManagerMsg.obj
 0001:0000e270       ??1?$_Vector_iterator@VPMSStatBase@@V?$allocator@VPMSStatBase@@@std@@@std@@QAE@XZ 10b0f270 f i LinkManagerMsg.obj
 0001:0000e270       ??1?$_Iterator@$00@?$list@VGBuf@@V?$allocator@VGBuf@@@std@@@std@@QAE@XZ 10b0f270 f i LinkManager.obj
 0001:0000e270       ??1?$_Vector_iterator@PAXV?$allocator@PAX@std@@@std@@QAE@XZ 10b0f270 f i GKernelObj.obj
 0001:0000e2a0       ??0PMSStatBase@@QAE@XZ     10b0f2a0 f i LinkManagerMsg.obj
 0001:0000e320       ?Clear@PMSStatBase@@UAEXXZ 10b0f320 f i LinkManagerMsg.obj
 0001:0000e390       ??0PMSAAnnounceAns@@QAE@ABKABJ@Z 10b0f390 f i LinkManagerMsg.obj
 0001:0000e390       ??0PMSAHeartBeatAns@@QAE@ABJABK@Z 10b0f390 f i LinkManagerMsg.obj
 0001:0000e3e0       ??4PMSUnitID@@QAEAAV0@ABV0@@Z 10b0f3e0 f i LinkManagerMsg.obj
 0001:0000e410       ?BCopy@PMSUnitID@@QAEXABV1@@Z 10b0f410 f i LinkManagerMsg.obj
 0001:0000e470       ??0CPMSPerformanceInfo@@QAE@PAV?$ArcVectorT@J@@@Z 10b0f470 f i LinkManagerMsg.obj
 0001:0000e4b0       ?AddPerformanceInfo@CPMSPerformanceInfo@@UAEXPAV?$vector@JV?$allocator@J@std@@@std@@@Z 10b0f4b0 f i LinkManagerMsg.obj
 0001:0000e560       ?AddPerformanceInfo2@CPMSPerformanceInfo@@UAEXQAJ@Z 10b0f560 f i LinkManagerMsg.obj
 0001:0000e5a0       ??0IPMSPerformanceInfo@@QAE@XZ 10b0f5a0 f i LinkManagerMsg.obj
 0001:0000e5c0       ??0CPMSRegionInfoList@@QAE@ABKPAV?$ArcVectorT@VPMSRegionInfo@@@@@Z 10b0f5c0 f i LinkManagerMsg.obj
 0001:0000e610       ??1CPMSRegionInfoList@@UAE@XZ 10b0f610 f i LinkManagerMsg.obj
 0001:0000e630       ??_ECPMSRegionInfoList@@UAEPAXI@Z 10b0f630 f i LinkManagerMsg.obj
 0001:0000e630       ??_GCPMSRegionInfoList@@UAEPAXI@Z 10b0f630 f i LinkManagerMsg.obj
 0001:0000e670       ??0IPMSRegionInfoList@@QAE@XZ 10b0f670 f i LinkManagerMsg.obj
 0001:0000e690       ??0CPMSStatInfoList@@QAE@ABKPAV?$ArcVectorT@VPMSStatBase@@@@@Z 10b0f690 f i LinkManagerMsg.obj
 0001:0000e6e0       ??1CPMSStatInfoList@@UAE@XZ 10b0f6e0 f i LinkManagerMsg.obj
 0001:0000e700       ??_GCPMSStatInfoList@@UAEPAXI@Z 10b0f700 f i LinkManagerMsg.obj
 0001:0000e700       ??_ECPMSStatInfoList@@UAEPAXI@Z 10b0f700 f i LinkManagerMsg.obj
 0001:0000e740       ??0IPMSStatInfoList@@QAE@XZ 10b0f740 f i LinkManagerMsg.obj
 0001:0000e760       ??0CPMSRegionInfoListPC@@QAE@ABKPAV?$ArcVectorT@VPMSRegionInfo@@@@@Z 10b0f760 f i LinkManagerMsg.obj
 0001:0000e7b0       ??1CPMSRegionInfoListPC@@UAE@XZ 10b0f7b0 f i LinkManagerMsg.obj
 0001:0000e7d0       ??_GCPMSRegionInfoListPC@@UAEPAXI@Z 10b0f7d0 f i LinkManagerMsg.obj
 0001:0000e7d0       ??_ECPMSRegionInfoListPC@@UAEPAXI@Z 10b0f7d0 f i LinkManagerMsg.obj
 0001:0000e810       ??0IPMSRegionInfoListPC@@QAE@XZ 10b0f810 f i LinkManagerMsg.obj
 0001:0000e830       ??0CPMSStatInfoListPC@@QAE@ABKPAV?$ArcVectorT@VPMSStatBase@@@@@Z 10b0f830 f i LinkManagerMsg.obj
 0001:0000e880       ??1CPMSStatInfoListPC@@UAE@XZ 10b0f880 f i LinkManagerMsg.obj
 0001:0000e8a0       ??_ECPMSStatInfoListPC@@UAEPAXI@Z 10b0f8a0 f i LinkManagerMsg.obj
 0001:0000e8a0       ??_GCPMSStatInfoListPC@@UAEPAXI@Z 10b0f8a0 f i LinkManagerMsg.obj
 0001:0000e8e0       ??0IPMSStatInfoListPC@@QAE@XZ 10b0f8e0 f i LinkManagerMsg.obj
 0001:0000e900       ?assign@?$basic_string@DU?$char_traits@D@std@@V?$allocator@D@2@@std@@QAEAAV12@ID@Z 10b0f900 f i LinkManagerMsg.obj
 0001:0000e960       ?clear@?$basic_string@DU?$char_traits@D@std@@V?$allocator@D@2@@std@@QAEXXZ 10b0f960 f i LinkManagerMsg.obj
 0001:0000ea60       ?find_first_of@?$basic_string@DU?$char_traits@D@std@@V?$allocator@D@2@@std@@QBEIPBDI@Z 10b0fa60 f i LinkManagerMsg.obj
 0001:0000eac0       ?begin@?$vector@JV?$allocator@J@std@@@std@@QAE?AV?$_Vector_iterator@JV?$allocator@J@std@@@2@XZ 10b0fac0 f i LinkManagerMsg.obj
 0001:0000eb10       ?end@?$vector@JV?$allocator@J@std@@@std@@QAE?AV?$_Vector_iterator@JV?$allocator@J@std@@@2@XZ 10b0fb10 f i LinkManagerMsg.obj
 0001:0000eb60       ?clear@?$vector@JV?$allocator@J@std@@@std@@QAEXXZ 10b0fb60 f i LinkManagerMsg.obj
 0001:0000ec60       ?push_back@?$vector@VPMSStatBase@@V?$allocator@VPMSStatBase@@@std@@@std@@QAEXABVPMSStatBase@@@Z 10b0fc60 f i LinkManagerMsg.obj
 0001:0000ed60       ?push_back@?$vector@VPMSRegionInfo@@V?$allocator@VPMSRegionInfo@@@std@@@std@@QAEXABVPMSRegionInfo@@@Z 10b0fd60 f i LinkManagerMsg.obj
 0001:0000ee60       ??1?$_Vector_const_iterator@PAXV?$allocator@PAX@std@@@std@@QAE@XZ 10b0fe60 f i GKernelObj.obj
 0001:0000ee60       ??1?$_Vector_const_iterator@VPMSStatBase@@V?$allocator@VPMSStatBase@@@std@@@std@@QAE@XZ 10b0fe60 f i LinkManager.obj
 0001:0000ee60       ??1?$_String_iterator@DU?$char_traits@D@std@@V?$allocator@D@2@@std@@QAE@XZ 10b0fe60 f i LinkManagerMsg.obj
 0001:0000ee60       ??1?$_Const_iterator@$00@?$list@VGBuf@@V?$allocator@VGBuf@@@std@@@std@@QAE@XZ 10b0fe60 f i LinkManager.obj
 0001:0000ee60       ??1?$_Vector_const_iterator@VPMSRegionInfo@@V?$allocator@VPMSRegionInfo@@@std@@@std@@QAE@XZ 10b0fe60 f i LinkManager.obj
 0001:0000ee60       ??1?$_Vector_const_iterator@VPMSNSAP@@V?$allocator@VPMSNSAP@@@std@@@std@@QAE@XZ 10b0fe60 f i LinkManager.obj
 0001:0000ee60       ??1?$_Vector_const_iterator@JV?$allocator@J@std@@@std@@QAE@XZ 10b0fe60 f i LinkManager.obj
 0001:0000ee60       ??1?$_Vector_const_iterator@PAVGSyncObj@@V?$allocator@PAVGSyncObj@@@std@@@std@@QAE@XZ 10b0fe60 f i GKernelObj.obj
 0001:0000ee90       ??0?$_String_const_iterator@DU?$char_traits@D@std@@V?$allocator@D@2@@std@@QAE@ABV01@@Z 10b0fe90 f i LinkManagerMsg.obj
 0001:0000eed0       ?erase@?$basic_string@DU?$char_traits@D@std@@V?$allocator@D@2@@std@@QAE?AV?$_String_iterator@DU?$char_traits@D@std@@V?$allocator@D@2@@2@V?$_String_const_iterator@DU?$char_traits@D@std@@V?$allocator@D@2@@2@0@Z 10b0fed0 f i LinkManagerMsg.obj
 0001:0000f030       ?begin@?$basic_string@DU?$char_traits@D@std@@V?$allocator@D@2@@std@@QAE?AV?$_String_iterator@DU?$char_traits@D@std@@V?$allocator@D@2@@2@XZ 10b10030 f i LinkManagerMsg.obj
 0001:0000f080       ?end@?$basic_string@DU?$char_traits@D@std@@V?$allocator@D@2@@std@@QAE?AV?$_String_iterator@DU?$char_traits@D@std@@V?$allocator@D@2@@2@XZ 10b10080 f i LinkManagerMsg.obj
 0001:0000f0e0       ?find_first_of@?$basic_string@DU?$char_traits@D@std@@V?$allocator@D@2@@std@@QBEIPBDII@Z 10b100e0 f i LinkManagerMsg.obj
 0001:0000f1a0       ?_Chassign@?$basic_string@DU?$char_traits@D@std@@V?$allocator@D@2@@std@@IAEXIID@Z 10b101a0 f i LinkManagerMsg.obj
 0001:0000f200       ?assign@?$char_traits@D@std@@SAPADPADID@Z 10b10200 f i LinkManagerMsg.obj
 0001:0000f230       ?erase@?$vector@JV?$allocator@J@std@@@std@@QAE?AV?$_Vector_iterator@JV?$allocator@J@std@@@2@V?$_Vector_const_iterator@JV?$allocator@J@std@@@2@0@Z 10b10230 f i LinkManagerMsg.obj
 0001:0000f420       ?capacity@?$vector@VPMSStatBase@@V?$allocator@VPMSStatBase@@@std@@@std@@QBEIXZ 10b10420 f i LinkManagerMsg.obj
 0001:0000f470       ?end@?$vector@VPMSStatBase@@V?$allocator@VPMSStatBase@@@std@@@std@@QAE?AV?$_Vector_iterator@VPMSStatBase@@V?$allocator@VPMSStatBase@@@std@@@2@XZ 10b10470 f i LinkManagerMsg.obj
 0001:0000f4c0       ?insert@?$vector@VPMSStatBase@@V?$allocator@VPMSStatBase@@@std@@@std@@QAE?AV?$_Vector_iterator@VPMSStatBase@@V?$allocator@VPMSStatBase@@@std@@@2@V?$_Vector_const_iterator@VPMSStatBase@@V?$allocator@VPMSStatBase@@@std@@@2@ABVPMSStatBase@@@Z 10b104c0 f i LinkManagerMsg.obj
 0001:0000f600       ?_Ufill@?$vector@VPMSStatBase@@V?$allocator@VPMSStatBase@@@std@@@std@@IAEPAVPMSStatBase@@PAV3@IABV3@@Z 10b10600 f i LinkManagerMsg.obj
 0001:0000f650       ?capacity@?$vector@VPMSRegionInfo@@V?$allocator@VPMSRegionInfo@@@std@@@std@@QBEIXZ 10b10650 f i LinkManagerMsg.obj
 0001:0000f6a0       ?end@?$vector@VPMSRegionInfo@@V?$allocator@VPMSRegionInfo@@@std@@@std@@QAE?AV?$_Vector_iterator@VPMSRegionInfo@@V?$allocator@VPMSRegionInfo@@@std@@@2@XZ 10b106a0 f i LinkManagerMsg.obj
 0001:0000f6f0       ?insert@?$vector@VPMSRegionInfo@@V?$allocator@VPMSRegionInfo@@@std@@@std@@QAE?AV?$_Vector_iterator@VPMSRegionInfo@@V?$allocator@VPMSRegionInfo@@@std@@@2@V?$_Vector_const_iterator@VPMSRegionInfo@@V?$allocator@VPMSRegionInfo@@@std@@@2@ABVPMSRegionInfo@@@Z 10b106f0 f i LinkManagerMsg.obj
 0001:0000f830       ?_Ufill@?$vector@VPMSRegionInfo@@V?$allocator@VPMSRegionInfo@@@std@@@std@@IAEPAVPMSRegionInfo@@PAV3@IABV3@@Z 10b10830 f i LinkManagerMsg.obj
 0001:0000f880       ?_Orphan_range@?$vector@JV?$allocator@J@std@@@std@@IBEXPAJ0@Z 10b10880 f i LinkManagerMsg.obj
 0001:0000f880       ?_Orphan_range@?$vector@VPMSRegionInfo@@V?$allocator@VPMSRegionInfo@@@std@@@std@@IBEXPAVPMSRegionInfo@@0@Z 10b10880 f i LinkManagerMsg.obj
 0001:0000f880       ?_Orphan_range@?$vector@PAXV?$allocator@PAX@std@@@std@@IBEXPAPAX0@Z 10b10880 f i GKernelObj.obj
 0001:0000f880       ?_Orphan_range@?$vector@PAVGSyncObj@@V?$allocator@PAVGSyncObj@@@std@@@std@@IBEXPAPAVGSyncObj@@0@Z 10b10880 f i GKernelObj.obj
 0001:0000f880       ?_Orphan_range@?$vector@VPMSStatBase@@V?$allocator@VPMSStatBase@@@std@@@std@@IBEXPAVPMSStatBase@@0@Z 10b10880 f i LinkManagerMsg.obj
 0001:0000f880       ?_Orphan_range@?$vector@VPMSNSAP@@V?$allocator@VPMSNSAP@@@std@@@std@@IBEXPAVPMSNSAP@@0@Z 10b10880 f i LinkManager.obj
 0001:0000f940       ??0?$_Vector_iterator@JV?$allocator@J@std@@@std@@QAE@PAJPBV_Container_base_secure@1@@Z 10b10940 f i LinkManagerMsg.obj
 0001:0000f980       ?_Pdif@?$basic_string@DU?$char_traits@D@std@@V?$allocator@D@2@@std@@KAIV?$_String_const_iterator@DU?$char_traits@D@std@@V?$allocator@D@2@@2@0@Z 10b10980 f i LinkManagerMsg.obj
 0001:0000fa20       ?_Make_iter@?$vector@JV?$allocator@J@std@@@std@@QBE?AV?$_Vector_iterator@JV?$allocator@J@std@@@2@V?$_Vector_const_iterator@JV?$allocator@J@std@@@2@@Z 10b10a20 f i LinkManagerMsg.obj
 0001:0000fab0       ?begin@?$vector@VPMSStatBase@@V?$allocator@VPMSStatBase@@@std@@@std@@QAE?AV?$_Vector_iterator@VPMSStatBase@@V?$allocator@VPMSStatBase@@@std@@@2@XZ 10b10ab0 f i LinkManagerMsg.obj
 0001:0000fb00       ?_Insert_n@?$vector@VPMSStatBase@@V?$allocator@VPMSStatBase@@@std@@@std@@IAEXV?$_Vector_const_iterator@VPMSStatBase@@V?$allocator@VPMSStatBase@@@std@@@2@IABVPMSStatBase@@@Z 10b10b00 f i LinkManagerMsg.obj
 0001:0000fff0       ??0PMSStatBase@@QAE@ABV0@@Z 10b10ff0 f i LinkManagerMsg.obj
 0001:00010080       ?BCopy@PMSStatBase@@QAEXABV1@@Z 10b11080 f i LinkManagerMsg.obj
 0001:00010130       ?BCopy@@YAXAAVPMSUnitID@@ABV1@@Z 10b11130 f i LinkManagerMsg.obj
 0001:00010150       ?begin@?$vector@VPMSRegionInfo@@V?$allocator@VPMSRegionInfo@@@std@@@std@@QAE?AV?$_Vector_iterator@VPMSRegionInfo@@V?$allocator@VPMSRegionInfo@@@std@@@2@XZ 10b11150 f i LinkManagerMsg.obj
 0001:000101a0       ?_Insert_n@?$vector@VPMSRegionInfo@@V?$allocator@VPMSRegionInfo@@@std@@@std@@IAEXV?$_Vector_const_iterator@VPMSRegionInfo@@V?$allocator@VPMSRegionInfo@@@std@@@2@IABVPMSRegionInfo@@@Z 10b111a0 f i LinkManagerMsg.obj
 0001:00010670       ??0PMSRegionInfo@@QAE@ABV0@@Z 10b11670 f i LinkManagerMsg.obj
 0001:00010700       ?BCopy@PMSRegionInfo@@QAEXABV1@@Z 10b11700 f i LinkManagerMsg.obj
 0001:00010750       ??M?$_Vector_const_iterator@JV?$allocator@J@std@@@std@@QBE_NABV01@@Z 10b11750 f i LinkManagerMsg.obj
 0001:00010790       ??0?$_String_iterator@DU?$char_traits@D@std@@V?$allocator@D@2@@std@@QAE@PADPBV_Container_base_secure@1@@Z 10b11790 f i LinkManagerMsg.obj
 0001:000107d0       ??0?$_Vector_iterator@VPMSStatBase@@V?$allocator@VPMSStatBase@@@std@@@std@@QAE@PAVPMSStatBase@@PBV_Container_base_secure@1@@Z 10b117d0 f i LinkManagerMsg.obj
 0001:00010810       ??H?$_Vector_iterator@VPMSStatBase@@V?$allocator@VPMSStatBase@@@std@@@std@@QBE?AV01@H@Z 10b11810 f i LinkManagerMsg.obj
 0001:000108f0       ??G?$_Vector_const_iterator@VPMSStatBase@@V?$allocator@VPMSStatBase@@@std@@@std@@QBEHABV01@@Z 10b118f0 f i LinkManagerMsg.obj
 0001:00010930       ??0?$_Vector_iterator@VPMSRegionInfo@@V?$allocator@VPMSRegionInfo@@@std@@@std@@QAE@PAVPMSRegionInfo@@PBV_Container_base_secure@1@@Z 10b11930 f i LinkManagerMsg.obj
 0001:00010970       ??H?$_Vector_iterator@VPMSRegionInfo@@V?$allocator@VPMSRegionInfo@@@std@@@std@@QBE?AV01@H@Z 10b11970 f i LinkManagerMsg.obj
 0001:00010a50       ??G?$_Vector_const_iterator@VPMSRegionInfo@@V?$allocator@VPMSRegionInfo@@@std@@@std@@QBEHABV01@@Z 10b11a50 f i LinkManagerMsg.obj
 0001:00010a90       ??0?$_String_const_iterator@DU?$char_traits@D@std@@V?$allocator@D@2@@std@@QAE@PBDPBV_Container_base_secure@1@@Z 10b11a90 f i LinkManagerMsg.obj
 0001:00010b80       ??G?$_String_const_iterator@DU?$char_traits@D@std@@V?$allocator@D@2@@std@@QBEHABV01@@Z 10b11b80 f i LinkManagerMsg.obj
 0001:00010bc0       ??Y?$_Vector_iterator@VPMSStatBase@@V?$allocator@VPMSStatBase@@@std@@@std@@QAEAAV01@H@Z 10b11bc0 f i LinkManagerMsg.obj
 0001:00010bf0       ??Y?$_Vector_iterator@VPMSRegionInfo@@V?$allocator@VPMSRegionInfo@@@std@@@std@@QAEAAV01@H@Z 10b11bf0 f i LinkManagerMsg.obj
 0001:00010c20       ?_Compat@?$_String_const_iterator@DU?$char_traits@D@std@@V?$allocator@D@2@@std@@QBEXABV12@@Z 10b11c20 f i LinkManagerMsg.obj
 0001:00010cb0       ??Y?$_Vector_const_iterator@VPMSStatBase@@V?$allocator@VPMSStatBase@@@std@@@std@@QAEAAV01@H@Z 10b11cb0 f i LinkManagerMsg.obj
 0001:00010dc0       ??Y?$_Vector_const_iterator@VPMSRegionInfo@@V?$allocator@VPMSRegionInfo@@@std@@@std@@QAEAAV01@H@Z 10b11dc0 f i LinkManagerMsg.obj
 0001:00010ed0       ??$BCopy@J@@YAXAAV?$ArcVectorT@J@@ABV0@@Z 10b11ed0 f i LinkManagerMsg.obj
 0001:00010ef0       ??$assign@V?$_Vector_iterator@JV?$allocator@J@std@@@std@@@?$vector@JV?$allocator@J@std@@@std@@QAEXV?$_Vector_iterator@JV?$allocator@J@std@@@1@0@Z 10b11ef0 f i LinkManagerMsg.obj
 0001:00010fd0       ??$assign@PAJ@?$vector@JV?$allocator@J@std@@@std@@QAEXPAJ0@Z 10b11fd0 f i LinkManagerMsg.obj
 0001:00011020       ??$?0VPMSAAnnounceAns@@@PayloadHA@@QAE@IABVPMSAAnnounceAns@@@Z 10b12020 f i LinkManagerMsg.obj
 0001:00011020       ??$?0VPMSAHeartBeatAns@@@PayloadHA@@QAE@IABVPMSAHeartBeatAns@@@Z 10b12020 f i LinkManagerMsg.obj
 0001:000110e0       ?BCopy@@YAXAAVPMSAAnnounceAns@@ABV1@@Z 10b120e0 f i LinkManagerMsg.obj
 0001:000110e0       ?BCopy@@YAXAAVPMSAHeartBeatAns@@ABV1@@Z 10b120e0 f i LinkManagerMsg.obj
 0001:00011100       ?BCopy@PMSNSAP@@QAEXABV1@@Z 10b12100 f i LinkManager.obj
 0001:00011100       ?BCopy@PMSAHeartBeatAns@@QAEXABV1@@Z 10b12100 f i LinkManagerMsg.obj
 0001:00011100       ?BCopy@PMSAAnnounceAns@@QAEXABV1@@Z 10b12100 f i LinkManagerMsg.obj
 0001:00011150       ??$unchecked_uninitialized_fill_n@PAVPMSStatBase@@IV1@V?$allocator@VPMSStatBase@@@std@@@stdext@@YAXPAVPMSStatBase@@IABV1@AAV?$allocator@VPMSStatBase@@@std@@@Z 10b12150 f i LinkManagerMsg.obj
 0001:000111b0       ??$unchecked_uninitialized_fill_n@PAVPMSRegionInfo@@IV1@V?$allocator@VPMSRegionInfo@@@std@@@stdext@@YAXPAVPMSRegionInfo@@IABV1@AAV?$allocator@VPMSRegionInfo@@@std@@@Z 10b121b0 f i LinkManagerMsg.obj
 0001:00011210       ??$_Umove@PAVPMSStatBase@@@?$vector@VPMSStatBase@@V?$allocator@VPMSStatBase@@@std@@@std@@IAEPAVPMSStatBase@@PAV2@00@Z 10b12210 f i LinkManagerMsg.obj
 0001:00011250       ??$fill@PAVPMSStatBase@@V1@@std@@YAXPAVPMSStatBase@@0ABV1@@Z 10b12250 f i LinkManagerMsg.obj
 0001:00011290       ??$_Unchecked_move_backward@PAVPMSStatBase@@PAV1@@stdext@@YAPAVPMSStatBase@@PAV1@00@Z 10b12290 f i LinkManagerMsg.obj
 0001:00011310       ??$_Umove@PAVPMSRegionInfo@@@?$vector@VPMSRegionInfo@@V?$allocator@VPMSRegionInfo@@@std@@@std@@IAEPAVPMSRegionInfo@@PAV2@00@Z 10b12310 f i LinkManagerMsg.obj
 0001:00011350       ??$fill@PAVPMSRegionInfo@@V1@@std@@YAXPAVPMSRegionInfo@@0ABV1@@Z 10b12350 f i LinkManagerMsg.obj
 0001:00011390       ??$_Unchecked_move_backward@PAVPMSRegionInfo@@PAV1@@stdext@@YAPAVPMSRegionInfo@@PAV1@00@Z 10b12390 f i LinkManagerMsg.obj
 0001:00011410       ?BCopy@?$ArcVectorT@J@@QAEXABV1@@Z 10b12410 f i LinkManagerMsg.obj
 0001:00011580       ?back@?$vector@JV?$allocator@J@std@@@std@@QAEAAJXZ 10b12580 f i LinkManagerMsg.obj
 0001:00011640       ?push_back@?$vector@JV?$allocator@J@std@@@std@@QAEXABJ@Z 10b12640 f i LinkManagerMsg.obj
 0001:00011740       ?insert@?$vector@JV?$allocator@J@std@@@std@@QAE?AV?$_Vector_iterator@JV?$allocator@J@std@@@2@V?$_Vector_const_iterator@JV?$allocator@J@std@@@2@ABJ@Z 10b12740 f i LinkManagerMsg.obj
 0001:00011880       ?_Ufill@?$vector@PAXV?$allocator@PAX@std@@@std@@IAEPAPAXPAPAXIABQAX@Z 10b12880 f i GKernelObj.obj
 0001:00011880       ?_Ufill@?$vector@PAVGSyncObj@@V?$allocator@PAVGSyncObj@@@std@@@std@@IAEPAPAVGSyncObj@@PAPAV3@IABQAV3@@Z 10b12880 f i GKernelObj.obj
 0001:00011880       ?_Ufill@?$vector@JV?$allocator@J@std@@@std@@IAEPAJPAJIABJ@Z 10b12880 f i LinkManagerMsg.obj
 0001:000118d0       ?Push@GSafeBufQ@@QAEXABVGBuf@@@Z 10b128d0 f i LinkManagerMsg.obj
 0001:00011980       ?Push@GBufQ@@QAEXABVGBuf@@@Z 10b12980 f i LinkManagerMsg.obj
 0001:000119b0       ?BCopy@@YAXAAV?$basic_string@DU?$char_traits@D@std@@V?$allocator@D@2@@std@@ABV12@@Z 10b129b0 f i LinkManagerMsg.obj
 0001:000119e0       ??D?$_Vector_iterator@JV?$allocator@J@std@@@std@@QBEAAJXZ 10b129e0 f i LinkManagerMsg.obj
 0001:00011a10       ??G?$_Vector_iterator@JV?$allocator@J@std@@@std@@QBE?AV01@H@Z 10b12a10 f i LinkManagerMsg.obj
 0001:00011af0       ?_Insert_n@?$vector@PAXV?$allocator@PAX@std@@@std@@IAEXV?$_Vector_const_iterator@PAXV?$allocator@PAX@std@@@2@IABQAX@Z 10b12af0 f i GKernelObj.obj
 0001:00011af0       ?_Insert_n@?$vector@PAVGSyncObj@@V?$allocator@PAVGSyncObj@@@std@@@std@@IAEXV?$_Vector_const_iterator@PAVGSyncObj@@V?$allocator@PAVGSyncObj@@@std@@@2@IABQAVGSyncObj@@@Z 10b12af0 f i GKernelObj.obj
 0001:00011af0       ?_Insert_n@?$vector@JV?$allocator@J@std@@@std@@IAEXV?$_Vector_const_iterator@JV?$allocator@J@std@@@2@IABJ@Z 10b12af0 f i LinkManagerMsg.obj
 0001:00011f60       ??4?$basic_string@DU?$char_traits@D@std@@V?$allocator@D@2@@std@@QAEAAV01@ABV01@@Z 10b12f60 f i LinkManagerMsg.obj
 0001:00011f90       ??H?$_Vector_iterator@JV?$allocator@J@std@@@std@@QBE?AV01@H@Z 10b12f90 f i LinkManagerMsg.obj
 0001:00012070       ??Z?$_Vector_iterator@JV?$allocator@J@std@@@std@@QAEAAV01@H@Z 10b13070 f i LinkManagerMsg.obj
 0001:000120a0       ??G?$_Vector_const_iterator@JV?$allocator@J@std@@@std@@QBEHABV01@@Z 10b130a0 f i LinkManagerMsg.obj
 0001:000120e0       ??Y?$_Vector_iterator@JV?$allocator@J@std@@@std@@QAEAAV01@H@Z 10b130e0 f i LinkManagerMsg.obj
 0001:00012110       ??Y?$_Vector_const_iterator@JV?$allocator@J@std@@@std@@QAEAAV01@H@Z 10b13110 f i LinkManagerMsg.obj
 0001:00012220       ??$_Assign@V?$_Vector_iterator@JV?$allocator@J@std@@@std@@@?$vector@JV?$allocator@J@std@@@std@@QAEXV?$_Vector_iterator@JV?$allocator@J@std@@@1@0Uinput_iterator_tag@1@@Z 10b13220 f i LinkManagerMsg.obj
 0001:000123d0       ??$_Assign@PAJ@?$vector@JV?$allocator@J@std@@@std@@QAEXPAJ0Uinput_iterator_tag@1@@Z 10b133d0 f i LinkManagerMsg.obj
 0001:00012520       ??$_Checked_base@PAVPMSRegionInfo@@@std@@YAPAVPMSRegionInfo@@AAPAV1@@Z 10b13520 f i LinkManagerMsg.obj
 0001:00012520       ??$_Checked_base@PAPAX@std@@YAPAPAXAAPAPAX@Z 10b13520 f i GKernelObj.obj
 0001:00012520       ??$_Checked_base@PAVPMSNSAP@@@std@@YAPAVPMSNSAP@@AAPAV1@@Z 10b13520 f i LinkManager.obj
 0001:00012520       ??$_Checked_base@PAPAVGSyncObj@@@std@@YAPAPAVGSyncObj@@AAPAPAV1@@Z 10b13520 f i GKernelObj.obj
 0001:00012520       ??$_Checked_base@PAVPMSStatBase@@@std@@YAPAVPMSStatBase@@AAPAV1@@Z 10b13520 f i LinkManagerMsg.obj
 0001:00012520       ??$_Checked_base@PAJ@std@@YAPAJAAPAJ@Z 10b13520 f i LinkManagerMsg.obj
 0001:00012590       ??$_Uninit_fill_n@PAVPMSStatBase@@IV1@V?$allocator@VPMSStatBase@@@std@@@std@@YAXPAVPMSStatBase@@IABV1@AAV?$allocator@VPMSStatBase@@@0@U_Nonscalar_ptr_iterator_tag@0@U_Range_checked_iterator_tag@0@@Z 10b13590 f i LinkManagerMsg.obj
 0001:00012660       ??$_Uninit_fill_n@PAVPMSRegionInfo@@IV1@V?$allocator@VPMSRegionInfo@@@std@@@std@@YAXPAVPMSRegionInfo@@IABV1@AAV?$allocator@VPMSRegionInfo@@@0@U_Nonscalar_ptr_iterator_tag@0@U_Range_checked_iterator_tag@0@@Z 10b13660 f i LinkManagerMsg.obj
 0001:00012730       ??$_Unchecked_uninitialized_move@PAVPMSStatBase@@PAV1@V?$allocator@VPMSStatBase@@@std@@@stdext@@YAPAVPMSStatBase@@PAV1@00AAV?$allocator@VPMSStatBase@@@std@@@Z 10b13730 f i LinkManagerMsg.obj
 0001:000127a0       ??$_Fill@PAVPMSStatBase@@V1@@std@@YAXPAVPMSStatBase@@0ABV1@@Z 10b137a0 f i LinkManagerMsg.obj
 0001:000127f0       ??4PMSStatBase@@QAEAAV0@ABV0@@Z 10b137f0 f i LinkManagerMsg.obj
 0001:00012820       ??$_Move_backward_opt@PAVPMSStatBase@@PAV1@Urandom_access_iterator_tag@std@@U_Undefined_move_tag@3@@std@@YAPAVPMSStatBase@@PAV1@00Urandom_access_iterator_tag@0@U_Undefined_move_tag@0@U_Range_checked_iterator_tag@0@@Z 10b13820 f i LinkManagerMsg.obj
 0001:00012880       ??$_Unchecked_uninitialized_move@PAVPMSRegionInfo@@PAV1@V?$allocator@VPMSRegionInfo@@@std@@@stdext@@YAPAVPMSRegionInfo@@PAV1@00AAV?$allocator@VPMSRegionInfo@@@std@@@Z 10b13880 f i LinkManagerMsg.obj
 0001:000128f0       ??$_Fill@PAVPMSRegionInfo@@V1@@std@@YAXPAVPMSRegionInfo@@0ABV1@@Z 10b138f0 f i LinkManagerMsg.obj
 0001:00012940       ??4PMSRegionInfo@@QAEAAV0@ABV0@@Z 10b13940 f i LinkManagerMsg.obj
 0001:00012970       ??$_Move_backward_opt@PAVPMSRegionInfo@@PAV1@Urandom_access_iterator_tag@std@@U_Undefined_move_tag@3@@std@@YAPAVPMSRegionInfo@@PAV1@00Urandom_access_iterator_tag@0@U_Undefined_move_tag@0@U_Range_checked_iterator_tag@0@@Z 10b13970 f i LinkManagerMsg.obj
 0001:000129d0       ??$unchecked_uninitialized_fill_n@PAPAXIPAXV?$allocator@PAX@std@@@stdext@@YAXPAPAXIABQAXAAV?$allocator@PAX@std@@@Z 10b139d0 f i GKernelObj.obj
 0001:000129d0       ??$unchecked_uninitialized_fill_n@PAJIJV?$allocator@J@std@@@stdext@@YAXPAJIABJAAV?$allocator@J@std@@@Z 10b139d0 f i LinkManagerMsg.obj
 0001:000129d0       ??$unchecked_uninitialized_fill_n@PAPAVGSyncObj@@IPAV1@V?$allocator@PAVGSyncObj@@@std@@@stdext@@YAXPAPAVGSyncObj@@IABQAV1@AAV?$allocator@PAVGSyncObj@@@std@@@Z 10b139d0 f i GKernelObj.obj
 0001:00012a30       ??$fill@PAJJ@std@@YAXPAJ0ABJ@Z 10b13a30 f i LinkManagerMsg.obj
 0001:00012a30       ??$fill@PAPAXPAX@std@@YAXPAPAX0ABQAX@Z 10b13a30 f i GKernelObj.obj
 0001:00012a30       ??$fill@PAPAVGSyncObj@@PAV1@@std@@YAXPAPAVGSyncObj@@0ABQAV1@@Z 10b13a30 f i GKernelObj.obj
 0001:00012a70       ??$_Unchecked_move_backward@PAPAVGSyncObj@@PAPAV1@@stdext@@YAPAPAVGSyncObj@@PAPAV1@00@Z 10b13a70 f i GKernelObj.obj
 0001:00012a70       ??$_Unchecked_move_backward@PAJPAJ@stdext@@YAPAJPAJ00@Z 10b13a70 f i LinkManagerMsg.obj
 0001:00012a70       ??$_Unchecked_move_backward@PAPAXPAPAX@stdext@@YAPAPAXPAPAX00@Z 10b13a70 f i GKernelObj.obj
 0001:00012af0       ?construct@?$allocator@VPMSStatBase@@@std@@QAEXPAVPMSStatBase@@ABV3@@Z 10b13af0 f i LinkManagerMsg.obj
 0001:00012b20       ?construct@?$allocator@VPMSRegionInfo@@@std@@QAEXPAVPMSRegionInfo@@ABV3@@Z 10b13b20 f i LinkManagerMsg.obj
 0001:00012b50       ??$insert@V?$_Vector_iterator@JV?$allocator@J@std@@@std@@@?$vector@JV?$allocator@J@std@@@std@@QAEXV?$_Vector_const_iterator@JV?$allocator@J@std@@@1@V?$_Vector_iterator@JV?$allocator@J@std@@@1@1@Z 10b13b50 f i LinkManagerMsg.obj
 0001:00012c50       ??$insert@PAJ@?$vector@JV?$allocator@J@std@@@std@@QAEXV?$_Vector_const_iterator@JV?$allocator@J@std@@@1@PAJ1@Z 10b13c50 f i LinkManagerMsg.obj
 0001:00012d00       ??$_Uninit_move@PAVPMSStatBase@@PAV1@V?$allocator@VPMSStatBase@@@std@@U_Undefined_move_tag@3@@std@@YAPAVPMSStatBase@@PAV1@00AAV?$allocator@VPMSStatBase@@@0@U_Undefined_move_tag@0@U_Range_checked_iterator_tag@0@@Z 10b13d00 f i LinkManagerMsg.obj
 0001:00012d30       ??$_Checked_base@PAPAVGSyncObj@@@std@@YAPAPAVGSyncObj@@AAPAPAV1@U_Unchanged_checked_iterator_base_type_tag@0@@Z 10b13d30 f i GKernelObj.obj
 0001:00012d30       ??$_Checked_base@PAVPMSNSAP@@@std@@YAPAVPMSNSAP@@AAPAV1@U_Unchanged_checked_iterator_base_type_tag@0@@Z 10b13d30 f i LinkManager.obj
 0001:00012d30       ??$_Checked_base@PAVPMSStatBase@@@std@@YAPAVPMSStatBase@@AAPAV1@U_Unchanged_checked_iterator_base_type_tag@0@@Z 10b13d30 f i LinkManagerMsg.obj
 0001:00012d30       ??$_Checked_base@PAVPMSRegionInfo@@@std@@YAPAVPMSRegionInfo@@AAPAV1@U_Unchanged_checked_iterator_base_type_tag@0@@Z 10b13d30 f i LinkManagerMsg.obj
 0001:00012d30       ??$_Checked_base@PAJ@std@@YAPAJAAPAJU_Unchanged_checked_iterator_base_type_tag@0@@Z 10b13d30 f i LinkManagerMsg.obj
 0001:00012d30       ??$_Checked_base@PAPAX@std@@YAPAPAXAAPAPAXU_Unchanged_checked_iterator_base_type_tag@0@@Z 10b13d30 f i GKernelObj.obj
 0001:00012d40       ??$_Debug_range@PAVPMSNSAP@@@std@@YAXPAVPMSNSAP@@0PB_WI@Z 10b13d40 f i LinkManager.obj
 0001:00012d40       ??$_Debug_range@PAVPMSStatBase@@@std@@YAXPAVPMSStatBase@@0PB_WI@Z 10b13d40 f i LinkManagerMsg.obj
 0001:00012d40       ??$_Debug_range@PAPAX@std@@YAXPAPAX0PB_WI@Z 10b13d40 f i GKernelObj.obj
 0001:00012d40       ??$_Debug_range@PAPAVGSyncObj@@@std@@YAXPAPAVGSyncObj@@0PB_WI@Z 10b13d40 f i GKernelObj.obj
 0001:00012d40       ??$_Debug_range@PAVPMSRegionInfo@@@std@@YAXPAVPMSRegionInfo@@0PB_WI@Z 10b13d40 f i LinkManagerMsg.obj
 0001:00012d40       ??$_Debug_range@PAJ@std@@YAXPAJ0PB_WI@Z 10b13d40 f i LinkManagerMsg.obj
 0001:00012d90       ??$_Copy_backward_opt@PAVPMSStatBase@@PAV1@@std@@YAPAVPMSStatBase@@PAV1@00Urandom_access_iterator_tag@0@U_Nonscalar_ptr_iterator_tag@0@U_Range_checked_iterator_tag@0@@Z 10b13d90 f i LinkManagerMsg.obj
 0001:00012e10       ?push_back@?$list@VGBuf@@V?$allocator@VGBuf@@@std@@@std@@QAEXABVGBuf@@@Z 10b13e10 f i LinkManagerMsg.obj
 0001:00012ec0       ?end@?$list@VGBuf@@V?$allocator@VGBuf@@@std@@@std@@QAE?AV?$_Iterator@$00@12@XZ 10b13ec0 f i LinkManagerMsg.obj
 0001:00012f10       ??$_Uninit_move@PAVPMSRegionInfo@@PAV1@V?$allocator@VPMSRegionInfo@@@std@@U_Undefined_move_tag@3@@std@@YAPAVPMSRegionInfo@@PAV1@00AAV?$allocator@VPMSRegionInfo@@@0@U_Undefined_move_tag@0@U_Range_checked_iterator_tag@0@@Z 10b13f10 f i LinkManagerMsg.obj
 0001:00012f40       ??$_Copy_backward_opt@PAVPMSRegionInfo@@PAV1@@std@@YAPAVPMSRegionInfo@@PAV1@00Urandom_access_iterator_tag@0@U_Nonscalar_ptr_iterator_tag@0@U_Range_checked_iterator_tag@0@@Z 10b13f40 f i LinkManagerMsg.obj
 0001:00012fc0       ??$_Uninit_fill_n@PAPAXIPAXV?$allocator@PAX@std@@@std@@YAXPAPAXIABQAXAAV?$allocator@PAX@0@U_Scalar_ptr_iterator_tag@0@U_Range_checked_iterator_tag@0@@Z 10b13fc0 f i GKernelObj.obj
 0001:00012fc0       ??$_Uninit_fill_n@PAJIJV?$allocator@J@std@@@std@@YAXPAJIABJAAV?$allocator@J@0@U_Scalar_ptr_iterator_tag@0@U_Range_checked_iterator_tag@0@@Z 10b13fc0 f i LinkManagerMsg.obj
 0001:00012fc0       ??$_Uninit_fill_n@PAPAVGSyncObj@@IPAV1@V?$allocator@PAVGSyncObj@@@std@@@std@@YAXPAPAVGSyncObj@@IABQAV1@AAV?$allocator@PAVGSyncObj@@@0@U_Scalar_ptr_iterator_tag@0@U_Range_checked_iterator_tag@0@@Z 10b13fc0 f i GKernelObj.obj
 0001:00012fe0       ??$_Move_backward_opt@PAJPAJUrandom_access_iterator_tag@std@@U_Undefined_move_tag@2@@std@@YAPAJPAJ00Urandom_access_iterator_tag@0@U_Undefined_move_tag@0@U_Range_checked_iterator_tag@0@@Z 10b13fe0 f i LinkManagerMsg.obj
 0001:00012fe0       ??$_Move_backward_opt@PAPAXPAPAXUrandom_access_iterator_tag@std@@U_Undefined_move_tag@2@@std@@YAPAPAXPAPAX00Urandom_access_iterator_tag@0@U_Undefined_move_tag@0@U_Range_checked_iterator_tag@0@@Z 10b13fe0 f i GKernelObj.obj
 0001:00012fe0       ??$_Move_backward_opt@PAPAVGSyncObj@@PAPAV1@Urandom_access_iterator_tag@std@@U_Undefined_move_tag@3@@std@@YAPAPAVGSyncObj@@PAPAV1@00Urandom_access_iterator_tag@0@U_Undefined_move_tag@0@U_Range_checked_iterator_tag@0@@Z 10b13fe0 f i GKernelObj.obj
 0001:00013040       ??$_Construct@VPMSStatBase@@V1@@std@@YAXPAVPMSStatBase@@ABV1@@Z 10b14040 f i LinkManagerMsg.obj
 0001:000130e0       ??$_Construct@VPMSRegionInfo@@V1@@std@@YAXPAVPMSRegionInfo@@ABV1@@Z 10b140e0 f i LinkManagerMsg.obj
 0001:00013180       ??$_Insert@V?$_Vector_iterator@JV?$allocator@J@std@@@std@@@?$vector@JV?$allocator@J@std@@@std@@QAEXV?$_Vector_const_iterator@JV?$allocator@J@std@@@1@V?$_Vector_iterator@JV?$allocator@J@std@@@1@1Uforward_iterator_tag@1@@Z 10b14180 f i LinkManagerMsg.obj
 0001:000135c0       ??$_Insert@PAJ@?$vector@JV?$allocator@J@std@@@std@@QAEXV?$_Vector_const_iterator@JV?$allocator@J@std@@@1@PAJ1Uforward_iterator_tag@1@@Z 10b145c0 f i LinkManagerMsg.obj
 0001:00013920       ??$unchecked_uninitialized_copy@PAVPMSStatBase@@PAV1@V?$allocator@VPMSStatBase@@@std@@@stdext@@YAPAVPMSStatBase@@PAV1@00AAV?$allocator@VPMSStatBase@@@std@@@Z 10b14920 f i LinkManagerMsg.obj
 0001:00013990       ??$_Debug_range2@PAPAX@std@@YAXPAPAX0PB_WIUrandom_access_iterator_tag@0@@Z 10b14990 f i GKernelObj.obj
 0001:00013990       ??$_Debug_range2@PAVPMSRegionInfo@@@std@@YAXPAVPMSRegionInfo@@0PB_WIUrandom_access_iterator_tag@0@@Z 10b14990 f i LinkManagerMsg.obj
 0001:00013990       ??$_Debug_range2@PAJ@std@@YAXPAJ0PB_WIUrandom_access_iterator_tag@0@@Z 10b14990 f i LinkManagerMsg.obj
 0001:00013990       ??$_Debug_range2@PAVPMSNSAP@@@std@@YAXPAVPMSNSAP@@0PB_WIUrandom_access_iterator_tag@0@@Z 10b14990 f i LinkManager.obj
 0001:00013990       ??$_Debug_range2@PAVPMSStatBase@@@std@@YAXPAVPMSStatBase@@0PB_WIUrandom_access_iterator_tag@0@@Z 10b14990 f i LinkManagerMsg.obj
 0001:00013990       ??$_Debug_range2@PAPAVGSyncObj@@@std@@YAXPAPAVGSyncObj@@0PB_WIUrandom_access_iterator_tag@0@@Z 10b14990 f i GKernelObj.obj
 0001:000139f0       ??$_Copy_backward_opt@PAVPMSStatBase@@PAV1@Uforward_iterator_tag@std@@@std@@YAPAVPMSStatBase@@PAV1@00Uforward_iterator_tag@0@U_Nonscalar_ptr_iterator_tag@0@U_Range_checked_iterator_tag@0@@Z 10b149f0 f i LinkManagerMsg.obj
 0001:00013a50       ??$unchecked_uninitialized_copy@PAVPMSRegionInfo@@PAV1@V?$allocator@VPMSRegionInfo@@@std@@@stdext@@YAPAVPMSRegionInfo@@PAV1@00AAV?$allocator@VPMSRegionInfo@@@std@@@Z 10b14a50 f i LinkManagerMsg.obj
 0001:00013ac0       ??$_Copy_backward_opt@PAVPMSRegionInfo@@PAV1@Uforward_iterator_tag@std@@@std@@YAPAVPMSRegionInfo@@PAV1@00Uforward_iterator_tag@0@U_Nonscalar_ptr_iterator_tag@0@U_Range_checked_iterator_tag@0@@Z 10b14ac0 f i LinkManagerMsg.obj
 0001:00013b20       ??$unchecked_fill_n@PAPAXIPAX@stdext@@YAXPAPAXIABQAX@Z 10b14b20 f i GKernelObj.obj
 0001:00013b20       ??$unchecked_fill_n@PAPAVGSyncObj@@IPAV1@@stdext@@YAXPAPAVGSyncObj@@IABQAV1@@Z 10b14b20 f i GKernelObj.obj
 0001:00013b20       ??$unchecked_fill_n@PAJIJ@stdext@@YAXPAJIABJ@Z 10b14b20 f i LinkManagerMsg.obj
 0001:00013b70       ??$_Copy_backward_opt@PAJPAJUrandom_access_iterator_tag@std@@@std@@YAPAJPAJ00Urandom_access_iterator_tag@0@U_Scalar_ptr_iterator_tag@0@U_Range_checked_iterator_tag@0@@Z 10b14b70 f i LinkManagerMsg.obj
 0001:00013b70       ??$_Copy_backward_opt@PAPAXPAPAXUrandom_access_iterator_tag@std@@@std@@YAPAPAXPAPAX00Urandom_access_iterator_tag@0@U_Scalar_ptr_iterator_tag@0@U_Range_checked_iterator_tag@0@@Z 10b14b70 f i GKernelObj.obj
 0001:00013b70       ??$_Copy_backward_opt@PAPAVGSyncObj@@PAPAV1@Urandom_access_iterator_tag@std@@@std@@YAPAPAVGSyncObj@@PAPAV1@00Urandom_access_iterator_tag@0@U_Scalar_ptr_iterator_tag@0@U_Range_checked_iterator_tag@0@@Z 10b14b70 f i GKernelObj.obj
 0001:00013c10       ?_Reverse@?$vector@JV?$allocator@J@std@@@std@@QAEXPAJ0@Z 10b14c10 f i LinkManagerMsg.obj
 0001:00013c70       ??$_Debug_range@V?$_Vector_iterator@JV?$allocator@J@std@@@std@@@std@@YAXV?$_Vector_iterator@JV?$allocator@J@std@@@0@0PB_WI@Z 10b14c70 f i LinkManagerMsg.obj
 0001:00013d50       ??$_Distance@V?$_Vector_iterator@JV?$allocator@J@std@@@std@@I@std@@YAXV?$_Vector_iterator@JV?$allocator@J@std@@@0@0AAI@Z 10b14d50 f i LinkManagerMsg.obj
 0001:00013e20       ??$_Ucopy@V?$_Vector_iterator@JV?$allocator@J@std@@@std@@@?$vector@JV?$allocator@J@std@@@std@@IAEPAJV?$_Vector_iterator@JV?$allocator@J@std@@@1@0PAJ@Z 10b14e20 f i LinkManagerMsg.obj
 0001:00013f00       ??$_Distance@PAJI@std@@YAXPAJ0AAI@Z 10b14f00 f i LinkManagerMsg.obj
 0001:00013f50       ??$_Ucopy@PAJ@?$vector@JV?$allocator@J@std@@@std@@IAEPAJPAJ00@Z 10b14f50 f i LinkManagerMsg.obj
 0001:00013f90       ??$_Uninit_copy@PAVPMSStatBase@@PAV1@V?$allocator@VPMSStatBase@@@std@@@std@@YAPAVPMSStatBase@@PAV1@00AAV?$allocator@VPMSStatBase@@@0@U_Nonscalar_ptr_iterator_tag@0@U_Range_checked_iterator_tag@0@@Z 10b14f90 f i LinkManagerMsg.obj
 0001:00014090       ??$_Debug_pointer@VPMSNSAP@@@std@@YAXPAVPMSNSAP@@PB_WI@Z 10b15090 f i LinkManager.obj
 0001:00014090       ??$_Debug_pointer@D@std@@YAXPBDPB_WI@Z 10b15090 f i ErrorLog.obj
 0001:00014090       ??$_Debug_pointer@PAX@std@@YAXPAPAXPB_WI@Z 10b15090 f i GKernelObj.obj
 0001:00014090       ??$_Debug_pointer@PAVGSyncObj@@@std@@YAXPAPAVGSyncObj@@PB_WI@Z 10b15090 f i GKernelObj.obj
 0001:00014090       ??$_Debug_pointer@VPMSStatBase@@@std@@YAXPAVPMSStatBase@@PB_WI@Z 10b15090 f i LinkManagerMsg.obj
 0001:00014090       ??$_Debug_pointer@VPMSRegionInfo@@@std@@YAXPAVPMSRegionInfo@@PB_WI@Z 10b15090 f i LinkManagerMsg.obj
 0001:00014090       ??$_Debug_pointer@_W@std@@YAXPB_W0I@Z 10b15090 f i GAdlUtl.obj
 0001:00014090       ??$_Debug_pointer@J@std@@YAXPAJPB_WI@Z 10b15090 f i LinkManagerMsg.obj
 0001:000140c0       ??$_Uninit_copy@PAVPMSRegionInfo@@PAV1@V?$allocator@VPMSRegionInfo@@@std@@@std@@YAPAVPMSRegionInfo@@PAV1@00AAV?$allocator@VPMSRegionInfo@@@0@U_Nonscalar_ptr_iterator_tag@0@U_Range_checked_iterator_tag@0@@Z 10b150c0 f i LinkManagerMsg.obj
 0001:000141c0       ??$_Fill_n@PAJIJ@std@@YAXPAJIABJUrandom_access_iterator_tag@0@U_Range_checked_iterator_tag@0@@Z 10b151c0 f i LinkManagerMsg.obj
 0001:000141c0       ??$_Fill_n@PAPAXIPAX@std@@YAXPAPAXIABQAXUrandom_access_iterator_tag@0@U_Range_checked_iterator_tag@0@@Z 10b151c0 f i GKernelObj.obj
 0001:000141c0       ??$_Fill_n@PAPAVGSyncObj@@IPAV1@@std@@YAXPAPAVGSyncObj@@IABQAV1@Urandom_access_iterator_tag@0@U_Range_checked_iterator_tag@0@@Z 10b151c0 f i GKernelObj.obj
 0001:00014220       ??$_Swap_adl@J@std@@YAXAAJ0@Z 10b15220 f i LinkManagerMsg.obj
 0001:00014240       ??$_Debug_range2@V?$_Vector_iterator@JV?$allocator@J@std@@@std@@@std@@YAXV?$_Vector_iterator@JV?$allocator@J@std@@@0@0PB_WIUrandom_access_iterator_tag@0@@Z 10b15240 f i LinkManagerMsg.obj
 0001:00014300       ??$_Distance2@V?$_Vector_iterator@JV?$allocator@J@std@@@std@@I@std@@YAXV?$_Vector_iterator@JV?$allocator@J@std@@@0@0AAIUrandom_access_iterator_tag@0@@Z 10b15300 f i LinkManagerMsg.obj
 0001:000143c0       ??$unchecked_uninitialized_copy@V?$_Vector_iterator@JV?$allocator@J@std@@@std@@PAJV?$allocator@J@2@@stdext@@YAPAJV?$_Vector_iterator@JV?$allocator@J@std@@@std@@0PAJAAV?$allocator@J@2@@Z 10b153c0 f i LinkManagerMsg.obj
 0001:000144c0       ??$_Distance2@PAJI@std@@YAXPAJ0AAIUrandom_access_iterator_tag@0@@Z 10b154c0 f i LinkManagerMsg.obj
 0001:00014520       ?_Insert@?$list@VGBuf@@V?$allocator@VGBuf@@@std@@@std@@QAEXV?$_Const_iterator@$00@12@ABVGBuf@@@Z 10b15520 f i LinkManagerMsg.obj
 0001:00014620       ??$swap@J@std@@YAXAAJ0@Z   10b15620 f i LinkManagerMsg.obj
 0001:00014660       ??G?$_Vector_iterator@JV?$allocator@J@std@@@std@@QBEHABV?$_Vector_const_iterator@JV?$allocator@J@std@@@1@@Z 10b15660 f i LinkManagerMsg.obj
 0001:00014690       ??$_Uninit_copy@V?$_Vector_iterator@JV?$allocator@J@std@@@std@@PAJV?$allocator@J@2@@std@@YAPAJV?$_Vector_iterator@JV?$allocator@J@std@@@0@0PAJAAV?$allocator@J@0@U_Scalar_ptr_iterator_tag@0@U_Range_checked_iterator_tag@0@@Z 10b15690 f i LinkManagerMsg.obj
 0001:000147c0       ?_Buynode@?$list@VGBuf@@V?$allocator@VGBuf@@@std@@@std@@IAEPAU_Node@?$_List_nod@VGBuf@@V?$allocator@VGBuf@@@std@@@2@PAU342@0ABVGBuf@@@Z 10b157c0 f i LinkManagerMsg.obj
 0001:00014930       ?_Incsize@?$list@VGBuf@@V?$allocator@VGBuf@@@std@@@std@@IAEXI@Z 10b15930 f i LinkManagerMsg.obj
 0001:000149f0       ?max_size@?$list@VGBuf@@V?$allocator@VGBuf@@@std@@@std@@QBEIXZ 10b159f0 f i LinkManagerMsg.obj
 0001:00014a20       ?construct@?$allocator@VGBuf@@@std@@QAEXPAVGBuf@@ABV3@@Z 10b15a20 f i LinkManagerMsg.obj
 0001:00014a50       ??$_Construct@VGBuf@@V1@@std@@YAXPAVGBuf@@ABV1@@Z 10b15a50 f i LinkManagerMsg.obj
 0001:00014af0       ??0GBuf@@QAE@ABV0@@Z       10b15af0 f i LinkManagerMsg.obj
 0001:00014b30       _DllMain@12                10b15b30 f   PMSConn.obj
 0001:00014ba0       ?PMSInitConn@@YAKKQAPAD@Z  10b15ba0 f   PMSConn.obj
 0001:00014bc0       ?PMSRunConn@@YAKPAUIPMSObject@@@Z 10b15bc0 f   PMSConn.obj
 0001:00014be0       ?PMSStopConn@@YAXXZ        10b15be0 f   PMSConn.obj
 0001:00014c00       ?PMSSendWarningMsg@@YAHKPBD0KK@Z 10b15c00 f   PMSConn.obj
 0001:00014c30       ?PMSGetConfigFileName@@YAPBDXZ 10b15c30 f   PMSConn.obj
 0001:00014c40       ?PMSGetStatus@@YAKXZ       10b15c40 f   PMSConn.obj
 0001:00014c60       ?GetStatus@CLinkManager@@QAEKXZ 10b15c60 f i PMSConn.obj
 0001:00014c80       ?HostToNetwork@@YAGG@Z     10b15c80 f   GAdlUtl.obj
 0001:00014cf0       ?NetworkToHost@@YAGG@Z     10b15cf0 f   GAdlUtl.obj
 0001:00014d30       ?HostToNetwork@@YAFF@Z     10b15d30 f   GAdlUtl.obj
 0001:00014d50       ?NetworkToHost@@YAFF@Z     10b15d50 f   GAdlUtl.obj
 0001:00014d70       ?HostToNetwork@@YAII@Z     10b15d70 f   GAdlUtl.obj
 0001:00014e20       ?NetworkToHost@@YAII@Z     10b15e20 f   GAdlUtl.obj
 0001:00014ea0       ?HostToNetwork@@YAHH@Z     10b15ea0 f   GAdlUtl.obj
 0001:00014ec0       ?NetworkToHost@@YAHH@Z     10b15ec0 f   GAdlUtl.obj
 0001:00014ee0       ?HostToNetwork@@YAKK@Z     10b15ee0 f   GAdlUtl.obj
 0001:00014f90       ?NetworkToHost@@YAKK@Z     10b15f90 f   GAdlUtl.obj
 0001:00015010       ?HostToNetwork@@YAMM@Z     10b16010 f   GAdlUtl.obj
 0001:00015090       ?NetworkToHost@@YAMM@Z     10b16090 f   GAdlUtl.obj
 0001:00015110       ?HostToNetwork@@YANN@Z     10b16110 f   GAdlUtl.obj
 0001:000151b0       ?NetworkToHost@@YANN@Z     10b161b0 f   GAdlUtl.obj
 0001:00015250       ?HostToNetwork@@YAJJ@Z     10b16250 f   GAdlUtl.obj
 0001:00015270       ?NetworkToHost@@YAJJ@Z     10b16270 f   GAdlUtl.obj
 0001:00015290       ?HostToNetwork@@YA_J_J@Z   10b16290 f   GAdlUtl.obj
 0001:00015330       ?NetworkToHost@@YA_J_J@Z   10b16330 f   GAdlUtl.obj
 0001:000153d0       ?BLoad@@YAHAA_NPAUIXBuf@@@Z 10b163d0 f   GAdlUtl.obj
 0001:00015450       ?BStore@@YAHPAUIXBuf@@_N@Z 10b16450 f   GAdlUtl.obj
 0001:000154d0       ?MLoad@@YAHAA_NPAUIXBuf@@@Z 10b164d0 f   GAdlUtl.obj
 0001:000154f0       ?MStore@@YAHPAUIXBuf@@_N@Z 10b164f0 f   GAdlUtl.obj
 0001:00015510       ?BLoad@@YAHAADPAUIXBuf@@@Z 10b16510 f   GAdlUtl.obj
 0001:00015580       ?BStore@@YAHPAUIXBuf@@D@Z  10b16580 f   GAdlUtl.obj
 0001:000155b0       ?MLoad@@YAHAADPAUIXBuf@@@Z 10b165b0 f   GAdlUtl.obj
 0001:000155d0       ?MStore@@YAHPAUIXBuf@@D@Z  10b165d0 f   GAdlUtl.obj
 0001:000155f0       ?BLoad@@YAHAAFPAUIXBuf@@@Z 10b165f0 f   GAdlUtl.obj
 0001:00015660       ?BStore@@YAHPAUIXBuf@@F@Z  10b16660 f   GAdlUtl.obj
 0001:000156a0       ?MLoad@@YAHAAFPAUIXBuf@@@Z 10b166a0 f   GAdlUtl.obj
 0001:000156c0       ?MStore@@YAHPAUIXBuf@@F@Z  10b166c0 f   GAdlUtl.obj
 0001:000156e0       ?BLoad@@YAHAAGPAUIXBuf@@@Z 10b166e0 f   GAdlUtl.obj
 0001:00015750       ?BStore@@YAHPAUIXBuf@@G@Z  10b16750 f   GAdlUtl.obj
 0001:00015790       ?MLoad@@YAHAAGPAUIXBuf@@@Z 10b16790 f   GAdlUtl.obj
 0001:000157b0       ?MStore@@YAHPAUIXBuf@@G@Z  10b167b0 f   GAdlUtl.obj
 0001:000157d0       ?BLoad@@YAHAAKPAUIXBuf@@@Z 10b167d0 f   GAdlUtl.obj
 0001:00015840       ?BStore@@YAHPAUIXBuf@@K@Z  10b16840 f   GAdlUtl.obj
 0001:00015880       ?MLoad@@YAHAAKPAUIXBuf@@@Z 10b16880 f   GAdlUtl.obj
 0001:000158a0       ?MStore@@YAHPAUIXBuf@@K@Z  10b168a0 f   GAdlUtl.obj
 0001:000158c0       ?BLoad@@YAHAAIPAUIXBuf@@@Z 10b168c0 f   GAdlUtl.obj
 0001:00015930       ?BStore@@YAHPAUIXBuf@@I@Z  10b16930 f   GAdlUtl.obj
 0001:00015970       ?MLoad@@YAHAAIPAUIXBuf@@@Z 10b16970 f   GAdlUtl.obj
 0001:00015990       ?MStore@@YAHPAUIXBuf@@I@Z  10b16990 f   GAdlUtl.obj
 0001:000159b0       ?BLoad@@YAHAAJPAUIXBuf@@@Z 10b169b0 f   GAdlUtl.obj
 0001:00015a20       ?BStore@@YAHPAUIXBuf@@J@Z  10b16a20 f   GAdlUtl.obj
 0001:00015a60       ?MLoad@@YAHAAJPAUIXBuf@@@Z 10b16a60 f   GAdlUtl.obj
 0001:00015a80       ?MStore@@YAHPAUIXBuf@@J@Z  10b16a80 f   GAdlUtl.obj
 0001:00015aa0       ?BLoad@@YAHAAHPAUIXBuf@@@Z 10b16aa0 f   GAdlUtl.obj
 0001:00015b10       ?BStore@@YAHPAUIXBuf@@H@Z  10b16b10 f   GAdlUtl.obj
 0001:00015b50       ?MLoad@@YAHAAHPAUIXBuf@@@Z 10b16b50 f   GAdlUtl.obj
 0001:00015b70       ?MStore@@YAHPAUIXBuf@@H@Z  10b16b70 f   GAdlUtl.obj
 0001:00015b90       ?BLoad@@YAHAAMPAUIXBuf@@@Z 10b16b90 f   GAdlUtl.obj
 0001:00015c00       ?BStore@@YAHPAUIXBuf@@M@Z  10b16c00 f   GAdlUtl.obj
 0001:00015c40       ?MLoad@@YAHAAMPAUIXBuf@@@Z 10b16c40 f   GAdlUtl.obj
 0001:00015c60       ?MStore@@YAHPAUIXBuf@@M@Z  10b16c60 f   GAdlUtl.obj
 0001:00015c80       ?BLoad@@YAHAANPAUIXBuf@@@Z 10b16c80 f   GAdlUtl.obj
 0001:00015cf0       ?BStore@@YAHPAUIXBuf@@N@Z  10b16cf0 f   GAdlUtl.obj
 0001:00015d30       ?MLoad@@YAHAANPAUIXBuf@@@Z 10b16d30 f   GAdlUtl.obj
 0001:00015d50       ?MStore@@YAHPAUIXBuf@@N@Z  10b16d50 f   GAdlUtl.obj
 0001:00015d80       ?BLoad@@YAHAA_JPAUIXBuf@@@Z 10b16d80 f   GAdlUtl.obj
 0001:00015df0       ?BStore@@YAHPAUIXBuf@@_J@Z 10b16df0 f   GAdlUtl.obj
 0001:00015e30       ?MLoad@@YAHAA_JPAUIXBuf@@@Z 10b16e30 f   GAdlUtl.obj
 0001:00015e50       ?MStore@@YAHPAUIXBuf@@_J@Z 10b16e50 f   GAdlUtl.obj
 0001:00015e70       ?BLoad@@YAHAAVGBuf@@PAUIXBuf@@@Z 10b16e70 f   GAdlUtl.obj
 0001:00015f50       ?BStore@@YAHPAUIXBuf@@ABVGBuf@@@Z 10b16f50 f   GAdlUtl.obj
 0001:00015fc0       ?MLoad@@YAHAAVGBuf@@PAUIXBuf@@@Z 10b16fc0 f   GAdlUtl.obj
 0001:00015fe0       ?MStore@@YAHPAUIXBuf@@ABVGBuf@@@Z 10b16fe0 f   GAdlUtl.obj
 0001:00016000       ?BLoad@@YAHAAV?$basic_string@DU?$char_traits@D@std@@V?$allocator@D@2@@std@@PAUIXBuf@@@Z 10b17000 f   GAdlUtl.obj
 0001:00016140       ?BStore@@YAHPAUIXBuf@@ABV?$basic_string@DU?$char_traits@D@std@@V?$allocator@D@2@@std@@@Z 10b17140 f   GAdlUtl.obj
 0001:000161b0       ?MLoad@@YAHAAV?$basic_string@DU?$char_traits@D@std@@V?$allocator@D@2@@std@@PAUIXBuf@@@Z 10b171b0 f   GAdlUtl.obj
 0001:00016300       ?MStore@@YAHPAUIXBuf@@ABV?$basic_string@DU?$char_traits@D@std@@V?$allocator@D@2@@std@@@Z 10b17300 f   GAdlUtl.obj
 0001:00016370       ?BLoad@@YAHAAV?$basic_string@_WU?$char_traits@_W@std@@V?$allocator@_W@2@@std@@PAUIXBuf@@@Z 10b17370 f   GAdlUtl.obj
 0001:000164a0       ?BStore@@YAHPAUIXBuf@@ABV?$basic_string@_WU?$char_traits@_W@std@@V?$allocator@_W@2@@std@@@Z 10b174a0 f   GAdlUtl.obj
 0001:00016500       ?MLoad@@YAHAAV?$basic_string@_WU?$char_traits@_W@std@@V?$allocator@_W@2@@std@@PAUIXBuf@@@Z 10b17500 f   GAdlUtl.obj
 0001:00016520       ?MStore@@YAHPAUIXBuf@@ABV?$basic_string@_WU?$char_traits@_W@std@@V?$allocator@_W@2@@std@@@Z 10b17520 f   GAdlUtl.obj
 0001:00016540       ?BLoad@@YAHAAVastring@@PAUIXBuf@@@Z 10b17540 f   GAdlUtl.obj
 0001:00016680       ?BStore@@YAHPAUIXBuf@@ABVastring@@@Z 10b17680 f   GAdlUtl.obj
 0001:000166f0       ?MLoad@@YAHAAVastring@@PAUIXBuf@@@Z 10b176f0 f   GAdlUtl.obj
 0001:00016840       ?MStore@@YAHPAUIXBuf@@ABVastring@@@Z 10b17840 f   GAdlUtl.obj
 0001:000168b0       ?BLoad@@YAHAAUtagPOINT@@PAUIXBuf@@@Z 10b178b0 f   GAdlUtl.obj
 0001:00016900       ?BStore@@YAHPAUIXBuf@@ABUtagPOINT@@@Z 10b17900 f   GAdlUtl.obj
 0001:00016950       ?MLoad@@YAHAAUtagPOINT@@PAUIXBuf@@@Z 10b17950 f   GAdlUtl.obj
 0001:00016970       ?MStore@@YAHPAUIXBuf@@ABUtagPOINT@@@Z 10b17970 f   GAdlUtl.obj
 0001:00016990       ?BLoad@@YAHAAUtagRECT@@PAUIXBuf@@@Z 10b17990 f   GAdlUtl.obj
 0001:00016a10       ?BStore@@YAHPAUIXBuf@@ABUtagRECT@@@Z 10b17a10 f   GAdlUtl.obj
 0001:00016a90       ?MLoad@@YAHAAUtagRECT@@PAUIXBuf@@@Z 10b17a90 f   GAdlUtl.obj
 0001:00016ab0       ?MStore@@YAHPAUIXBuf@@ABUtagRECT@@@Z 10b17ab0 f   GAdlUtl.obj
 0001:00016ad0       ?BLoad@@YAHAAUtagVARIANT@@PAUIXBuf@@@Z 10b17ad0 f   GAdlUtl.obj
 0001:00016cd0       ?BStore@@YAHPAUIXBuf@@ABUtagVARIANT@@@Z 10b17cd0 f   GAdlUtl.obj
 0001:00016e50       ?BLoad@@YAHAAPA_WPAUIXBuf@@@Z 10b17e50 f   GAdlUtl.obj
 0001:00016fd0       ?BStore@@YAHPAUIXBuf@@ABQA_W@Z 10b17fd0 f   GAdlUtl.obj
 0001:000170b0       ?VCopy@@YAHPAUIXBuf@@ABUtagVARIANT@@@Z 10b180b0 f   GAdlUtl.obj
 0001:000171f0       ?VCopy@@YAHAAUtagVARIANT@@PAUIXBuf@@@Z 10b181f0 f   GAdlUtl.obj
 0001:000173a0       ?BSTRCopy@@YAHPAUIXBuf@@PA_W@Z 10b183a0 f   GAdlUtl.obj
 0001:00017400       ?BSTRCopy@@YAHPAPA_WPAUIXBuf@@@Z 10b18400 f   GAdlUtl.obj
 0001:000174d0       ??0?$basic_string@DU?$char_traits@D@std@@V?$allocator@D@2@@std@@QAE@PBDI@Z 10b184d0 f i GAdlUtl.obj
 0001:00017570       ?empty@?$basic_string@DU?$char_traits@D@std@@V?$allocator@D@2@@std@@QBE_NXZ 10b18570 f i GAdlUtl.obj
 0001:00017570       ?empty@?$basic_string@_WU?$char_traits@_W@std@@V?$allocator@_W@2@@std@@QBE_NXZ 10b18570 f i GSocket.obj
 0001:00017590       ??0?$basic_string@_WU?$char_traits@_W@std@@V?$allocator@_W@2@@std@@QAE@PB_WI@Z 10b18590 f i GAdlUtl.obj
 0001:00017630       ??0astring@@QAE@PBDI@Z     10b18630 f i GAdlUtl.obj
 0001:00017680       ??1astring@@QAE@XZ         10b18680 f i GAdlUtl.obj
 0001:000176b0       ?assign@astring@@QAEAAV1@PBDI@Z 10b186b0 f i GAdlUtl.obj
 0001:00017700       ??4astring@@QAEAAV0@ABV0@@Z 10b18700 f i GAdlUtl.obj
 0001:00017730       ?assign@astring@@QAEAAV1@PBD@Z 10b18730 f i GAdlUtl.obj
 0001:00017780       ?empty@astring@@QBE_NXZ    10b18780 f i GAdlUtl.obj
 0001:000177b0       ?length@astring@@QBEIXZ    10b187b0 f i GAdlUtl.obj
 0001:000177b0       ?size@astring@@QBEIXZ      10b187b0 f i GAdlUtl.obj
 0001:000177e0       ?erase@astring@@QAEXXZ     10b187e0 f i GAdlUtl.obj
 0001:00017800       ?resize@astring@@QAEXI@Z   10b18800 f i GAdlUtl.obj
 0001:00017880       ?capacity@astring@@QBEIXZ  10b18880 f i GAdlUtl.obj
 0001:000178b0       ?_alloc@astring@@KAPADI@Z  10b188b0 f i GAdlUtl.obj
 0001:00017920       ?_free@astring@@KAXPAD@Z   10b18920 f i GAdlUtl.obj
 0001:00017940       ?_capacity@astring@@KAIPBD@Z 10b18940 f i GAdlUtl.obj
 0001:00017950       ?_copy@astring@@KAXPADPBDI@Z 10b18950 f i GAdlUtl.obj
 0001:00017980       ?_length@astring@@KAIPBD@Z 10b18980 f i GAdlUtl.obj
 0001:000179c0       ?GetData@GBuf@@QBEPBEXZ    10b189c0 f i GAdlUtl.obj
 0001:00017a00       ?GetLength@GBuf@@QBEKXZ    10b18a00 f i GAdlUtl.obj
 0001:00017a40       ?AddRight@GBuf@@QAEXPAXK@Z 10b18a40 f i GAdlUtl.obj
 0001:00017a90       ??1?$basic_string@_WU?$char_traits@_W@std@@V?$allocator@_W@2@@std@@QAE@XZ 10b18a90 f i GAdlUtl.obj
 0001:00017b00       ??4?$basic_string@_WU?$char_traits@_W@std@@V?$allocator@_W@2@@std@@QAEAAV01@ABV01@@Z 10b18b00 f i GAdlUtl.obj
 0001:00017b30       ?assign@?$basic_string@_WU?$char_traits@_W@std@@V?$allocator@_W@2@@std@@QAEAAV12@PB_WI@Z 10b18b30 f i GAdlUtl.obj
 0001:00017bf0       ?c_str@?$basic_string@_WU?$char_traits@_W@std@@V?$allocator@_W@2@@std@@QBEPB_WXZ 10b18bf0 f i GAdlUtl.obj
 0001:00017c20       ?assign@?$basic_string@_WU?$char_traits@_W@std@@V?$allocator@_W@2@@std@@QAEAAV12@ABV12@@Z 10b18c20 f i GAdlUtl.obj
 0001:00017c60       ?assign@?$basic_string@_WU?$char_traits@_W@std@@V?$allocator@_W@2@@std@@QAEAAV12@ABV12@II@Z 10b18c60 f i GAdlUtl.obj
 0001:00017d40       ?_Eos@?$basic_string@_WU?$char_traits@_W@std@@V?$allocator@_W@2@@std@@IAEXI@Z 10b18d40 f i GAdlUtl.obj
 0001:00017da0       ?assign@?$char_traits@_W@std@@SAXAA_WAB_W@Z 10b18da0 f i GAdlUtl.obj
 0001:00017dc0       ?_Grow@?$basic_string@_WU?$char_traits@_W@std@@V?$allocator@_W@2@@std@@IAE_NI_N@Z 10b18dc0 f i GAdlUtl.obj
 0001:00017e70       ?_Inside@?$basic_string@_WU?$char_traits@_W@std@@V?$allocator@_W@2@@std@@IAE_NPB_W@Z 10b18e70 f i GAdlUtl.obj
 0001:00017ec0       ?_Tidy@?$basic_string@_WU?$char_traits@_W@std@@V?$allocator@_W@2@@std@@IAEX_NI@Z 10b18ec0 f i GAdlUtl.obj
 0001:00017f60       ?_Myptr@?$basic_string@_WU?$char_traits@_W@std@@V?$allocator@_W@2@@std@@IAEPA_WXZ 10b18f60 f i GAdlUtl.obj
 0001:00017f60       ?_Myptr@?$basic_string@_WU?$char_traits@_W@std@@V?$allocator@_W@2@@std@@IBEPB_WXZ 10b18f60 f i GAdlUtl.obj
 0001:00017fa0       ?erase@?$basic_string@_WU?$char_traits@_W@std@@V?$allocator@_W@2@@std@@QAEAAV12@II@Z 10b18fa0 f i GAdlUtl.obj
 0001:00018060       ?max_size@?$basic_string@_WU?$char_traits@_W@std@@V?$allocator@_W@2@@std@@QBEIXZ 10b19060 f i GAdlUtl.obj
 0001:000180c0       ?_Copy@?$basic_string@_WU?$char_traits@_W@std@@V?$allocator@_W@2@@std@@IAEXII@Z 10b190c0 f i GAdlUtl.obj
 0001:00018270       ?allocate@?$allocator@_W@std@@QAEPA_WI@Z 10b19270 f i GAdlUtl.obj
 0001:000182a0       ?max_size@?$allocator@_W@std@@QBEIXZ 10b192a0 f i GAdlUtl.obj
 0001:000182f0       ??$copy_s@U?$char_traits@_W@std@@@_Traits_helper@std@@YAPA_WPA_WIPB_WI@Z 10b192f0 f i GAdlUtl.obj
 0001:00018330       ??$move_s@U?$char_traits@_W@std@@@_Traits_helper@std@@YAPA_WPA_WIPB_WI@Z 10b19330 f i GAdlUtl.obj
 0001:00018370       ??$_Allocate@_W@std@@YAPA_WIPA_W@Z 10b19370 f i GAdlUtl.obj
 0001:000183e0       ??$copy_s@U?$char_traits@_W@std@@@_Traits_helper@std@@YAPA_WPA_WIPB_WIU_Secure_char_traits_tag@1@@Z 10b193e0 f i GAdlUtl.obj
 0001:00018410       ?_Copy_s@?$char_traits@_W@std@@SAPA_WPA_WIPB_WI@Z 10b19410 f i GAdlUtl.obj
 0001:00018440       _wmemcpy_s                 10b19440 f i GAdlUtl.obj
 0001:00018470       ??$move_s@U?$char_traits@_W@std@@@_Traits_helper@std@@YAPA_WPA_WIPB_WIU_Secure_char_traits_tag@1@@Z 10b19470 f i GAdlUtl.obj
 0001:000184a0       ?_Move_s@?$char_traits@_W@std@@SAPA_WPA_WIPB_WI@Z 10b194a0 f i GAdlUtl.obj
 0001:000184d0       _wmemmove_s                10b194d0 f i GAdlUtl.obj
 0001:00018500       ?SignalAndWait@@YAKPAVGSyncObj@@0KH@Z 10b19500 f   GKernelObj.obj
 0001:00018570       ??0GKernelObj@@QAE@XZ      10b19570 f   GKernelObj.obj
 0001:000185b0       ??1GKernelObj@@UAE@XZ      10b195b0 f   GKernelObj.obj
 0001:00018640       ?IsValid@GKernelObj@@QBEHXZ 10b19640 f   GKernelObj.obj
 0001:000186b0       ?GetHandle@GKernelObj@@UBEPAXXZ 10b196b0 f   GKernelObj.obj
 0001:000186d0       ??BGKernelObj@@QBEPAXXZ    10b196d0 f   GKernelObj.obj
 0001:000186f0       ?Detach@GKernelObj@@QAEPAXXZ 10b196f0 f   GKernelObj.obj
 0001:00018730       ?Wait@GKernelObj@@QAEKK@Z  10b19730 f   GKernelObj.obj
 0001:00018770       ?WaitEx@GKernelObj@@QAEKHK@Z 10b19770 f   GKernelObj.obj
 0001:000187b0       ?Wait2@GKernelObj@@QAEKPAXHK@Z 10b197b0 f   GKernelObj.obj
 0001:00018860       ?WaitEx2@GKernelObj@@QAEKHPAXHK@Z 10b19860 f   GKernelObj.obj
 0001:00018910       ?Lock@GCriticalSection@@QAEHK@Z 10b19910 f   GKernelObj.obj
 0001:00018950       ?Unlock@GCriticalSection@@QAEHXZ 10b19950 f   GKernelObj.obj
 0001:00018980       ?Enter@GCriticalSection@@QAEXXZ 10b19980 f   GKernelObj.obj
 0001:000189b0       ?Leave@GCriticalSection@@QAEXXZ 10b199b0 f   GKernelObj.obj
 0001:000189e0       ?TryEnter@GCriticalSection@@QAEHXZ 10b199e0 f   GKernelObj.obj
 0001:00018a10       ??0GSyncObj@@QAE@XZ        10b19a10 f   GKernelObj.obj
 0001:00018a40       ??1GSyncObj@@UAE@XZ        10b19a40 f   GKernelObj.obj
 0001:00018a70       ?Lock@GSyncObj@@UAEHK@Z    10b19a70 f   GKernelObj.obj
 0001:00018b10       ??0GSemaphore@@QAE@XZ      10b19b10 f   GKernelObj.obj
 0001:00018b40       ??0GSemaphore@@QAE@JJPBDPAU_SECURITY_ATTRIBUTES@@@Z 10b19b40 f   GKernelObj.obj
 0001:00018c00       ??0GSemaphore@@QAE@PBDKH@Z 10b19c00 f   GKernelObj.obj
 0001:00018cc0       ?Create@GSemaphore@@QAEHJJPBDPAU_SECURITY_ATTRIBUTES@@@Z 10b19cc0 f   GKernelObj.obj
 0001:00018d60       ?Open@GSemaphore@@QAEHPBDKH@Z 10b19d60 f   GKernelObj.obj
 0001:00018e00       ?Unlock@GSemaphore@@UAEHXZ 10b19e00 f   GKernelObj.obj
 0001:00018e40       ?Release@GSemaphore@@UAEHJPAJ@Z 10b19e40 f   GKernelObj.obj
 0001:00018ec0       ??0GMutex@@QAE@XZ          10b19ec0 f   GKernelObj.obj
 0001:00018ef0       ??0GMutex@@QAE@HPBDPAU_SECURITY_ATTRIBUTES@@@Z 10b19ef0 f   GKernelObj.obj
 0001:00018fb0       ??0GMutex@@QAE@PBDKH@Z     10b19fb0 f   GKernelObj.obj
 0001:00019070       ?Create@GMutex@@QAEHHPBDPAU_SECURITY_ATTRIBUTES@@@Z 10b1a070 f   GKernelObj.obj
 0001:00019110       ?Open@GMutex@@QAEHPBDKH@Z  10b1a110 f   GKernelObj.obj
 0001:000191b0       ?Unlock@GMutex@@UAEHXZ     10b1a1b0 f   GKernelObj.obj
 0001:000191e0       ?Release@GMutex@@QAEHXZ    10b1a1e0 f   GKernelObj.obj
 0001:00019250       ??0GEvent@@QAE@XZ          10b1a250 f   GKernelObj.obj
 0001:00019280       ??0GEvent@@QAE@HHPBDPAU_SECURITY_ATTRIBUTES@@@Z 10b1a280 f   GKernelObj.obj
 0001:00019340       ??0GEvent@@QAE@PBDKH@Z     10b1a340 f   GKernelObj.obj
 0001:00019420       ?Create@GEvent@@QAEHHHPBDPAU_SECURITY_ATTRIBUTES@@@Z 10b1a420 f   GKernelObj.obj
 0001:000194c0       ?Open@GEvent@@QAEHPBDKH@Z  10b1a4c0 f   GKernelObj.obj
 0001:00019580       ?Unlock@GEvent@@UAEHXZ     10b1a580 f   GKernelObj.obj
 0001:000195a0       ?SetEvent@GEvent@@QAEHXZ   10b1a5a0 f   GKernelObj.obj
 0001:00019610       ?PulseEvent@GEvent@@QAEHXZ 10b1a610 f   GKernelObj.obj
 0001:00019680       ?ResetEvent@GEvent@@QAEHXZ 10b1a680 f   GKernelObj.obj
 0001:000196f0       ??0GSingleLock@@QAE@PAVGSyncObj@@H@Z 10b1a6f0 f   GKernelObj.obj
 0001:00019780       ??1GSingleLock@@QAE@XZ     10b1a780 f   GKernelObj.obj
 0001:000197b0       ?Lock@GSingleLock@@QAEHK@Z 10b1a7b0 f   GKernelObj.obj
 0001:00019850       ?Unlock@GSingleLock@@QAEHXZ 10b1a850 f   GKernelObj.obj
 0001:000198d0       ??0GMultiLock@@QAE@XZ      10b1a8d0 f   GKernelObj.obj
 0001:00019900       ??0GMultiLock@@QAE@PAPAVGSyncObj@@KH@Z 10b1a900 f   GKernelObj.obj
 0001:00019a00       ??1GMultiLock@@QAE@XZ      10b1aa00 f   GKernelObj.obj
 0001:00019a70       ?Rearrange@GMultiLock@@QAEXXZ 10b1aa70 f   GKernelObj.obj
 0001:00019b40       ?Add@GMultiLock@@QAEHPAVGSyncObj@@@Z 10b1ab40 f   GKernelObj.obj
 0001:00019bc0       ?Remove@GMultiLock@@QAEHPAVGSyncObj@@@Z 10b1abc0 f   GKernelObj.obj
 0001:00019c40       ?GetCount@GMultiLock@@QBEKXZ 10b1ac40 f   GKernelObj.obj
 0001:00019c70       ?GetSyncObject@GMultiLock@@QAEPAVGSyncObj@@K@Z 10b1ac70 f   GKernelObj.obj
 0001:00019cd0       ?IsLocked@GMultiLock@@QAEHK@Z 10b1acd0 f   GKernelObj.obj
 0001:00019d30       ?Lock@GMultiLock@@QAEKKKKH@Z 10b1ad30 f   GKernelObj.obj
 0001:00019e60       ?Unlock@GMultiLock@@QAEHXZ 10b1ae60 f   GKernelObj.obj
 0001:00019f10       ??0GSelector@@QAE@XZ       10b1af10 f   GKernelObj.obj
 0001:00019f50       ??0GSelector@@QAE@PAPAVGSyncObj@@KH@Z 10b1af50 f   GKernelObj.obj
 0001:0001a060       ?Rearrange@GSelector@@QAEXXZ 10b1b060 f   GKernelObj.obj
 0001:0001a110       ?Add@GSelector@@QAEXPAVGSyncObj@@@Z 10b1b110 f   GKernelObj.obj
 0001:0001a1a0       ?Remove@GSelector@@QAEXPAVGSyncObj@@@Z 10b1b1a0 f   GKernelObj.obj
 0001:0001a230       ?GetCount@GSelector@@QBEKXZ 10b1b230 f   GKernelObj.obj
 0001:0001a260       ?GetSyncObject@GSelector@@QAEPAVGSyncObj@@K@Z 10b1b260 f   GKernelObj.obj
 0001:0001a2c0       ?Lock@GSelector@@UAEKKH@Z  10b1b2c0 f   GKernelObj.obj
 0001:0001a320       ?Add@GWaitCollection@@QAEHPAX@Z 10b1b320 f   GKernelObj.obj
 0001:0001a490       ?Remove@GWaitCollection@@QAEHPAX@Z 10b1b490 f   GKernelObj.obj
 0001:0001a600       ?GetHandleArray@GWaitCollection@@QBEPBQAXXZ 10b1b600 f   GKernelObj.obj
 0001:0001a6a0       ?GetSize@GWaitCollection@@QBEIXZ 10b1b6a0 f   GKernelObj.obj
 0001:0001a6d0       ?GetHandle@GWaitCollection@@QBEPAXI@Z 10b1b6d0 f   GKernelObj.obj
 0001:0001a710       ?Wait@GWaitCollection@@QAEKHK@Z 10b1b710 f   GKernelObj.obj
 0001:0001a760       ?WaitEx@GWaitCollection@@QAEKHHK@Z 10b1b760 f   GKernelObj.obj
 0001:0001a7b0       ?MsgWait@GWaitCollection@@QAEKHKK@Z 10b1b7b0 f   GKernelObj.obj
 0001:0001a800       ?MsgWaitEx@GWaitCollection@@QAEKKKK@Z 10b1b800 f   GKernelObj.obj
 0001:0001a850       ??_GGKernelObj@@UAEPAXI@Z  10b1b850 f i GKernelObj.obj
 0001:0001a850       ??_EGKernelObj@@UAEPAXI@Z  10b1b850 f i GKernelObj.obj
 0001:0001a890       ??0GWaitableObj@@QAE@XZ    10b1b890 f i GKernelObj.obj
 0001:0001a8b0       ??_GGSyncObj@@UAEPAXI@Z    10b1b8b0 f i GKernelObj.obj
 0001:0001a8b0       ??_EGSyncObj@@UAEPAXI@Z    10b1b8b0 f i GKernelObj.obj
 0001:0001a8f0       ??_GGEvent@@UAEPAXI@Z      10b1b8f0 f i GKernelObj.obj
 0001:0001a8f0       ??_EGEvent@@UAEPAXI@Z      10b1b8f0 f i GKernelObj.obj
 0001:0001a8f0       ??_EGSemaphore@@UAEPAXI@Z  10b1b8f0 f i GKernelObj.obj
 0001:0001a8f0       ??_EGMutex@@UAEPAXI@Z      10b1b8f0 f i GKernelObj.obj
 0001:0001a8f0       ??_GGSemaphore@@UAEPAXI@Z  10b1b8f0 f i GKernelObj.obj
 0001:0001a8f0       ??_GGMutex@@UAEPAXI@Z      10b1b8f0 f i GKernelObj.obj
 0001:0001a930       ??1GSemaphore@@UAE@XZ      10b1b930 f i GKernelObj.obj
 0001:0001a930       ??1GMutex@@UAE@XZ          10b1b930 f i GKernelObj.obj
 0001:0001a930       ??1GEvent@@UAE@XZ          10b1b930 f i GKernelObj.obj
 0001:0001a960       ??0?$_Bidit@VGBuf@@HPBV1@ABV1@@std@@QAE@ABU01@@Z 10b1b960 f i LinkManager.obj
 0001:0001a960       ??0?$_Ranit@JHPBJABJ@std@@QAE@ABU01@@Z 10b1b960 f i LinkManager.obj
 0001:0001a960       ??0?$_Ranit@VPMSStatBase@@HPBV1@ABV1@@std@@QAE@ABU01@@Z 10b1b960 f i LinkManager.obj
 0001:0001a960       ??0?$_Ranit@VPMSRegionInfo@@HPBV1@ABV1@@std@@QAE@ABU01@@Z 10b1b960 f i LinkManager.obj
 0001:0001a960       ??0?$_Ranit@PAXHPBQAXABQAX@std@@QAE@ABU01@@Z 10b1b960 f i GKernelObj.obj
 0001:0001a960       ??0?$_Ranit@PAVGSyncObj@@HPBQAV1@ABQAV1@@std@@QAE@ABU01@@Z 10b1b960 f i GKernelObj.obj
 0001:0001a960       ??0?$_Ranit@VPMSNSAP@@HPBV1@ABV1@@std@@QAE@ABU01@@Z 10b1b960 f i LinkManager.obj
 0001:0001a990       ??0?$pvector@VGSyncObj@@@@QAE@XZ 10b1b990 f i GKernelObj.obj
 0001:0001a9d0       ?isexist@?$pvector@VGSyncObj@@@@QBE_NPBVGSyncObj@@@Z 10b1b9d0 f i GKernelObj.obj
 0001:0001aa90       ?remove@?$pvector@VGSyncObj@@@@QAEXPBVGSyncObj@@@Z 10b1ba90 f i GKernelObj.obj
 0001:0001abe0       ??A?$vector@PAVGSyncObj@@V?$allocator@PAVGSyncObj@@@std@@@std@@QAEAAPAVGSyncObj@@I@Z 10b1bbe0 f i GKernelObj.obj
 0001:0001acd0       ?push_back@?$vector@PAVGSyncObj@@V?$allocator@PAVGSyncObj@@@std@@@std@@QAEXABQAVGSyncObj@@@Z 10b1bcd0 f i GKernelObj.obj
 0001:0001add0       ?begin@?$vector@PAXV?$allocator@PAX@std@@@std@@QAE?AV?$_Vector_iterator@PAXV?$allocator@PAX@std@@@2@XZ 10b1bdd0 f i GKernelObj.obj
 0001:0001ae20       ?begin@?$vector@PAXV?$allocator@PAX@std@@@std@@QBE?AV?$_Vector_const_iterator@PAXV?$allocator@PAX@std@@@2@XZ 10b1be20 f i GKernelObj.obj
 0001:0001ae70       ?end@?$vector@PAXV?$allocator@PAX@std@@@std@@QAE?AV?$_Vector_iterator@PAXV?$allocator@PAX@std@@@2@XZ 10b1be70 f i GKernelObj.obj
 0001:0001aec0       ??A?$vector@PAXV?$allocator@PAX@std@@@std@@QBEABQAXI@Z 10b1bec0 f i GKernelObj.obj
 0001:0001afb0       ?push_back@?$vector@PAXV?$allocator@PAX@std@@@std@@QAEXABQAX@Z 10b1bfb0 f i GKernelObj.obj
 0001:0001b0b0       ?erase@?$vector@PAXV?$allocator@PAX@std@@@std@@QAE?AV?$_Vector_iterator@PAXV?$allocator@PAX@std@@@2@V?$_Vector_const_iterator@PAXV?$allocator@PAX@std@@@2@@Z 10b1c0b0 f i GKernelObj.obj
 0001:0001b1d0       ??D?$_Vector_const_iterator@PAXV?$allocator@PAX@std@@@std@@QBEABQAXXZ 10b1c1d0 f i GKernelObj.obj
 0001:0001b270       ??8?$_Vector_const_iterator@PAXV?$allocator@PAX@std@@@std@@QBE_NABV01@@Z 10b1c270 f i GKernelObj.obj
 0001:0001b2b0       ??9?$_Vector_const_iterator@PAXV?$allocator@PAX@std@@@std@@QBE_NABV01@@Z 10b1c2b0 f i GKernelObj.obj
 0001:0001b2f0       ??4?$_Vector_iterator@PAVGSyncObj@@V?$allocator@PAVGSyncObj@@@std@@@std@@QAEAAV01@ABV01@@Z 10b1c2f0 f i GKernelObj.obj
 0001:0001b2f0       ??4?$_Vector_iterator@PAXV?$allocator@PAX@std@@@std@@QAEAAV01@ABV01@@Z 10b1c2f0 f i GKernelObj.obj
 0001:0001b320       ??4?$_Vector_const_iterator@JV?$allocator@J@std@@@std@@QAEAAV01@ABV01@@Z 10b1c320 f i LinkManager.obj
 0001:0001b320       ??4?$_Vector_const_iterator@VPMSRegionInfo@@V?$allocator@VPMSRegionInfo@@@std@@@std@@QAEAAV01@ABV01@@Z 10b1c320 f i LinkManager.obj
 0001:0001b320       ??4?$_Vector_const_iterator@PAXV?$allocator@PAX@std@@@std@@QAEAAV01@ABV01@@Z 10b1c320 f i GKernelObj.obj
 0001:0001b320       ??4?$_Vector_const_iterator@VPMSStatBase@@V?$allocator@VPMSStatBase@@@std@@@std@@QAEAAV01@ABV01@@Z 10b1c320 f i LinkManager.obj
 0001:0001b320       ??4?$_Vector_const_iterator@VPMSNSAP@@V?$allocator@VPMSNSAP@@@std@@@std@@QAEAAV01@ABV01@@Z 10b1c320 f i LinkManager.obj
 0001:0001b320       ??4?$_Vector_const_iterator@PAVGSyncObj@@V?$allocator@PAVGSyncObj@@@std@@@std@@QAEAAV01@ABV01@@Z 10b1c320 f i GKernelObj.obj
 0001:0001b360       ??4?$_Iterator_with_base@Urandom_access_iterator_tag@std@@PAVGSyncObj@@HPBQAV3@ABQAV3@V_Iterator_base@2@@std@@QAEAAU01@ABU01@@Z 10b1c360 f i GKernelObj.obj
 0001:0001b360       ??4?$_Iterator_with_base@Urandom_access_iterator_tag@std@@VPMSRegionInfo@@HPBV3@ABV3@V_Iterator_base@2@@std@@QAEAAU01@ABU01@@Z 10b1c360 f i LinkManager.obj
 0001:0001b360       ??4?$_Iterator_with_base@Urandom_access_iterator_tag@std@@PAXHPBQAXABQAXV_Iterator_base@2@@std@@QAEAAU01@ABU01@@Z 10b1c360 f i GKernelObj.obj
 0001:0001b360       ??4?$_Iterator_with_base@Urandom_access_iterator_tag@std@@VPMSStatBase@@HPBV3@ABV3@V_Iterator_base@2@@std@@QAEAAU01@ABU01@@Z 10b1c360 f i LinkManager.obj
 0001:0001b360       ??4?$_Iterator_with_base@Urandom_access_iterator_tag@std@@JHPBJABJV_Iterator_base@2@@std@@QAEAAU01@ABU01@@Z 10b1c360 f i LinkManager.obj
 0001:0001b360       ??4?$_Iterator_with_base@Urandom_access_iterator_tag@std@@VPMSNSAP@@HPBV3@ABV3@V_Iterator_base@2@@std@@QAEAAU01@ABU01@@Z 10b1c360 f i LinkManager.obj
 0001:0001b390       ?find@?$pvector@VGSyncObj@@@@QAE?AV?$_Vector_iterator@PAVGSyncObj@@V?$allocator@PAVGSyncObj@@@std@@@std@@PBVGSyncObj@@@Z 10b1c390 f i GKernelObj.obj
 0001:0001b460       ?find@?$pvector@VGSyncObj@@@@QBE?AV?$_Vector_const_iterator@PAVGSyncObj@@V?$allocator@PAVGSyncObj@@@std@@@std@@PBVGSyncObj@@@Z 10b1c460 f i GKernelObj.obj
 0001:0001b530       ?capacity@?$vector@PAXV?$allocator@PAX@std@@@std@@QBEIXZ 10b1c530 f i GKernelObj.obj
 0001:0001b530       ?capacity@?$vector@JV?$allocator@J@std@@@std@@QBEIXZ 10b1c530 f i LinkManagerMsg.obj
 0001:0001b530       ?capacity@?$vector@PAVGSyncObj@@V?$allocator@PAVGSyncObj@@@std@@@std@@QBEIXZ 10b1c530 f i GKernelObj.obj
 0001:0001b580       ?end@?$vector@PAVGSyncObj@@V?$allocator@PAVGSyncObj@@@std@@@std@@QBE?AV?$_Vector_const_iterator@PAVGSyncObj@@V?$allocator@PAVGSyncObj@@@std@@@2@XZ 10b1c580 f i GKernelObj.obj
 0001:0001b5d0       ?insert@?$vector@PAVGSyncObj@@V?$allocator@PAVGSyncObj@@@std@@@std@@QAE?AV?$_Vector_iterator@PAVGSyncObj@@V?$allocator@PAVGSyncObj@@@std@@@2@V?$_Vector_const_iterator@PAVGSyncObj@@V?$allocator@PAVGSyncObj@@@std@@@2@ABQAVGSyncObj@@@Z 10b1c5d0 f i GKernelObj.obj
 0001:0001b710       ?erase@?$vector@PAVGSyncObj@@V?$allocator@PAVGSyncObj@@@std@@@std@@QAE?AV?$_Vector_iterator@PAVGSyncObj@@V?$allocator@PAVGSyncObj@@@std@@@2@V?$_Vector_const_iterator@PAVGSyncObj@@V?$allocator@PAVGSyncObj@@@std@@@2@@Z 10b1c710 f i GKernelObj.obj
 0001:0001b830       ?insert@?$vector@PAXV?$allocator@PAX@std@@@std@@QAE?AV?$_Vector_iterator@PAXV?$allocator@PAX@std@@@2@V?$_Vector_const_iterator@PAXV?$allocator@PAX@std@@@2@ABQAX@Z 10b1c830 f i GKernelObj.obj
 0001:0001b970       ?_Destroy@?$vector@PAXV?$allocator@PAX@std@@@std@@IAEXPAPAX0@Z 10b1c970 f i GKernelObj.obj
 0001:0001b970       ?_Destroy@?$vector@PAVGSyncObj@@V?$allocator@PAVGSyncObj@@@std@@@std@@IAEXPAPAVGSyncObj@@0@Z 10b1c970 f i GKernelObj.obj
 0001:0001b970       ?_Destroy@?$vector@JV?$allocator@J@std@@@std@@IAEXPAJ0@Z 10b1c970 f i LinkManager.obj
 0001:0001b9b0       ??0?$_Vector_iterator@PAVGSyncObj@@V?$allocator@PAVGSyncObj@@@std@@@std@@QAE@XZ 10b1c9b0 f i GKernelObj.obj
 0001:0001b9e0       ??0?$_Vector_iterator@PAXV?$allocator@PAX@std@@@std@@QAE@PAPAXPBV_Container_base_secure@1@@Z 10b1c9e0 f i GKernelObj.obj
 0001:0001ba20       ??0?$_Vector_const_iterator@PAXV?$allocator@PAX@std@@@std@@QAE@PAPAXPBV_Container_base_secure@1@@Z 10b1ca20 f i GKernelObj.obj
 0001:0001bb00       ?_Compat@?$_Vector_const_iterator@PAXV?$allocator@PAX@std@@@std@@QBEXABV12@@Z 10b1cb00 f i GKernelObj.obj
 0001:0001bb90       ?begin@?$vector@PAVGSyncObj@@V?$allocator@PAVGSyncObj@@@std@@@std@@QBE?AV?$_Vector_const_iterator@PAVGSyncObj@@V?$allocator@PAVGSyncObj@@@std@@@2@XZ 10b1cb90 f i GKernelObj.obj
 0001:0001bbe0       ??H?$_Vector_iterator@PAVGSyncObj@@V?$allocator@PAVGSyncObj@@@std@@@std@@QBE?AV01@H@Z 10b1cbe0 f i GKernelObj.obj
 0001:0001bcc0       ??G?$_Vector_const_iterator@PAVGSyncObj@@V?$allocator@PAVGSyncObj@@@std@@@std@@QBEHABV01@@Z 10b1ccc0 f i GKernelObj.obj
 0001:0001bd00       ??H?$_Vector_iterator@PAXV?$allocator@PAX@std@@@std@@QBE?AV01@H@Z 10b1cd00 f i GKernelObj.obj
 0001:0001bde0       ??G?$_Vector_const_iterator@PAXV?$allocator@PAX@std@@@std@@QBEHABV01@@Z 10b1cde0 f i GKernelObj.obj
 0001:0001be20       ??0?$_Vector_iterator@VPMSNSAP@@V?$allocator@VPMSNSAP@@@std@@@std@@QAE@ABV01@@Z 10b1ce20 f i LinkManager.obj
 0001:0001be20       ??0?$_Vector_iterator@JV?$allocator@J@std@@@std@@QAE@ABV01@@Z 10b1ce20 f i LinkManagerMsg.obj
 0001:0001be20       ??0?$_Vector_iterator@VPMSStatBase@@V?$allocator@VPMSStatBase@@@std@@@std@@QAE@ABV01@@Z 10b1ce20 f i LinkManagerMsg.obj
 0001:0001be20       ??0?$_Vector_iterator@PAVGSyncObj@@V?$allocator@PAVGSyncObj@@@std@@@std@@QAE@ABV01@@Z 10b1ce20 f i GKernelObj.obj
 0001:0001be20       ??0?$_Vector_iterator@VPMSRegionInfo@@V?$allocator@VPMSRegionInfo@@@std@@@std@@QAE@ABV01@@Z 10b1ce20 f i LinkManagerMsg.obj
 0001:0001be20       ??0?$_Vector_iterator@PAXV?$allocator@PAX@std@@@std@@QAE@ABV01@@Z 10b1ce20 f i GKernelObj.obj
 0001:0001be50       ?allocate@?$allocator@J@std@@QAEPAJI@Z 10b1ce50 f i LinkManager.obj
 0001:0001be50       ?allocate@?$allocator@PAVGSyncObj@@@std@@QAEPAPAVGSyncObj@@I@Z 10b1ce50 f i GKernelObj.obj
 0001:0001be50       ?allocate@?$allocator@PAX@std@@QAEPAPAXI@Z 10b1ce50 f i GKernelObj.obj
 0001:0001be80       ?max_size@?$vector@JV?$allocator@J@std@@@std@@QBEIXZ 10b1ce80 f i LinkManager.obj
 0001:0001be80       ?max_size@?$vector@PAXV?$allocator@PAX@std@@@std@@QBEIXZ 10b1ce80 f i GKernelObj.obj
 0001:0001be80       ?max_size@?$vector@PAVGSyncObj@@V?$allocator@PAVGSyncObj@@@std@@@std@@QBEIXZ 10b1ce80 f i GKernelObj.obj
 0001:0001beb0       ??Y?$_Vector_iterator@PAVGSyncObj@@V?$allocator@PAVGSyncObj@@@std@@@std@@QAEAAV01@H@Z 10b1ceb0 f i GKernelObj.obj
 0001:0001bee0       ??Y?$_Vector_iterator@PAXV?$allocator@PAX@std@@@std@@QAEAAV01@H@Z 10b1cee0 f i GKernelObj.obj
 0001:0001bf10       ?max_size@?$allocator@VGBuf@@@std@@QBEIXZ 10b1cf10 f i LinkManagerMsg.obj
 0001:0001bf10       ?max_size@?$allocator@PAX@std@@QBEIXZ 10b1cf10 f i GKernelObj.obj
 0001:0001bf10       ?max_size@?$allocator@J@std@@QBEIXZ 10b1cf10 f i LinkManager.obj
 0001:0001bf10       ?max_size@?$allocator@PAVGSyncObj@@@std@@QBEIXZ 10b1cf10 f i GKernelObj.obj
 0001:0001bf60       ??Y?$_Vector_const_iterator@PAVGSyncObj@@V?$allocator@PAVGSyncObj@@@std@@@std@@QAEAAV01@H@Z 10b1cf60 f i GKernelObj.obj
 0001:0001c070       ??Y?$_Vector_const_iterator@PAXV?$allocator@PAX@std@@@std@@QAEAAV01@H@Z 10b1d070 f i GKernelObj.obj
 0001:0001c180       ??$find@V?$_Vector_iterator@PAXV?$allocator@PAX@std@@@std@@PAX@std@@YA?AV?$_Vector_iterator@PAXV?$allocator@PAX@std@@@0@V10@0ABQAX@Z 10b1d180 f i GKernelObj.obj
 0001:0001c290       ??$find@V?$_Vector_iterator@PAVGSyncObj@@V?$allocator@PAVGSyncObj@@@std@@@std@@PBVGSyncObj@@@std@@YA?AV?$_Vector_iterator@PAVGSyncObj@@V?$allocator@PAVGSyncObj@@@std@@@0@V10@0ABQBVGSyncObj@@@Z 10b1d290 f i GKernelObj.obj
 0001:0001c3a0       ??$find@V?$_Vector_const_iterator@PAVGSyncObj@@V?$allocator@PAVGSyncObj@@@std@@@std@@PBVGSyncObj@@@std@@YA?AV?$_Vector_const_iterator@PAVGSyncObj@@V?$allocator@PAVGSyncObj@@@std@@@0@V10@0ABQBVGSyncObj@@@Z 10b1d3a0 f i GKernelObj.obj
 0001:0001c4b0       ??$_Destroy_range@V?$allocator@PAX@std@@@std@@YAXPAPAX0AAV?$allocator@PAX@0@@Z 10b1d4b0 f i GKernelObj.obj
 0001:0001c4b0       ??$_Destroy_range@V?$allocator@PAVGSyncObj@@@std@@@std@@YAXPAPAVGSyncObj@@0AAV?$allocator@PAVGSyncObj@@@0@@Z 10b1d4b0 f i GKernelObj.obj
 0001:0001c4b0       ??$_Destroy_range@V?$allocator@J@std@@@std@@YAXPAJ0AAV?$allocator@J@0@@Z 10b1d4b0 f i LinkManager.obj
 0001:0001c500       ??$_Umove@PAPAX@?$vector@PAXV?$allocator@PAX@std@@@std@@IAEPAPAXPAPAX00@Z 10b1d500 f i GKernelObj.obj
 0001:0001c500       ??$_Umove@PAPAVGSyncObj@@@?$vector@PAVGSyncObj@@V?$allocator@PAVGSyncObj@@@std@@@std@@IAEPAPAVGSyncObj@@PAPAV2@00@Z 10b1d500 f i GKernelObj.obj
 0001:0001c500       ??$_Umove@PAJ@?$vector@JV?$allocator@J@std@@@std@@IAEPAJPAJ00@Z 10b1d500 f i LinkManagerMsg.obj
 0001:0001c540       ??$_Allocate@PAVGSyncObj@@@std@@YAPAPAVGSyncObj@@IPAPAV1@@Z 10b1d540 f i GKernelObj.obj
 0001:0001c540       ??$_Allocate@J@std@@YAPAJIPAJ@Z 10b1d540 f i LinkManager.obj
 0001:0001c540       ??$_Allocate@PAX@std@@YAPAPAXIPAPAX@Z 10b1d540 f i GKernelObj.obj
 0001:0001c5b0       ??$_Checked_base@V?$_Vector_iterator@JV?$allocator@J@std@@@std@@@std@@YA?AV?$_Vector_iterator@JV?$allocator@J@std@@@0@AAV10@@Z 10b1d5b0 f i LinkManagerMsg.obj
 0001:0001c5b0       ??$_Checked_base@V?$_Vector_iterator@PAVGSyncObj@@V?$allocator@PAVGSyncObj@@@std@@@std@@@std@@YA?AV?$_Vector_iterator@PAVGSyncObj@@V?$allocator@PAVGSyncObj@@@std@@@0@AAV10@@Z 10b1d5b0 f i GKernelObj.obj
 0001:0001c5b0       ??$_Checked_base@V?$_Vector_iterator@PAXV?$allocator@PAX@std@@@std@@@std@@YA?AV?$_Vector_iterator@PAXV?$allocator@PAX@std@@@0@AAV10@@Z 10b1d5b0 f i GKernelObj.obj
 0001:0001c630       ??$_Find@V?$_Vector_iterator@PAXV?$allocator@PAX@std@@@std@@PAX@std@@YA?AV?$_Vector_iterator@PAXV?$allocator@PAX@std@@@0@V10@0ABQAX@Z 10b1d630 f i GKernelObj.obj
 0001:0001c740       ??$_Find@V?$_Vector_iterator@PAVGSyncObj@@V?$allocator@PAVGSyncObj@@@std@@@std@@PBVGSyncObj@@@std@@YA?AV?$_Vector_iterator@PAVGSyncObj@@V?$allocator@PAVGSyncObj@@@std@@@0@V10@0ABQBVGSyncObj@@@Z 10b1d740 f i GKernelObj.obj
 0001:0001c850       ??$_Checked_assign_from_base@V?$_Vector_iterator@PAXV?$allocator@PAX@std@@@std@@@std@@YAXAAV?$_Vector_iterator@PAXV?$allocator@PAX@std@@@0@ABV10@@Z 10b1d850 f i GKernelObj.obj
 0001:0001c850       ??$_Checked_assign_from_base@V?$_Vector_iterator@PAVGSyncObj@@V?$allocator@PAVGSyncObj@@@std@@@std@@@std@@YAXAAV?$_Vector_iterator@PAVGSyncObj@@V?$allocator@PAVGSyncObj@@@std@@@0@ABV10@@Z 10b1d850 f i GKernelObj.obj
 0001:0001c870       ??$_Checked_base@V?$_Vector_const_iterator@PAVGSyncObj@@V?$allocator@PAVGSyncObj@@@std@@@std@@@std@@YA?AV?$_Vector_const_iterator@PAVGSyncObj@@V?$allocator@PAVGSyncObj@@@std@@@0@AAV10@@Z 10b1d870 f i GKernelObj.obj
 0001:0001c8f0       ??$_Find@V?$_Vector_const_iterator@PAVGSyncObj@@V?$allocator@PAVGSyncObj@@@std@@@std@@PBVGSyncObj@@@std@@YA?AV?$_Vector_const_iterator@PAVGSyncObj@@V?$allocator@PAVGSyncObj@@@std@@@0@V10@0ABQBVGSyncObj@@@Z 10b1d8f0 f i GKernelObj.obj
 0001:0001ca00       ??$_Checked_assign_from_base@V?$_Vector_const_iterator@PAVGSyncObj@@V?$allocator@PAVGSyncObj@@@std@@@std@@@std@@YAXAAV?$_Vector_const_iterator@PAVGSyncObj@@V?$allocator@PAVGSyncObj@@@std@@@0@ABV10@@Z 10b1da00 f i GKernelObj.obj
 0001:0001ca20       ??$_Unchecked_uninitialized_move@PAPAVGSyncObj@@PAPAV1@V?$allocator@PAVGSyncObj@@@std@@@stdext@@YAPAPAVGSyncObj@@PAPAV1@00AAV?$allocator@PAVGSyncObj@@@std@@@Z 10b1da20 f i GKernelObj.obj
 0001:0001ca20       ??$_Unchecked_uninitialized_move@PAPAXPAPAXV?$allocator@PAX@std@@@stdext@@YAPAPAXPAPAX00AAV?$allocator@PAX@std@@@Z 10b1da20 f i GKernelObj.obj
 0001:0001ca20       ??$_Unchecked_uninitialized_move@PAJPAJV?$allocator@J@std@@@stdext@@YAPAJPAJ00AAV?$allocator@J@std@@@Z 10b1da20 f i LinkManagerMsg.obj
 0001:0001ca90       ??$_Fill@PAPAVGSyncObj@@PAV1@@std@@YAXPAPAVGSyncObj@@0ABQAV1@@Z 10b1da90 f i GKernelObj.obj
 0001:0001ca90       ??$_Fill@PAJJ@std@@YAXPAJ0ABJ@Z 10b1da90 f i LinkManagerMsg.obj
 0001:0001ca90       ??$_Fill@PAPAXPAX@std@@YAXPAPAX0ABQAX@Z 10b1da90 f i GKernelObj.obj
 0001:0001cae0       ??D?$_Vector_iterator@PAVGSyncObj@@V?$allocator@PAVGSyncObj@@@std@@@std@@QBEAAPAVGSyncObj@@XZ 10b1dae0 f i GKernelObj.obj
 0001:0001cb10       ??E?$_Vector_iterator@PAVGSyncObj@@V?$allocator@PAVGSyncObj@@@std@@@std@@QAEAAV01@XZ 10b1db10 f i GKernelObj.obj
 0001:0001cb40       ??D?$_Vector_const_iterator@PAVGSyncObj@@V?$allocator@PAVGSyncObj@@@std@@@std@@QBEABQAVGSyncObj@@XZ 10b1db40 f i GKernelObj.obj
 0001:0001cbe0       ??E?$_Vector_const_iterator@PAVGSyncObj@@V?$allocator@PAVGSyncObj@@@std@@@std@@QAEAAV01@XZ 10b1dbe0 f i GKernelObj.obj
 0001:0001cce0       ??D?$_Vector_iterator@PAXV?$allocator@PAX@std@@@std@@QBEAAPAXXZ 10b1dce0 f i GKernelObj.obj
 0001:0001cd10       ??E?$_Vector_iterator@PAXV?$allocator@PAX@std@@@std@@QAEAAV01@XZ 10b1dd10 f i GKernelObj.obj
 0001:0001cd40       ??E?$_Vector_const_iterator@PAXV?$allocator@PAX@std@@@std@@QAEAAV01@XZ 10b1dd40 f i GKernelObj.obj
 0001:0001ce40       ??$_Debug_range@V?$_Vector_iterator@PAXV?$allocator@PAX@std@@@std@@@std@@YAXV?$_Vector_iterator@PAXV?$allocator@PAX@std@@@0@0PB_WI@Z 10b1de40 f i GKernelObj.obj
 0001:0001cf20       ??$_Checked_base@V?$_Vector_iterator@PAXV?$allocator@PAX@std@@@std@@@std@@YA?AV?$_Vector_iterator@PAXV?$allocator@PAX@std@@@0@AAV10@U_Unchanged_checked_iterator_base_type_tag@0@@Z 10b1df20 f i GKernelObj.obj
 0001:0001cf20       ??$_Checked_base@V?$_Vector_iterator@PAVGSyncObj@@V?$allocator@PAVGSyncObj@@@std@@@std@@@std@@YA?AV?$_Vector_iterator@PAVGSyncObj@@V?$allocator@PAVGSyncObj@@@std@@@0@AAV10@U_Unchanged_checked_iterator_base_type_tag@0@@Z 10b1df20 f i GKernelObj.obj
 0001:0001cf20       ??$_Checked_base@V?$_Vector_iterator@JV?$allocator@J@std@@@std@@@std@@YA?AV?$_Vector_iterator@JV?$allocator@J@std@@@0@AAV10@U_Unchanged_checked_iterator_base_type_tag@0@@Z 10b1df20 f i LinkManagerMsg.obj
 0001:0001cf60       ??$_Debug_range@V?$_Vector_iterator@PAVGSyncObj@@V?$allocator@PAVGSyncObj@@@std@@@std@@@std@@YAXV?$_Vector_iterator@PAVGSyncObj@@V?$allocator@PAVGSyncObj@@@std@@@0@0PB_WI@Z 10b1df60 f i GKernelObj.obj
 0001:0001d040       ??$_Checked_base@V?$_Vector_const_iterator@PAVGSyncObj@@V?$allocator@PAVGSyncObj@@@std@@@std@@@std@@YA?AV?$_Vector_const_iterator@PAVGSyncObj@@V?$allocator@PAVGSyncObj@@@std@@@0@AAV10@U_Unchanged_checked_iterator_base_type_tag@0@@Z 10b1e040 f i GKernelObj.obj
 0001:0001d080       ??$_Debug_range@V?$_Vector_const_iterator@PAVGSyncObj@@V?$allocator@PAVGSyncObj@@@std@@@std@@@std@@YAXV?$_Vector_const_iterator@PAVGSyncObj@@V?$allocator@PAVGSyncObj@@@std@@@0@0PB_WI@Z 10b1e080 f i GKernelObj.obj
 0001:0001d160       ??$_Uninit_move@PAPAXPAPAXV?$allocator@PAX@std@@U_Undefined_move_tag@2@@std@@YAPAPAXPAPAX00AAV?$allocator@PAX@0@U_Undefined_move_tag@0@U_Range_checked_iterator_tag@0@@Z 10b1e160 f i GKernelObj.obj
 0001:0001d160       ??$_Uninit_move@PAJPAJV?$allocator@J@std@@U_Undefined_move_tag@2@@std@@YAPAJPAJ00AAV?$allocator@J@0@U_Undefined_move_tag@0@U_Range_checked_iterator_tag@0@@Z 10b1e160 f i LinkManagerMsg.obj
 0001:0001d160       ??$_Uninit_move@PAPAVGSyncObj@@PAPAV1@V?$allocator@PAVGSyncObj@@@std@@U_Undefined_move_tag@3@@std@@YAPAPAVGSyncObj@@PAPAV1@00AAV?$allocator@PAVGSyncObj@@@0@U_Undefined_move_tag@0@U_Range_checked_iterator_tag@0@@Z 10b1e160 f i GKernelObj.obj
 0001:0001d190       ??$_Debug_range2@V?$_Vector_iterator@PAXV?$allocator@PAX@std@@@std@@@std@@YAXV?$_Vector_iterator@PAXV?$allocator@PAX@std@@@0@0PB_WIUrandom_access_iterator_tag@0@@Z 10b1e190 f i GKernelObj.obj
 0001:0001d250       ??$_Debug_range2@V?$_Vector_iterator@PAVGSyncObj@@V?$allocator@PAVGSyncObj@@@std@@@std@@@std@@YAXV?$_Vector_iterator@PAVGSyncObj@@V?$allocator@PAVGSyncObj@@@std@@@0@0PB_WIUrandom_access_iterator_tag@0@@Z 10b1e250 f i GKernelObj.obj
 0001:0001d310       ??$_Iter_cat@V?$_Vector_const_iterator@PAVGSyncObj@@V?$allocator@PAVGSyncObj@@@std@@@std@@@std@@YA?AUrandom_access_iterator_tag@0@ABV?$_Vector_const_iterator@PAVGSyncObj@@V?$allocator@PAVGSyncObj@@@std@@@0@@Z 10b1e310 f i GKernelObj.obj
 0001:0001d310       ??$_Iter_random@PAVPMSStatBase@@PAV1@@std@@YA?AUrandom_access_iterator_tag@0@ABQAVPMSStatBase@@0@Z 10b1e310 f i LinkManagerMsg.obj
 0001:0001d310       ??$_Iter_random@PAPAVGSyncObj@@PAPAV1@@std@@YA?AUrandom_access_iterator_tag@0@ABQAPAVGSyncObj@@0@Z 10b1e310 f i GKernelObj.obj
 0001:0001d310       ??$_Iter_random@PAVPMSRegionInfo@@PAV1@@std@@YA?AUrandom_access_iterator_tag@0@ABQAVPMSRegionInfo@@0@Z 10b1e310 f i LinkManagerMsg.obj
 0001:0001d310       ??$_Iter_random@PAPAXPAPAX@std@@YA?AUrandom_access_iterator_tag@0@ABQAPAX0@Z 10b1e310 f i GKernelObj.obj
 0001:0001d310       ??$_Iter_random@PAVPMSNSAP@@PAV1@@std@@YA?AUrandom_access_iterator_tag@0@ABQAVPMSNSAP@@0@Z 10b1e310 f i LinkManager.obj
 0001:0001d310       ??$_Iter_cat@PAVPMSRegionInfo@@@std@@YA?AUrandom_access_iterator_tag@0@ABQAVPMSRegionInfo@@@Z 10b1e310 f i LinkManagerMsg.obj
 0001:0001d310       ??$_Iter_cat@PAVPMSStatBase@@@std@@YA?AUrandom_access_iterator_tag@0@ABQAVPMSStatBase@@@Z 10b1e310 f i LinkManagerMsg.obj
 0001:0001d310       ??$_Iter_cat@V?$_Vector_iterator@PAVGSyncObj@@V?$allocator@PAVGSyncObj@@@std@@@std@@@std@@YA?AUrandom_access_iterator_tag@0@ABV?$_Vector_iterator@PAVGSyncObj@@V?$allocator@PAVGSyncObj@@@std@@@0@@Z 10b1e310 f i GKernelObj.obj
 0001:0001d310       ??$_Iter_random@PAJPAJ@std@@YA?AUrandom_access_iterator_tag@0@ABQAJ0@Z 10b1e310 f i LinkManagerMsg.obj
 0001:0001d310       ??$_Iter_cat@V?$_Vector_iterator@JV?$allocator@J@std@@@std@@@std@@YA?AUrandom_access_iterator_tag@0@ABV?$_Vector_iterator@JV?$allocator@J@std@@@0@@Z 10b1e310 f i LinkManagerMsg.obj
 0001:0001d310       ??$_Iter_cat@V?$_Vector_iterator@PAXV?$allocator@PAX@std@@@std@@@std@@YA?AUrandom_access_iterator_tag@0@ABV?$_Vector_iterator@PAXV?$allocator@PAX@std@@@0@@Z 10b1e310 f i GKernelObj.obj
 0001:0001d310       ??$_Iter_cat@PAVPMSNSAP@@@std@@YA?AUrandom_access_iterator_tag@0@ABQAVPMSNSAP@@@Z 10b1e310 f i LinkManager.obj
 0001:0001d310       ??$_Iter_cat@PAJ@std@@YA?AUrandom_access_iterator_tag@0@ABQAJ@Z 10b1e310 f i LinkManagerMsg.obj
 0001:0001d310       ??$_Iter_cat@PAPAX@std@@YA?AUrandom_access_iterator_tag@0@ABQAPAX@Z 10b1e310 f i GKernelObj.obj
 0001:0001d310       ??$_Iter_cat@PAPAVGSyncObj@@@std@@YA?AUrandom_access_iterator_tag@0@ABQAPAVGSyncObj@@@Z 10b1e310 f i GKernelObj.obj
 0001:0001d360       ??$_Debug_range2@V?$_Vector_const_iterator@PAVGSyncObj@@V?$allocator@PAVGSyncObj@@@std@@@std@@@std@@YAXV?$_Vector_const_iterator@PAVGSyncObj@@V?$allocator@PAVGSyncObj@@@std@@@0@0PB_WIUrandom_access_iterator_tag@0@@Z 10b1e360 f i GKernelObj.obj
 0001:0001d420       ??$unchecked_uninitialized_copy@PAPAVGSyncObj@@PAPAV1@V?$allocator@PAVGSyncObj@@@std@@@stdext@@YAPAPAVGSyncObj@@PAPAV1@00AAV?$allocator@PAVGSyncObj@@@std@@@Z 10b1e420 f i GKernelObj.obj
 0001:0001d420       ??$unchecked_uninitialized_copy@PAJPAJV?$allocator@J@std@@@stdext@@YAPAJPAJ00AAV?$allocator@J@std@@@Z 10b1e420 f i LinkManagerMsg.obj
 0001:0001d420       ??$unchecked_uninitialized_copy@PAPAXPAPAXV?$allocator@PAX@std@@@stdext@@YAPAPAXPAPAX00AAV?$allocator@PAX@std@@@Z 10b1e420 f i GKernelObj.obj
 0001:0001d490       ??M?$_Vector_const_iterator@PAXV?$allocator@PAX@std@@@std@@QBE_NABV01@@Z 10b1e490 f i GKernelObj.obj
 0001:0001d4d0       ??$_Fill_n@PAJIJ@std@@YAXPAJIABJU_Range_checked_iterator_tag@0@@Z 10b1e4d0 f i LinkManagerMsg.obj
 0001:0001d4d0       ??$_Fill_n@PAPAVGSyncObj@@IPAV1@@std@@YAXPAPAVGSyncObj@@IABQAV1@U_Range_checked_iterator_tag@0@@Z 10b1e4d0 f i GKernelObj.obj
 0001:0001d4d0       ??$_Fill_n@PAPAXIPAX@std@@YAXPAPAXIABQAXU_Range_checked_iterator_tag@0@@Z 10b1e4d0 f i GKernelObj.obj
 0001:0001d500       ??$_Uninit_copy@PAJPAJV?$allocator@J@std@@@std@@YAPAJPAJ00AAV?$allocator@J@0@U_Scalar_ptr_iterator_tag@0@U_Range_checked_iterator_tag@0@@Z 10b1e500 f i LinkManagerMsg.obj
 0001:0001d500       ??$_Uninit_copy@PAPAXPAPAXV?$allocator@PAX@std@@@std@@YAPAPAXPAPAX00AAV?$allocator@PAX@0@U_Scalar_ptr_iterator_tag@0@U_Range_checked_iterator_tag@0@@Z 10b1e500 f i GKernelObj.obj
 0001:0001d500       ??$_Uninit_copy@PAPAVGSyncObj@@PAPAV1@V?$allocator@PAVGSyncObj@@@std@@@std@@YAPAPAVGSyncObj@@PAPAV1@00AAV?$allocator@PAVGSyncObj@@@0@U_Scalar_ptr_iterator_tag@0@U_Range_checked_iterator_tag@0@@Z 10b1e500 f i GKernelObj.obj
 0001:0001d5a0       ?TryEnter@GCRITICAL_SECTION@@QAEHXZ 10b1e5a0 f i GKernelObj.obj
 0001:0001d5e0       ??1GWaitableObj@@UAE@XZ    10b1e5e0 f i GKernelObj.obj
 0001:0001d600       ??_EGWaitableObj@@UAEPAXI@Z 10b1e600 f i GKernelObj.obj
 0001:0001d600       ??_GGWaitableObj@@UAEPAXI@Z 10b1e600 f i GKernelObj.obj
 0001:0001d640       ?IsValid@GSyncObj@@QBEHXZ  10b1e640 f i GKernelObj.obj
 0001:0001d680       ??1?$pvector@VGSyncObj@@@@UAE@XZ 10b1e680 f i GKernelObj.obj
 0001:0001d700       ??_E?$pvector@VGSyncObj@@@@UAEPAXI@Z 10b1e700 f i GKernelObj.obj
 0001:0001d700       ??_G?$pvector@VGSyncObj@@@@UAEPAXI@Z 10b1e700 f i GKernelObj.obj
 0001:0001d740       ?clear@?$vector@PAVGSyncObj@@V?$allocator@PAVGSyncObj@@@std@@@std@@QAEXXZ 10b1e740 f i GKernelObj.obj
 0001:0001d840       ?begin@?$vector@PAVGSyncObj@@V?$allocator@PAVGSyncObj@@@std@@@std@@QAE?AV?$_Vector_iterator@PAVGSyncObj@@V?$allocator@PAVGSyncObj@@@std@@@2@XZ 10b1e840 f i GKernelObj.obj
 0001:0001d890       ?end@?$vector@PAVGSyncObj@@V?$allocator@PAVGSyncObj@@@std@@@std@@QAE?AV?$_Vector_iterator@PAVGSyncObj@@V?$allocator@PAVGSyncObj@@@std@@@2@XZ 10b1e890 f i GKernelObj.obj
 0001:0001d8e0       ?erase@?$vector@PAVGSyncObj@@V?$allocator@PAVGSyncObj@@@std@@@std@@QAE?AV?$_Vector_iterator@PAVGSyncObj@@V?$allocator@PAVGSyncObj@@@std@@@2@V?$_Vector_const_iterator@PAVGSyncObj@@V?$allocator@PAVGSyncObj@@@std@@@2@0@Z 10b1e8e0 f i GKernelObj.obj
 0001:0001dad0       ?_Tidy@?$vector@PAVGSyncObj@@V?$allocator@PAVGSyncObj@@@std@@@std@@IAEXXZ 10b1ead0 f i GKernelObj.obj
 0001:0001dad0       ?_Tidy@?$vector@JV?$allocator@J@std@@@std@@IAEXXZ 10b1ead0 f i LinkManager.obj
 0001:0001db60       ?_Make_iter@?$vector@PAVGSyncObj@@V?$allocator@PAVGSyncObj@@@std@@@std@@QBE?AV?$_Vector_iterator@PAVGSyncObj@@V?$allocator@PAVGSyncObj@@@std@@@2@V?$_Vector_const_iterator@PAVGSyncObj@@V?$allocator@PAVGSyncObj@@@std@@@2@@Z 10b1eb60 f i GKernelObj.obj
 0001:0001dbf0       ??0?$_Vector_iterator@PAVGSyncObj@@V?$allocator@PAVGSyncObj@@@std@@@std@@QAE@PAPAVGSyncObj@@PBV_Container_base_secure@1@@Z 10b1ebf0 f i GKernelObj.obj
 0001:0001dc30       ??9?$_Vector_const_iterator@PAVGSyncObj@@V?$allocator@PAVGSyncObj@@@std@@@std@@QBE_NABV01@@Z 10b1ec30 f i GKernelObj.obj
 0001:0001dc70       ??M?$_Vector_const_iterator@PAVGSyncObj@@V?$allocator@PAVGSyncObj@@@std@@@std@@QBE_NABV01@@Z 10b1ec70 f i GKernelObj.obj
 0001:0001dcb0       ??0?$_Vector_const_iterator@PAVGSyncObj@@V?$allocator@PAVGSyncObj@@@std@@@std@@QAE@PAPAVGSyncObj@@PBV_Container_base_secure@1@@Z 10b1ecb0 f i GKernelObj.obj
 0001:0001dd90       ??8?$_Vector_const_iterator@PAVGSyncObj@@V?$allocator@PAVGSyncObj@@@std@@@std@@QBE_NABV01@@Z 10b1ed90 f i GKernelObj.obj
 0001:0001ddd0       ?_Compat@?$_Vector_const_iterator@PAVGSyncObj@@V?$allocator@PAVGSyncObj@@@std@@@std@@QBEXABV12@@Z 10b1edd0 f i GKernelObj.obj
 0001:0001de60       ??0?$_Ranit@PAXHPBQAXABQAX@std@@QAE@XZ 10b1ee60 f i GKernelObj.obj
 0001:0001de60       ??0?$_Ranit@VPMSNSAP@@HPBV1@ABV1@@std@@QAE@XZ 10b1ee60 f i LinkManager.obj
 0001:0001de60       ??0?$_Ranit@PAVGSyncObj@@HPBQAV1@ABQAV1@@std@@QAE@XZ 10b1ee60 f i GKernelObj.obj
 0001:0001de60       ??0?$_Ranit@VPMSRegionInfo@@HPBV1@ABV1@@std@@QAE@XZ 10b1ee60 f i LinkManager.obj
 0001:0001de60       ??0?$_Bidit@VGBuf@@HPBV1@ABV1@@std@@QAE@XZ 10b1ee60 f i LinkManager.obj
 0001:0001de60       ??0?$_Ranit@VPMSStatBase@@HPBV1@ABV1@@std@@QAE@XZ 10b1ee60 f i LinkManager.obj
 0001:0001de60       ??0?$_Ranit@JHPBJABJ@std@@QAE@XZ 10b1ee60 f i LinkManager.obj
 0001:0001de90       ??0?$_Iterator_with_base@Ubidirectional_iterator_tag@std@@VGBuf@@HPBV3@ABV3@V_Iterator_base@2@@std@@QAE@XZ 10b1ee90 f i LinkManager.obj
 0001:0001de90       ??0?$_Iterator_with_base@Urandom_access_iterator_tag@std@@PAXHPBQAXABQAXV_Iterator_base@2@@std@@QAE@XZ 10b1ee90 f i GKernelObj.obj
 0001:0001de90       ??0?$_Iterator_with_base@Urandom_access_iterator_tag@std@@VPMSStatBase@@HPBV3@ABV3@V_Iterator_base@2@@std@@QAE@XZ 10b1ee90 f i LinkManager.obj
 0001:0001de90       ??0?$_Ranit_base@DHPBDABDV_Iterator_base@std@@@std@@QAE@XZ 10b1ee90 f i LinkManagerMsg.obj
 0001:0001de90       ??0?$_Iterator_with_base@Urandom_access_iterator_tag@std@@VPMSNSAP@@HPBV3@ABV3@V_Iterator_base@2@@std@@QAE@XZ 10b1ee90 f i LinkManager.obj
 0001:0001de90       ??0?$_Iterator_with_base@Urandom_access_iterator_tag@std@@PAVGSyncObj@@HPBQAV3@ABQAV3@V_Iterator_base@2@@std@@QAE@XZ 10b1ee90 f i GKernelObj.obj
 0001:0001de90       ??0?$_Iterator_with_base@Urandom_access_iterator_tag@std@@JHPBJABJV_Iterator_base@2@@std@@QAE@XZ 10b1ee90 f i LinkManager.obj
 0001:0001de90       ??0?$_Iterator_with_base@Urandom_access_iterator_tag@std@@VPMSRegionInfo@@HPBV3@ABV3@V_Iterator_base@2@@std@@QAE@XZ 10b1ee90 f i LinkManager.obj
 0001:0001dec0       ??$unchecked_copy@PAJPAJ@stdext@@YAPAJPAJ00@Z 10b1eec0 f i LinkManagerMsg.obj
 0001:0001dec0       ??$unchecked_copy@PAPAXPAPAX@stdext@@YAPAPAXPAPAX00@Z 10b1eec0 f i GKernelObj.obj
 0001:0001dec0       ??$unchecked_copy@PAPAVGSyncObj@@PAPAV1@@stdext@@YAPAPAVGSyncObj@@PAPAV1@00@Z 10b1eec0 f i GKernelObj.obj
 0001:0001df40       ??$_Copy_opt@PAPAVGSyncObj@@PAPAV1@Urandom_access_iterator_tag@std@@@std@@YAPAPAVGSyncObj@@PAPAV1@00Urandom_access_iterator_tag@0@U_Scalar_ptr_iterator_tag@0@U_Range_checked_iterator_tag@0@@Z 10b1ef40 f i GKernelObj.obj
 0001:0001df40       ??$_Copy_opt@PAJPAJUrandom_access_iterator_tag@std@@@std@@YAPAJPAJ00Urandom_access_iterator_tag@0@U_Scalar_ptr_iterator_tag@0@U_Range_checked_iterator_tag@0@@Z 10b1ef40 f i LinkManagerMsg.obj
 0001:0001df40       ??$_Copy_opt@PAPAXPAPAXUrandom_access_iterator_tag@std@@@std@@YAPAPAXPAPAX00Urandom_access_iterator_tag@0@U_Scalar_ptr_iterator_tag@0@U_Range_checked_iterator_tag@0@@Z 10b1ef40 f i GKernelObj.obj
 0001:0001dfe0       ??0GSocketInitializer@@QAE@G@Z 10b1efe0 f   GSocket.obj
 0001:0001e020       ??1GSocketInitializer@@QAE@XZ 10b1f020 f   GSocket.obj
 0001:0001e050       ??0GSocketEvent@@QAE@XZ    10b1f050 f   GSocket.obj
 0001:0001e0c0       ??1GSocketEvent@@UAE@XZ    10b1f0c0 f   GSocket.obj
 0001:0001e150       ?Unlock@GSocketEvent@@UAEHXZ 10b1f150 f   GSocket.obj
 0001:0001e170       ?SetEvent@GSocketEvent@@QAEHXZ 10b1f170 f   GSocket.obj
 0001:0001e1b0       ?ResetEvent@GSocketEvent@@QAEHXZ 10b1f1b0 f   GSocket.obj
 0001:0001e1f0       ?EventSelect@@YAHIPAXJ@Z   10b1f1f0 f   GSocket.obj
 0001:0001e2a0       ?Startup@GSocket@@SAHG@Z   10b1f2a0 f   GSocket.obj
 0001:0001e360       ?Cleanup@GSocket@@SAHXZ    10b1f360 f   GSocket.obj
 0001:0001e3a0       ??1GSocket@@UAE@XZ         10b1f3a0 f   GSocket.obj
 0001:0001e3d0       ?Socket@GSocket@@QAEHHHH@Z 10b1f3d0 f   GSocket.obj
 0001:0001e470       ?Close@GSocket@@UAEXXZ     10b1f470 f   GSocket.obj
 0001:0001e4e0       ?Create@GSocket@@UAEHJHPBD@Z 10b1f4e0 f   GSocket.obj
 0001:0001e580       ?Create@GSocket@@UAEHJHV?$basic_string@DU?$char_traits@D@std@@V?$allocator@D@2@@std@@@Z 10b1f580 f   GSocket.obj
 0001:0001e6e0       ?Create@GSocket@@UAEHJHV?$basic_string@_WU?$char_traits@_W@std@@V?$allocator@_W@2@@std@@@Z 10b1f6e0 f   GSocket.obj
 0001:0001e840       ?Attach@GSocket@@UAEHI@Z   10b1f840 f   GSocket.obj
 0001:0001e8d0       ?Detach@GSocket@@UAEIXZ    10b1f8d0 f   GSocket.obj
 0001:0001e930       ?GetPeerName@GSocket@@QAEHAAV?$basic_string@DU?$char_traits@D@std@@V?$allocator@D@2@@std@@AAJ@Z 10b1f930 f   GSocket.obj
 0001:0001ea30       ?GetPeerName@GSocket@@QAEHAAV?$basic_string@_WU?$char_traits@_W@std@@V?$allocator@_W@2@@std@@AAJ@Z 10b1fa30 f   GSocket.obj
 0001:0001eb40       ?GetPeerName@GSocket@@QAEHPAUsockaddr@@PAH@Z 10b1fb40 f   GSocket.obj
 0001:0001eb90       ?GetSockName@GSocket@@QAEHAAV?$basic_string@DU?$char_traits@D@std@@V?$allocator@D@2@@std@@AAJ@Z 10b1fb90 f   GSocket.obj
 0001:0001ec90       ?GetSockName@GSocket@@QAEHAAV?$basic_string@_WU?$char_traits@_W@std@@V?$allocator@_W@2@@std@@AAJ@Z 10b1fc90 f   GSocket.obj
 0001:0001eda0       ?GetSockName@GSocket@@QAEHPAUsockaddr@@PAH@Z 10b1fda0 f   GSocket.obj
 0001:0001edf0       ?SetSockOpt@GSocket@@QAEHHPBXHH@Z 10b1fdf0 f   GSocket.obj
 0001:0001ee70       ?GetSockOpt@GSocket@@QAEHHPAXPAHH@Z 10b1fe70 f   GSocket.obj
 0001:0001eef0       ?Listen@GSocket@@QAEHH@Z   10b1fef0 f   GSocket.obj
 0001:0001ef40       ?Accept@GSocket@@QAEIPAUsockaddr@@PAH@Z 10b1ff40 f   GSocket.obj
 0001:0001ef80       ?Bind@GSocket@@QAEHJPBD@Z  10b1ff80 f   GSocket.obj
 0001:0001f080       ?Bind@GSocket@@QAEHJV?$basic_string@DU?$char_traits@D@std@@V?$allocator@D@2@@std@@@Z 10b20080 f   GSocket.obj
 0001:0001f1e0       ?Bind@GSocket@@QAEHJV?$basic_string@_WU?$char_traits@_W@std@@V?$allocator@_W@2@@std@@@Z 10b201e0 f   GSocket.obj
 0001:0001f340       ?Bind@GSocket@@QAEHPBUsockaddr@@H@Z 10b20340 f   GSocket.obj
 0001:0001f390       ?Connect@GSocket@@QAEHPBDJ@Z 10b20390 f   GSocket.obj
 0001:0001f4a0       ?Connect@GSocket@@QAEHV?$basic_string@DU?$char_traits@D@std@@V?$allocator@D@2@@std@@J@Z 10b204a0 f   GSocket.obj
 0001:0001f620       ?Connect@GSocket@@QAEHV?$basic_string@_WU?$char_traits@_W@std@@V?$allocator@_W@2@@std@@J@Z 10b20620 f   GSocket.obj
 0001:0001f7a0       ?Connect@GSocket@@QAEHPBUsockaddr@@H@Z 10b207a0 f   GSocket.obj
 0001:0001f800       ?Receive@GSocket@@QAEHPAXHH@Z 10b20800 f   GSocket.obj
 0001:0001f850       ?Send@GSocket@@QAEHPBXHH@Z 10b20850 f   GSocket.obj
 0001:0001f8a0       ?ReceiveFrom@GSocket@@QAEHPAXHPAUsockaddr@@PAHH@Z 10b208a0 f   GSocket.obj
 0001:0001f8f0       ?ReceiveFrom@GSocket@@QAEHPAXHAAV?$basic_string@DU?$char_traits@D@std@@V?$allocator@D@2@@std@@AAJH@Z 10b208f0 f   GSocket.obj
 0001:0001fa20       ?ReceiveFrom@GSocket@@QAEHPAXHAAK1H@Z 10b20a20 f   GSocket.obj
 0001:0001fb30       ?SendTo@GSocket@@QAEHPBXHPBUsockaddr@@HH@Z 10b20b30 f   GSocket.obj
 0001:0001fb80       ?SendTo@GSocket@@QAEHPBXHJV?$basic_string@DU?$char_traits@D@std@@V?$allocator@D@2@@std@@H@Z 10b20b80 f   GSocket.obj
 0001:0001fcf0       ?SendTo@GSocket@@QAEHPBXHJV?$basic_string@_WU?$char_traits@_W@std@@V?$allocator@_W@2@@std@@H@Z 10b20cf0 f   GSocket.obj
 0001:0001fe60       ?SendTo@GSocket@@QAEHPBXHKJH@Z 10b20e60 f   GSocket.obj
 0001:0001ff30       ?WSAReceiveFrom@GSocket@@QAEHPAU_WSABUF@@KAAK11PAU_OVERLAPPED@@P6GXKK2K@Z@Z 10b20f30 f   GSocket.obj
 0001:00020090       ?WSAReceiveFrom@GSocket@@QAEHPAU_WSABUF@@KAAKAAV?$basic_string@DU?$char_traits@D@std@@V?$allocator@D@2@@std@@1PAU_OVERLAPPED@@P6GXKK3K@Z@Z 10b21090 f   GSocket.obj
 0001:000201c0       ?WSASendTo@GSocket@@QAEHPAU_WSABUF@@KKKKPAU_OVERLAPPED@@P6GXKK1K@Z@Z 10b211c0 f   GSocket.obj
 0001:000202e0       ?GetHostAddr@GSocket@@QAEHPBDPAUsockaddr_in@@HH@Z 10b212e0 f   GSocket.obj
 0001:00020480       ?GetHostAddr@GSocket@@QAEHV?$basic_string@_WU?$char_traits@_W@std@@V?$allocator@_W@2@@std@@PAUsockaddr_in@@HH@Z 10b21480 f   GSocket.obj
 0001:000207d0       ?GetHostAddr@GSocket@@QAEHV?$basic_string@DU?$char_traits@D@std@@V?$allocator@D@2@@std@@PAUsockaddr_in@@HH@Z 10b217d0 f   GSocket.obj
 0001:00020b10       ?OnSocketNotify@GSocket@@UAEHJH@Z 10b21b10 f   GSocket.obj
 0001:00020d60       ?Dispatch@GSocket@@QAEHXZ  10b21d60 f   GSocket.obj
 0001:00021090       ?WSAGetErrorDescription@@YAPBDH@Z 10b22090 f   GSocket.obj
 0001:00021350       ?GetHostAddress@@YAHAAV?$basic_string@DU?$char_traits@D@std@@V?$allocator@D@2@@std@@H@Z 10b22350 f   GSocket.obj
 0001:00021540       ?TryReceive@@YAHIPAEKPAK@Z 10b22540 f   GSocket.obj
 0001:00021620       ?TrySend@@YAHIPBEKPAK@Z    10b22620 f   GSocket.obj
 0001:00021710       ?TryReceive@@YAHIPAUIXBuf@@@Z 10b22710 f   GSocket.obj
 0001:000218b0       ?TrySend@@YAHIPAUIXBuf@@@Z 10b228b0 f   GSocket.obj
 0001:000219a0       ?BlockingReceive@@YAHIPAEK@Z 10b229a0 f   GSocket.obj
 0001:00021aa0       ?BlockingSend@@YAHIPBEK@Z  10b22aa0 f   GSocket.obj
 0001:00021ba0       ?BlockingReceive@@YAHIPAUIXBuf@@K@Z 10b22ba0 f   GSocket.obj
 0001:00021c60       ?BlockingSend@@YAHIPAUIXBuf@@@Z 10b22c60 f   GSocket.obj
 0001:00021d00       ??_EGSocketEvent@@UAEPAXI@Z 10b22d00 f i GSocket.obj
 0001:00021d00       ??_GGSocketEvent@@UAEPAXI@Z 10b22d00 f i GSocket.obj
 0001:00021d40       ??0?$basic_string@_WU?$char_traits@_W@std@@V?$allocator@_W@2@@std@@QAE@ABV01@@Z 10b22d40 f i GSocket.obj
 0001:00021dd0       ?FATAL@@YAXPBD@Z           10b22dd0 f i GSocket.obj
 0001:00021e10       ?MSGBOXA@@YAXPBD@Z         10b22e10 f i GSocket.obj
 0001:00021ed0       ?str2wstr@@YAHAAV?$basic_string@_WU?$char_traits@_W@std@@V?$allocator@_W@2@@std@@V?$basic_string@DU?$char_traits@D@std@@V?$allocator@D@2@@2@@Z 10b22ed0 f i GSocket.obj
 0001:00021fb0       ?wstr2str@@YAHAAV?$basic_string@DU?$char_traits@D@std@@V?$allocator@D@2@@std@@V?$basic_string@_WU?$char_traits@_W@std@@V?$allocator@_W@2@@2@@Z 10b22fb0 f i GSocket.obj
 0001:00022090       ?IsValid@GSocket@@QBEHXZ   10b23090 f i GSocket.obj
 0001:000220c0       ?OnError@GSocket@@UAEHJH@Z 10b230c0 f i GSocket.obj
 0001:000220e0       ?OnReceive@GSocket@@UAEHH@Z 10b230e0 f i GSocket.obj
 0001:00022140       ?OnSend@GSocket@@UAEHH@Z   10b23140 f i GSocket.obj
 0001:000221a0       ?OnOOB@GSocket@@UAEHH@Z    10b231a0 f i GSocket.obj
 0001:00022200       ?OnAccept@GSocket@@UAEHH@Z 10b23200 f i GSocket.obj
 0001:00022260       ?OnConnect@GSocket@@UAEHH@Z 10b23260 f i GSocket.obj
 0001:000222c0       ?OnClose@GSocket@@UAEHH@Z  10b232c0 f i GSocket.obj
 0001:00022300       ?OnQOS@GSocket@@UAEHH@Z    10b23300 f i GSocket.obj
 0001:00022360       ?OnGroupQOS@GSocket@@UAEHH@Z 10b23360 f i GSocket.obj
 0001:000223c0       ?OnRoutingInterfaceChange@GSocket@@UAEHH@Z 10b233c0 f i GSocket.obj
 0001:00022420       ?OnAddressListChange@GSocket@@UAEHH@Z 10b23420 f i GSocket.obj
 0001:00022480       ??_EGSocket@@UAEPAXI@Z     10b23480 f i GSocket.obj
 0001:00022480       ??_GGSocket@@UAEPAXI@Z     10b23480 f i GSocket.obj
 0001:000224c0       ?TryReceive@@YAHIAAV?$basic_string@DU?$char_traits@D@std@@V?$allocator@D@2@@std@@@Z 10b234c0 f   GSocketUtl.obj
 0001:00022630       ?TrySend@@YAHIAAV?$basic_string@DU?$char_traits@D@std@@V?$allocator@D@2@@std@@@Z 10b23630 f   GSocketUtl.obj
 0001:00022740       ??0GTxtSocket@@QAE@XZ      10b23740 f   GSocketUtl.obj
 0001:000227d0       ??1GTxtSocket@@UAE@XZ      10b237d0 f   GSocketUtl.obj
 0001:00022850       ?Close@GTxtSocket@@UAEXXZ  10b23850 f   GSocketUtl.obj
 0001:000228a0       ?TryReceive@GTxtSocket@@UAEHXZ 10b238a0 f   GSocketUtl.obj
 0001:000228e0       ?TrySend@GTxtSocket@@UAEHXZ 10b238e0 f   GSocketUtl.obj
 0001:00022920       ?DoSend@GTxtSocket@@UAEHV?$basic_string@DU?$char_traits@D@std@@V?$allocator@D@2@@std@@@Z 10b23920 f   GSocketUtl.obj
 0001:000229f0       ?OnReceive@GTxtSocket@@UAEHH@Z 10b239f0 f   GSocketUtl.obj
 0001:00022a70       ?OnSend@GTxtSocket@@UAEHH@Z 10b23a70 f   GSocketUtl.obj
 0001:00022af0       ?GetRcvBuf@GTxtSocket@@QAEAAV?$basic_string@DU?$char_traits@D@std@@V?$allocator@D@2@@std@@XZ 10b23af0 f   GSocketUtl.obj
 0001:00022b10       ?GetSndBuf@GTxtSocket@@QAEAAV?$basic_string@DU?$char_traits@D@std@@V?$allocator@D@2@@std@@XZ 10b23b10 f   GSocketUtl.obj
 0001:00022b30       ?TryReceive@@YAHIAAVGBuf@@@Z 10b23b30 f   GSocketUtl.obj
 0001:00022c70       ?TrySend@@YAHIAAVGBuf@@@Z  10b23c70 f   GSocketUtl.obj
 0001:00022d20       ?TrySend@@YAHIAAVGBufQ@@@Z 10b23d20 f   GSocketUtl.obj
 0001:00022db0       ??0GBufSocket@@QAE@XZ      10b23db0 f   GSocketUtl.obj
 0001:00022e40       ??1GBufSocket@@UAE@XZ      10b23e40 f   GSocketUtl.obj
 0001:00022ec0       ?Close@GBufSocket@@UAEXXZ  10b23ec0 f   GSocketUtl.obj
 0001:00022f00       ?TryReceive@GBufSocket@@UAEHXZ 10b23f00 f   GSocketUtl.obj
 0001:00022f40       ?TrySend@GBufSocket@@UAEHXZ 10b23f40 f   GSocketUtl.obj
 0001:00022f80       ?DoSend@GBufSocket@@UAEHABVGBuf@@@Z 10b23f80 f   GSocketUtl.obj
 0001:00022fd0       ?OnReceive@GBufSocket@@UAEHH@Z 10b23fd0 f   GSocketUtl.obj
 0001:00023050       ?OnSend@GBufSocket@@UAEHH@Z 10b24050 f   GSocketUtl.obj
 0001:000230d0       ?GetRcvBuf@GBufSocket@@QAEAAVGBuf@@XZ 10b240d0 f   GSocketUtl.obj
 0001:000230f0       ?GetSndBufQ@GBufSocket@@QAEAAVGBufQ@@XZ 10b240f0 f   GSocketUtl.obj
 0001:00023110       ??_EGTxtSocket@@UAEPAXI@Z  10b24110 f i GSocketUtl.obj
 0001:00023110       ??_GGTxtSocket@@UAEPAXI@Z  10b24110 f i GSocketUtl.obj
 0001:00023150       ??_EGBufSocket@@UAEPAXI@Z  10b24150 f i GSocketUtl.obj
 0001:00023150       ??_GGBufSocket@@UAEPAXI@Z  10b24150 f i GSocketUtl.obj
 0001:00023190       ??Y?$basic_string@DU?$char_traits@D@std@@V?$allocator@D@2@@std@@QAEAAV01@ABV01@@Z 10b24190 f i GSocketUtl.obj
 0001:000231c0       ?append@?$basic_string@DU?$char_traits@D@std@@V?$allocator@D@2@@std@@QAEAAV12@PBDI@Z 10b241c0 f i GSocketUtl.obj
 0001:000232c0       ?append@?$basic_string@DU?$char_traits@D@std@@V?$allocator@D@2@@std@@QAEAAV12@ABV12@@Z 10b242c0 f i GSocketUtl.obj
 0001:000232f0       ?append@?$basic_string@DU?$char_traits@D@std@@V?$allocator@D@2@@std@@QAEAAV12@ABV12@II@Z 10b242f0 f i GSocketUtl.obj
 0001:000233e0       ??0GSocket@@QAE@XZ         10b243e0 f i GSocketUtl.obj
 0001:00023410       ?Reserve@GBuf@@QAEXK@Z     10b24410 f i GSocketUtl.obj
 0001:00023450       ?RemoveLeft@GBuf@@QAEXK@Z  10b24450 f i GSocketUtl.obj
 0001:00023490       ?Clear@GBuf@@QAEXXZ        10b24490 f i GSocketUtl.obj
 0001:000234f0       ?Clear@GBufQ@@QAEXXZ       10b244f0 f i GSocketUtl.obj
 0001:00023520       ?Top@GBufQ@@QAEAAVGBuf@@XZ 10b24520 f i GSocketUtl.obj
 0001:00023550       ?Pop@GBufQ@@QAE?AVGBuf@@XZ 10b24550 f i GSocketUtl.obj
 0001:00023650       ?vformat@@YA?AV?$basic_string@DU?$char_traits@D@std@@V?$allocator@D@2@@std@@PBDPAD@Z 10b24650 f   GString.obj
 0001:00023740       ?vformat@@YA?AV?$basic_string@_WU?$char_traits@_W@std@@V?$allocator@_W@2@@std@@PB_WPAD@Z 10b24740 f   GString.obj
 0001:00023830       ?format@@YA?AV?$basic_string@DU?$char_traits@D@std@@V?$allocator@D@2@@std@@PBDZZ 10b24830 f   GString.obj
 0001:00023910       ?format@@YA?AV?$basic_string@_WU?$char_traits@_W@std@@V?$allocator@_W@2@@std@@PB_WZZ 10b24910 f   GString.obj
 0001:000239f0       ?tolower@@YAAAV?$basic_string@DU?$char_traits@D@std@@V?$allocator@D@2@@std@@AAV12@@Z 10b249f0 f   GString.obj
 0001:00023a80       ?toupper@@YAAAV?$basic_string@DU?$char_traits@D@std@@V?$allocator@D@2@@std@@AAV12@@Z 10b24a80 f   GString.obj
 0001:00023b10       ?trimleft@@YAAAV?$basic_string@DU?$char_traits@D@std@@V?$allocator@D@2@@std@@AAV12@@Z 10b24b10 f   GString.obj
 0001:00023c00       ?trimright@@YAAAV?$basic_string@DU?$char_traits@D@std@@V?$allocator@D@2@@std@@AAV12@@Z 10b24c00 f   GString.obj
 0001:00023c60       ?trim@@YAAAV?$basic_string@DU?$char_traits@D@std@@V?$allocator@D@2@@std@@AAV12@@Z 10b24c60 f   GString.obj
 0001:00023c90       ?strcmp@@YAHABV?$basic_string@DU?$char_traits@D@std@@V?$allocator@D@2@@std@@0@Z 10b24c90 f   GString.obj
 0001:00023cb0       ?stricmp@@YAHABV?$basic_string@DU?$char_traits@D@std@@V?$allocator@D@2@@std@@0@Z 10b24cb0 f   GString.obj
 0001:00023dc0       ?strncmp@@YAHABV?$basic_string@DU?$char_traits@D@std@@V?$allocator@D@2@@std@@0I@Z 10b24dc0 f   GString.obj
 0001:00023ef0       ?strnicmp@@YAHABV?$basic_string@DU?$char_traits@D@std@@V?$allocator@D@2@@std@@0I@Z 10b24ef0 f   GString.obj
 0001:000240d0       ?striless@@YA_NABV?$basic_string@DU?$char_traits@D@std@@V?$allocator@D@2@@std@@0@Z 10b250d0 f   GString.obj
 0001:00024100       ?strless@@YA_NABV?$basic_string@DU?$char_traits@D@std@@V?$allocator@D@2@@std@@0@Z 10b25100 f   GString.obj
 0001:00024130       ?striabbrless@@YA_NABV?$basic_string@DU?$char_traits@D@std@@V?$allocator@D@2@@std@@0@Z 10b25130 f   GString.obj
 0001:00024160       ?tolower@@YAAAV?$basic_string@_WU?$char_traits@_W@std@@V?$allocator@_W@2@@std@@AAV12@@Z 10b25160 f   GString.obj
 0001:00024200       ?toupper@@YAAAV?$basic_string@_WU?$char_traits@_W@std@@V?$allocator@_W@2@@std@@AAV12@@Z 10b25200 f   GString.obj
 0001:000242a0       ?trimleft@@YAAAV?$basic_string@_WU?$char_traits@_W@std@@V?$allocator@_W@2@@std@@AAV12@@Z 10b252a0 f   GString.obj
 0001:00024390       ?trimright@@YAAAV?$basic_string@_WU?$char_traits@_W@std@@V?$allocator@_W@2@@std@@AAV12@@Z 10b25390 f   GString.obj
 0001:000243f0       ?strcmp@@YAHABV?$basic_string@_WU?$char_traits@_W@std@@V?$allocator@_W@2@@std@@0@Z 10b253f0 f   GString.obj
 0001:00024410       ?stricmp@@YAHABV?$basic_string@_WU?$char_traits@_W@std@@V?$allocator@_W@2@@std@@0@Z 10b25410 f   GString.obj
 0001:00024520       ?strncmp@@YAHABV?$basic_string@_WU?$char_traits@_W@std@@V?$allocator@_W@2@@std@@0I@Z 10b25520 f   GString.obj
 0001:00024650       ?strnicmp@@YAHABV?$basic_string@_WU?$char_traits@_W@std@@V?$allocator@_W@2@@std@@0I@Z 10b25650 f   GString.obj
 0001:00024830       ?striless@@YA_NABV?$basic_string@_WU?$char_traits@_W@std@@V?$allocator@_W@2@@std@@0@Z 10b25830 f   GString.obj
 0001:00024860       ?striabbrless@@YA_NABV?$basic_string@_WU?$char_traits@_W@std@@V?$allocator@_W@2@@std@@0@Z 10b25860 f   GString.obj
 0001:00024890       ?wstr2str@@YA?AV?$basic_string@DU?$char_traits@D@std@@V?$allocator@D@2@@std@@ABV?$basic_string@_WU?$char_traits@_W@std@@V?$allocator@_W@2@@2@@Z 10b25890 f   GString.obj
 0001:00024a80       ?str2wstr@@YA?AV?$basic_string@_WU?$char_traits@_W@std@@V?$allocator@_W@2@@std@@ABV?$basic_string@DU?$char_traits@D@std@@V?$allocator@D@2@@2@@Z 10b25a80 f   GString.obj
 0001:00024c80       ??A?$basic_string@DU?$char_traits@D@std@@V?$allocator@D@2@@std@@QAEAADI@Z 10b25c80 f i GString.obj
 0001:00024d20       ?find_first_not_of@?$basic_string@DU?$char_traits@D@std@@V?$allocator@D@2@@std@@QBEIPBDI@Z 10b25d20 f i GString.obj
 0001:00024d80       ??0?$basic_string@_WU?$char_traits@_W@std@@V?$allocator@_W@2@@std@@QAE@PB_W@Z 10b25d80 f i GString.obj
 0001:00024e10       ??A?$basic_string@_WU?$char_traits@_W@std@@V?$allocator@_W@2@@std@@QAEAA_WI@Z 10b25e10 f i GString.obj
 0001:00024eb0       ?find_first_not_of@?$basic_string@_WU?$char_traits@_W@std@@V?$allocator@_W@2@@std@@QBEIPB_WI@Z 10b25eb0 f i GString.obj
 0001:00024f10       ?substr@?$basic_string@_WU?$char_traits@_W@std@@V?$allocator@_W@2@@std@@QBE?AV12@II@Z 10b25f10 f i GString.obj
 0001:00024f80       ?compare@?$basic_string@_WU?$char_traits@_W@std@@V?$allocator@_W@2@@std@@QBEHABV12@@Z 10b25f80 f i GString.obj
 0001:00024fd0       ?find_first_not_of@?$basic_string@DU?$char_traits@D@std@@V?$allocator@D@2@@std@@QBEIPBDII@Z 10b25fd0 f i GString.obj
 0001:00025090       ??0?$basic_string@_WU?$char_traits@_W@std@@V?$allocator@_W@2@@std@@QAE@ABV01@IIABV?$allocator@_W@1@@Z 10b26090 f i GString.obj
 0001:00025140       ?assign@?$basic_string@_WU?$char_traits@_W@std@@V?$allocator@_W@2@@std@@QAEAAV12@PB_W@Z 10b26140 f i GString.obj
 0001:00025190       ?find_first_not_of@?$basic_string@_WU?$char_traits@_W@std@@V?$allocator@_W@2@@std@@QBEIPB_WII@Z 10b26190 f i GString.obj
 0001:00025250       ?compare@?$basic_string@_WU?$char_traits@_W@std@@V?$allocator@_W@2@@std@@QBEHIIPB_WI@Z 10b26250 f i GString.obj
 0001:00025340       ?get_allocator@?$basic_string@_WU?$char_traits@_W@std@@V?$allocator@_W@2@@std@@QBE?AV?$allocator@_W@2@XZ 10b26340 f i GString.obj
 0001:00025340       ?get_allocator@?$basic_string@DU?$char_traits@D@std@@V?$allocator@D@2@@std@@QBE?AV?$allocator@D@2@XZ 10b26340 f i ErrorLog.obj
 0001:00025370       ??$MIN@I@@YAIABI0@Z        10b26370 f i GString.obj
 0001:000253a0       ?compare@?$char_traits@_W@std@@SAHPB_W0I@Z 10b263a0 f i GString.obj
 0001:000253c0       _wmemcmp                   10b263c0 f i GString.obj
 0001:00025420       ?length@?$char_traits@_W@std@@SAIPB_W@Z 10b26420 f i GString.obj
 0001:00025440       ?find@?$char_traits@_W@std@@SAPB_WPB_WIAB_W@Z 10b26440 f i GString.obj
 0001:00025470       _wmemchr                   10b26470 f i GString.obj
 0001:000254b0       ?compare@?$basic_string@DU?$char_traits@D@std@@V?$allocator@D@2@@std@@QBEHABV12@@Z 10b264b0 f i GString.obj
 0001:00025500       ?compare@?$basic_string@DU?$char_traits@D@std@@V?$allocator@D@2@@std@@QBEHIIPBDI@Z 10b26500 f i GString.obj
 0001:000255e0       ??0_Init_locks@std@@QAE@XZ 10b265e0 f   libcpmtd:xlock.obj
 0001:00025630       ??1_Init_locks@std@@QAE@XZ 10b26630 f   libcpmtd:xlock.obj
 0001:00025680       ??0_Lockit@std@@QAE@H@Z    10b26680 f   libcpmtd:xlock.obj
 0001:000256c0       ??1_Lockit@std@@QAE@XZ     10b266c0 f   libcpmtd:xlock.obj
 0001:000256f0       ?_Xlen@_String_base@std@@SAXXZ 10b266f0 f   libcpmtd:string.obj
 0001:00025770       ?_Xran@_String_base@std@@SAXXZ 10b26770 f   libcpmtd:string.obj
 0001:000257f0       ??0out_of_range@std@@QAE@ABV?$basic_string@DU?$char_traits@D@std@@V?$allocator@D@2@@1@@Z 10b267f0 f i libcpmtd:string.obj
 0001:00025820       ??1out_of_range@std@@UAE@XZ 10b26820 f i libcpmtd:string.obj
 0001:00025840       ??_Eout_of_range@std@@UAEPAXI@Z 10b26840 f i libcpmtd:string.obj
 0001:00025840       ??_Gout_of_range@std@@UAEPAXI@Z 10b26840 f i libcpmtd:string.obj
 0001:00025870       ??0out_of_range@std@@QAE@ABV01@@Z 10b26870 f i libcpmtd:string.obj
 0001:000258a0       ?_Debug_message@std@@YAXPB_W0I@Z 10b268a0 f   libcpmtd:stdthrow.obj
 0001:000258d0       ??_U@YAPAXI@Z              10b268d0 f   libcpmtd:newaop.obj
 0001:000258f0       ??0bad_alloc@std@@QAE@XZ   10b268f0 f i libcpmtd:xdebug.obj
 0001:00025920       __Mtxinit                  10b26920 f   libcpmtd:xmtx.obj
 0001:00025940       __Mtxdst                   10b26940 f   libcpmtd:xmtx.obj
 0001:00025960       __Mtxlock                  10b26960 f   libcpmtd:xmtx.obj
 0001:00025980       __Mtxunlock                10b26980 f   libcpmtd:xmtx.obj
 0001:000259a0       _sprintf_s                 10b269a0 f   LIBCMTD:sprintf.obj
 0001:000259d0       __snprintf_s               10b269d0 f   LIBCMTD:sprintf.obj
 0001:00025a00       _memset                    10b26a00 f   LIBCMTD:memset.obj
 0001:00025a80       ?_JumpToContinuation@@YGXPAXPAUEHRegistrationNode@@@Z 10b26a80 f   LIBCMTD:_trnsctrl_.obj
 0001:00025ac0       ?_CallMemberFunction0@@YGXPAX0@Z 10b26ac0 f   LIBCMTD:_trnsctrl_.obj
 0001:00025ac0       ?_CallMemberFunction2@@YGXPAX00H@Z 10b26ac0 f   LIBCMTD:_trnsctrl_.obj
 0001:00025ac0       ?_CallMemberFunction1@@YGXPAX00@Z 10b26ac0 f   LIBCMTD:_trnsctrl_.obj
 0001:00025ad0       ?_UnwindNestedFrames@@YGXPAUEHRegistrationNode@@PAUEHExceptionRecord@@@Z 10b26ad0 f   LIBCMTD:_trnsctrl_.obj
 0001:00025b30       ___CxxFrameHandler3        10b26b30 f   LIBCMTD:_trnsctrl_.obj
 0001:00025b70       ?_CallCatchBlock2@@YAPAXPAUEHRegistrationNode@@PBU_s_FuncInfo@@PAXHK@Z 10b26b70 f   LIBCMTD:_trnsctrl_.obj
 0001:00025c30       ?_CallSETranslator@@YAHPAUEHExceptionRecord@@PAUEHRegistrationNode@@PAX2PBU_s_FuncInfo@@H1@Z 10b26c30 f   LIBCMTD:_trnsctrl_.obj
 0001:00025dd0       ?_GetRangeOfTrysToCheck@@YAPBU_s_TryBlockMapEntry@@PBU_s_FuncInfo@@HHPAI1@Z 10b26dd0 f   LIBCMTD:_trnsctrl_.obj
 0001:00025e50       __CreateFrameInfo          10b26e50 f   LIBCMTD:_trnsctrl_.obj
 0001:00025e80       __IsExceptionObjectToBeDestroyed 10b26e80 f   LIBCMTD:_trnsctrl_.obj
 0001:00025eb0       __FindAndUnlinkFrame       10b26eb0 f   LIBCMTD:_trnsctrl_.obj
 0001:00025f10       @__security_check_cookie@4 10b26f10 f   LIBCMTD:secchk.obj
 0001:00025f20       __RTC_CheckEsp             10b26f20 f   LIBCMTD:_stack_.obj
 0001:00025f50       @_RTC_CheckStackVars@8     10b26f50 f   LIBCMTD:_stack_.obj
 0001:00025fb0       @_RTC_AllocaHelper@12      10b26fb0 f   LIBCMTD:_stack_.obj
 0001:00025ff0       @_RTC_CheckStackVars2@12   10b26ff0 f   LIBCMTD:_stack_.obj
 0001:000260d0       _fclose                    10b270d0 f   LIBCMTD:fclose.obj
 0001:000261e0       __fclose_nolock            10b271e0 f   LIBCMTD:fclose.obj
 0001:000262e0       _fprintf                   10b272e0 f   LIBCMTD:fprintf.obj
 0001:00026580       __fsopen                   10b27580 f   LIBCMTD:fopen.obj
 0001:00026790       _fopen_s                   10b27790 f   LIBCMTD:fopen.obj
 0001:00026830       __vsnprintf_helper         10b27830 f   LIBCMTD:vsnprnc.obj
 0001:00026a00       __vsprintf_s_l             10b27a00 f   LIBCMTD:vsnprnc.obj
 0001:00026c70       __vsnprintf_s_l            10b27c70 f   LIBCMTD:vsnprnc.obj
 0001:00027010       __vsnprintf_s              10b28010 f   LIBCMTD:vsnprnc.obj
 0001:00027040       _atol                      10b28040 f   LIBCMTD:atox.obj
 0001:00027060       _atoi                      10b28060 f   LIBCMTD:atox.obj
 0001:00027080       _memcmp                    10b28080 f   LIBCMTD:memcmp.obj
 0001:00027af0       _strlen                    10b28af0 f   LIBCMTD:strlen.obj
 0001:00027b80       __CxxThrowException@8      10b28b80 f   LIBCMTD:throw.obj
 0001:00027be0       ??3@YAXPAX@Z               10b28be0 f   LIBCMTD:dbgdel.obj
 0001:00027cd0       ??2@YAPAXI@Z               10b28cd0 f   LIBCMTD:new.obj
 0001:00027d50       ??1type_info@@UAE@XZ       10b28d50 f   LIBCMTD:typinfo.obj
 0001:00027d80       ??_Etype_info@@UAEPAXI@Z   10b28d80 f i LIBCMTD:typinfo.obj
 0001:00027d80       ??_Gtype_info@@UAEPAXI@Z   10b28d80 f i LIBCMTD:typinfo.obj
 0001:00027db0       ??8type_info@@QBE_NABV0@@Z 10b28db0 f   LIBCMTD:typinfo.obj
 0001:00027de0       ??0exception@std@@QAE@XZ   10b28de0 f   LIBCMTD:stdexcpt.obj
 0001:00027e10       ??_Eexception@std@@UAEPAXI@Z 10b28e10 f i LIBCMTD:stdexcpt.obj
 0001:00027e10       ??_Gexception@std@@UAEPAXI@Z 10b28e10 f i LIBCMTD:stdexcpt.obj
 0001:00027e40       ??0exception@std@@QAE@ABQBD@Z 10b28e40 f   LIBCMTD:stdexcpt.obj
 0001:00027ed0       ??0exception@std@@QAE@ABQBDH@Z 10b28ed0 f   LIBCMTD:stdexcpt.obj
 0001:00027f00       ??0exception@std@@QAE@ABV01@@Z 10b28f00 f   LIBCMTD:stdexcpt.obj
 0001:00027fa0       ??1exception@std@@UAE@XZ   10b28fa0 f   LIBCMTD:stdexcpt.obj
 0001:00027fd0       ?what@exception@std@@UBEPBDXZ 10b28fd0 f   LIBCMTD:stdexcpt.obj
 0001:00028000       _memcpy_s                  10b29000 f   LIBCMTD:memcpy_s.obj
 0001:00028190       _memmove_s                 10b29190 f   LIBCMTD:memmove_s.obj
 0001:000282f0       __onexit                   10b292f0 f   LIBCMTD:onexit.obj
 0001:000284c0       _atexit                    10b294c0 f   LIBCMTD:onexit.obj
 0001:000284e0       ___onexitinit              10b294e0 f   LIBCMTD:onexit.obj
 0001:00028540       __mbsstr_l                 10b29540 f   LIBCMTD:mbsstr.obj
 0001:00028790       ??0_LocaleUpdate@@QAE@PAUlocaleinfo_struct@@@Z 10b29790 f i LIBCMTD:mbsstr.obj
 0001:00028870       ??1_LocaleUpdate@@QAE@XZ   10b29870 f i LIBCMTD:mbsstr.obj
 0001:000288a0       ?GetLocaleT@_LocaleUpdate@@QAEPAUlocaleinfo_struct@@XZ 10b298a0 f i LIBCMTD:mbsstr.obj
 0001:000288b0       __mbsstr                   10b298b0 f   LIBCMTD:mbsstr.obj
 0001:000288d0       _strcpy_s                  10b298d0 f   LIBCMTD:strcpy_s.obj
 0001:00028bb0       __purecall                 10b29bb0 f   LIBCMTD:purevirt.obj
 0001:00028bf0       _printf                    10b29bf0 f   LIBCMTD:printf.obj
 0001:00028d30       __get_printf_count_output  10b29d30 f   LIBCMTD:printf.obj
 0001:00028d50       __beginthreadex            10b29d50 f   LIBCMTD:threadex.obj
 0001:00028ff0       __endthreadex              10b29ff0 f   LIBCMTD:threadex.obj
 0001:00029040       _memchr                    10b2a040 f   LIBCMTD:memchr.obj
 0001:000290f0       __initp_misc_invarg        10b2a0f0 f   LIBCMTD:invarg.obj
 0001:00029100       __invalid_parameter        10b2a100 f   LIBCMTD:invarg.obj
 0001:00029170       __invoke_watson            10b2a170 f   LIBCMTD:invarg.obj
 0001:000292c0       __CrtDbgReportW            10b2a2c0 f   LIBCMTD:dbgrptw.obj
 0001:00029300       __CrtDbgReportWV           10b2a300 f i LIBCMTD:dbgrptw.obj
 0001:00029330       ___crtMessageWindowW       10b2a330 f   LIBCMTD:dbgrptw.obj
 0001:00029730       __invoke_watson_if_error   10b2a730 f i LIBCMTD:dbgrptw.obj
 0001:00029760       __invoke_watson_if_oneof   10b2a760 f i LIBCMTD:dbgrptw.obj
 0001:000297b0       _memcpy                    10b2a7b0 f   LIBCMTD:memcpy.obj
 0001:00029b20       ??_V@YAXPAX@Z              10b2ab20 f   LIBCMTD:delete2.obj
 0001:00029b40       _strcmp                    10b2ab40 f   LIBCMTD:strcmp.obj
 0001:00029bd0       _free                      10b2abd0 f   LIBCMTD:dbgfree.obj
 0001:00029bf0       __fpmath                   10b2abf0 f   LIBCMTD:_fpinit_.obj
 0001:00029c20       __cfltcvt_init             10b2ac20 f   LIBCMTD:_fpinit_.obj
 0001:00029c90       _malloc                    10b2ac90 f   LIBCMTD:dbgmalloc.obj
 0001:00029cc0       _strncmp                   10b2acc0 f   LIBCMTD:strncmp.obj
 0001:00029e40       __alloca_probe_16          10b2ae40 f   LIBCMTD:alloca16.obj
 0001:00029e56       __alloca_probe_8           10b2ae56     LIBCMTD:alloca16.obj
 0001:00029e70       __vsnprintf_l              10b2ae70 f   LIBCMTD:vsnprint.obj
 0001:0002a010       __vsnprintf                10b2b010 f   LIBCMTD:vsnprint.obj
 0001:0002a040       __vsnwprintf_l             10b2b040 f   LIBCMTD:vsnwprnt.obj
 0001:0002a240       __vsnwprintf               10b2b240 f   LIBCMTD:vsnwprnt.obj
 0001:0002a270       __tolower_l                10b2b270 f   LIBCMTD:tolower.obj
 0001:0002a450       _tolower                   10b2b450 f   LIBCMTD:tolower.obj
 0001:0002a4a0       __toupper_l                10b2b4a0 f   LIBCMTD:toupper.obj
 0001:0002a680       _toupper                   10b2b680 f   LIBCMTD:toupper.obj
 0001:0002a6d0       __isdigit_l                10b2b6d0 f i LIBCMTD:_ctype.obj
 0001:0002a750       _isdigit                   10b2b750 f i LIBCMTD:_ctype.obj
 0001:0002a780       __isspace_l                10b2b780 f i LIBCMTD:_ctype.obj
 0001:0002a800       _isspace                   10b2b800 f i LIBCMTD:_ctype.obj
 0001:0002a830       __towlower_l               10b2b830 f   LIBCMTD:towlower.obj
 0001:0002a990       _towlower                  10b2b990 f   LIBCMTD:towlower.obj
 0001:0002a9b0       __towupper_l               10b2b9b0 f   LIBCMTD:towupper.obj
 0001:0002ab10       _towupper                  10b2bb10 f   LIBCMTD:towupper.obj
 0001:0002ab30       _wcslen                    10b2bb30 f   LIBCMTD:wcslen.obj
 0001:0002ab60       __CRT_INIT@12              10b2bb60 f   LIBCMTD:dllcrt0.obj
 0001:0002ad30       __DllMainCRTStartup@12     10b2bd30 f   LIBCMTD:dllcrt0.obj
 0001:0002af20       _abort                     10b2bf20 f   LIBCMTD:abort.obj
 0001:0002b060       __set_abort_behavior       10b2c060 f   LIBCMTD:abort.obj
 0001:0002b090       ___iob_func                10b2c090 f   LIBCMTD:_file.obj
 0001:0002b0a0       ___initstdio               10b2c0a0 f   LIBCMTD:_file.obj
 0001:0002b1f0       ___endstdio                10b2c1f0 f   LIBCMTD:_file.obj
 0001:0002b220       __lock_file                10b2c220 f   LIBCMTD:_file.obj
 0001:0002b280       __lock_file2               10b2c280 f   LIBCMTD:_file.obj
 0001:0002b2c0       __unlock_file              10b2c2c0 f   LIBCMTD:_file.obj
 0001:0002b320       __unlock_file2             10b2c320 f   LIBCMTD:_file.obj
 0001:0002b360       __fflush_nolock            10b2c360 f   LIBCMTD:fflush.obj
 0001:0002b3c0       __flush                    10b2c3c0 f   LIBCMTD:fflush.obj
 0001:0002b480       __flushall                 10b2c480 f   LIBCMTD:fflush.obj
 0001:0002b650       __malloc_dbg               10b2c650 f   LIBCMTD:dbgheap.obj
 0001:0002b680       __nh_malloc_dbg            10b2c680 f   LIBCMTD:dbgheap.obj
 0001:0002bb00       __calloc_dbg_impl          10b2cb00 f   LIBCMTD:dbgheap.obj
 0001:0002bbd0       __calloc_dbg               10b2cbd0 f   LIBCMTD:dbgheap.obj
 0001:0002bc30       __realloc_dbg              10b2cc30 f   LIBCMTD:dbgheap.obj
 0001:0002c2d0       __free_dbg                 10b2d2d0 f   LIBCMTD:dbgheap.obj
 0001:0002c350       __free_dbg_nolock          10b2d350 f   LIBCMTD:dbgheap.obj
 0001:0002c830       __msize_dbg                10b2d830 f   LIBCMTD:dbgheap.obj
 0001:0002ca70       __CrtCheckMemory           10b2da70 f   LIBCMTD:dbgheap.obj
 0001:0002ced0       __CrtSetDbgFlag            10b2ded0 f   LIBCMTD:dbgheap.obj
 0001:0002d020       __CrtIsValidPointer        10b2e020 f   LIBCMTD:dbgheap.obj
 0001:0002d030       __CrtIsValidHeapPointer    10b2e030 f   LIBCMTD:dbgheap.obj
 0001:0002d0d0       __CrtMemCheckpoint         10b2e0d0 f   LIBCMTD:dbgheap.obj
 0001:0002d2f0       __CrtMemDumpAllObjectsSince 10b2e2f0 f   LIBCMTD:dbgheap.obj
 0001:0002d7e0       __CrtDumpMemoryLeaks       10b2e7e0 f   LIBCMTD:dbgheap.obj
 0001:0002d850       __CrtSetCheckCount         10b2e850 f   LIBCMTD:dbgheap.obj
 0001:0002d870       __CrtGetCheckCount         10b2e870 f   LIBCMTD:dbgheap.obj
 0001:0002d880       __flsbuf                   10b2e880 f   LIBCMTD:_flsbuf.obj
 0001:0002db40       __output_l                 10b2eb40 f   LIBCMTD:output.obj
 0001:0002ef70       _get_int_arg               10b2ff70 f i LIBCMTD:output.obj
 0001:0002ef90       _get_int64_arg             10b2ff90 f i LIBCMTD:output.obj
 0001:0002efb0       _get_short_arg             10b2ffb0 f i LIBCMTD:output.obj
 0001:0002efd0       __dosmaperr                10b2ffd0 f   LIBCMTD:dosmap.obj
 0001:0002f000       __get_errno_from_oserr     10b30000 f   LIBCMTD:dosmap.obj
 0001:0002f080       __errno                    10b30080 f   LIBCMTD:dosmap.obj
 0001:0002f0b0       ___doserrno                10b300b0 f   LIBCMTD:dosmap.obj
 0001:0002f0e0       __VEC_memzero              10b300e0 f   LIBCMTD:p4_memset.obj
 0001:0002f1d0       __get_sse2_info            10b301d0 f   LIBCMTD:cpu_disp.obj
 0001:0002f300       ___sse2_available_init     10b30300 f   LIBCMTD:cpu_disp.obj
 0001:0002f320       ___InternalCxxFrameHandler 10b30320 f   LIBCMTD:frame.obj
 0001:0002f920       ??0bad_exception@std@@QAE@PBD@Z 10b30920 f i LIBCMTD:frame.obj
 0001:0002f950       ??1bad_exception@std@@UAE@XZ 10b30950 f i LIBCMTD:frame.obj
 0001:0002f970       ??_Ebad_exception@std@@UAEPAXI@Z 10b30970 f i LIBCMTD:frame.obj
 0001:0002f970       ??_Gbad_exception@std@@UAEPAXI@Z 10b30970 f i LIBCMTD:frame.obj
 0001:0002f9a0       ??0bad_exception@std@@QAE@ABV01@@Z 10b309a0 f i LIBCMTD:frame.obj
 0001:0002fb50       ___TypeMatch               10b30b50 f   LIBCMTD:frame.obj
 0001:0002fc00       ___FrameUnwindFilter       10b30c00 f   LIBCMTD:frame.obj
 0001:0002fc80       ___FrameUnwindToState      10b30c80 f   LIBCMTD:frame.obj
 0001:000301c0       ___BuildCatchObjectHelper  10b311c0 f   LIBCMTD:frame.obj
 0001:00030430       ___BuildCatchObject        10b31430 f   LIBCMTD:frame.obj
 0001:00030540       ___DestructExceptionObject 10b31540 f   LIBCMTD:frame.obj
 0001:000305f0       ___AdjustPointer           10b315f0 f   LIBCMTD:frame.obj
 0001:000307e0       __CallSettingFrame@12      10b317e0 f   LIBCMTD:lowhelpr.obj
 0001:00030807       __NLG_Return               10b31807     LIBCMTD:lowhelpr.obj
 0001:00030830       __encode_pointer           10b31830 f   LIBCMTD:tidtable.obj
 0001:000308d0       __crt_wait_module_handle   10b318d0 f i LIBCMTD:tidtable.obj
 0001:00030900       __encoded_null             10b31900 f   LIBCMTD:tidtable.obj
 0001:00030920       __decode_pointer           10b31920 f   LIBCMTD:tidtable.obj
 0001:000309c0       ___crtTlsAlloc@4           10b319c0 f   LIBCMTD:tidtable.obj
 0001:000309d0       ___fls_getvalue@4          10b319d0 f   LIBCMTD:tidtable.obj
 0001:000309f0       ___get_flsindex            10b319f0 f   LIBCMTD:tidtable.obj
 0001:00030a00       ___set_flsgetvalue         10b31a00 f   LIBCMTD:tidtable.obj
 0001:00030a50       ___fls_setvalue@8          10b31a50 f   LIBCMTD:tidtable.obj
 0001:00030a80       __mtinit                   10b31a80 f   LIBCMTD:tidtable.obj
 0001:00030c90       __mtterm                   10b31c90 f   LIBCMTD:tidtable.obj
 0001:00030cf0       __initptd                  10b31cf0 f   LIBCMTD:tidtable.obj
 0001:00030e50       __getptd_noexit            10b31e50 f   LIBCMTD:tidtable.obj
 0001:00030f10       __getptd                   10b31f10 f   LIBCMTD:tidtable.obj
 0001:00030f40       __freefls@4                10b31f40 f   LIBCMTD:tidtable.obj
 0001:00031150       __freeptd                  10b32150 f   LIBCMTD:tidtable.obj
 0001:000311d0       __initp_eh_hooks           10b321d0 f   LIBCMTD:hooks.obj
 0001:000311f0       ?terminate@@YAXXZ          10b321f0 f   LIBCMTD:hooks.obj
 0001:00031270       ?unexpected@@YAXXZ         10b32270 f   LIBCMTD:hooks.obj
 0001:000312a0       ?_inconsistency@@YAXXZ     10b322a0 f   LIBCMTD:hooks.obj
 0001:00031330       ___report_gsfailure        10b32330 f   LIBCMTD:gs_report.obj
 0001:00031440       _DebuggerKnownHandle       10b32440 f   LIBCMTD:_error_.obj
 0001:00031500       ?_RTC_Failure@@YAXPAXH@Z   10b32500 f   LIBCMTD:_error_.obj
 0001:00031810       ?_RTC_StackFailure@@YAXPAXPBD@Z 10b32810 f   LIBCMTD:_error_.obj
 0001:00031910       ?_RTC_AllocaFailure@@YAXPAXPAU_RTC_ALLOCA_NODE@@H@Z 10b32910 f   LIBCMTD:_error_.obj
 0001:00031ac0       ?_RTC_GetErrorFunc@@YAP6AHHPBDH00ZZPBX@Z 10b32ac0 f   LIBCMTD:_userapi_.obj
 0001:00031ad0       ?_RTC_GetErrorFuncW@@YAP6AHHPB_WH00ZZPBX@Z 10b32ad0 f   LIBCMTD:_userapi_.obj
 0001:00031ae0       __except_handler4          10b32ae0 f   LIBCMTD:chandler4.obj
 0001:00031d00       __close                    10b32d00 f   LIBCMTD:close.obj
 0001:00031f10       __close_nolock             10b32f10 f   LIBCMTD:close.obj
 0001:00031fe0       __fileno                   10b32fe0 f   LIBCMTD:fileno.obj
 0001:00032060       __freebuf                  10b33060 f   LIBCMTD:_freebuf.obj
 0001:000320f0       __stbuf                    10b330f0 f   LIBCMTD:_sftbuf.obj
 0001:00032250       __ftbuf                    10b33250 f   LIBCMTD:_sftbuf.obj
 0001:000322e0       __ioinit                   10b332e0 f   LIBCMTD:ioinit.obj
 0001:00032780       __ioterm                   10b33780 f   LIBCMTD:ioinit.obj
 0001:00032820       __openfile                 10b33820 f   LIBCMTD:_open.obj
 0001:00032fe0       __getstream                10b33fe0 f   LIBCMTD:stream.obj
 0001:00033240       __local_unwind4            10b34240 f   LIBCMTD:exsup4.obj
 0001:00033316       __seh_longjmp_unwind4@4    10b34316 f   LIBCMTD:exsup4.obj
 0001:00033332       @_EH4_CallFilterFunc@8     10b34332 f   LIBCMTD:exsup4.obj
 0001:00033349       @_EH4_TransferToHandler@8  10b34349 f   LIBCMTD:exsup4.obj
 0001:00033362       @_EH4_GlobalUnwind@4       10b34362 f   LIBCMTD:exsup4.obj
 0001:0003337c       @_EH4_LocalUnwind@16       10b3437c f   LIBCMTD:exsup4.obj
 0001:000333a0       __output_s_l               10b343a0 f   LIBCMTD:outputs.obj
 0001:000347c0       _strtol                    10b357c0 f   LIBCMTD:strtol.obj
 0001:00034cf0       __mtinitlocks              10b35cf0 f   LIBCMTD:mlock.obj
 0001:00034d80       __mtdeletelocks            10b35d80 f   LIBCMTD:mlock.obj
 0001:00034e40       __mtinitlocknum            10b35e40 f   LIBCMTD:mlock.obj
 0001:00034f90       __lock                     10b35f90 f   LIBCMTD:mlock.obj
 0001:00034fd0       __unlock                   10b35fd0 f   LIBCMTD:mlock.obj
 0001:00034ff0       __initp_heap_handler       10b35ff0 f   LIBCMTD:handler.obj
 0001:00035000       __callnewh                 10b36000 f   LIBCMTD:handler.obj
 0001:00035040       ?_Type_info_dtor@type_info@@CAXPAV1@@Z 10b36040 f   LIBCMTD:typname.obj
 0001:00035150       _memmove                   10b36150 f   LIBCMTD:memmove.obj
 0001:000354c0       __crt_waiting_on_module_handle 10b364c0 f   LIBCMTD:crt0dat.obj
 0001:00035520       __cinit                    10b36520 f   LIBCMTD:crt0dat.obj
 0001:000355c0       __exit                     10b365c0 f   LIBCMTD:crt0dat.obj
 0001:000355e0       __cexit                    10b365e0 f   LIBCMTD:crt0dat.obj
 0001:00035600       __amsg_exit                10b36600 f   LIBCMTD:crt0dat.obj
 0001:00035640       ___freeCrtMemory           10b36640 f   LIBCMTD:crt0dat.obj
 0001:00035990       ___crtCorExitProcess       10b36990 f   LIBCMTD:crt0dat.obj
 0001:000359d0       ___crtExitProcess          10b369d0 f   LIBCMTD:crt0dat.obj
 0001:000359f0       __lockexit                 10b369f0 f   LIBCMTD:crt0dat.obj
 0001:00035a10       __unlockexit               10b36a10 f   LIBCMTD:crt0dat.obj
 0001:00035a30       __init_pointers            10b36a30 f   LIBCMTD:crt0dat.obj
 0001:00035af0       __initterm_e               10b36af0 f   LIBCMTD:crt0dat.obj
 0001:00035b30       _strstr                    10b36b30 f   LIBCMTD:strstr.obj
 0001:00035bc0       ___updatetmbcinfo          10b36bc0 f   LIBCMTD:mbctype.obj
 0001:00035cd0       __setmbcp                  10b36cd0 f   LIBCMTD:mbctype.obj
 0001:00036080       __setmbcp_nolock           10b37080 f   LIBCMTD:mbctype.obj
 0001:00036870       ___initmbctable            10b37870 f   LIBCMTD:mbctype.obj
 0001:000368a0       ___freetlocinfo            10b378a0 f   LIBCMTD:setlocal.obj
 0001:00036b80       ___addlocaleref            10b37b80 f   LIBCMTD:setlocal.obj
 0001:00036ca0       ___removelocaleref         10b37ca0 f   LIBCMTD:setlocal.obj
 0001:00036dd0       ___updatetlocinfo          10b37dd0 f   LIBCMTD:setlocal.obj
 0001:00036f20       __locterm                  10b37f20 f   LIBCMTD:setlocal.obj
 0001:00036fc0       __FF_MSGBANNER             10b37fc0 f   LIBCMTD:crt0msg.obj
 0001:00037010       __NMSG_WRITE               10b38010 f   LIBCMTD:crt0msg.obj
 0001:000372b0       __initp_misc_purevirt      10b382b0 f   LIBCMTD:inithelp.obj
 0001:000372c0       __ValidateImageBase        10b382c0 f   LIBCMTD:pesect.obj
 0001:00037320       __FindPESection            10b38320 f   LIBCMTD:pesect.obj
 0001:000373a0       __IsNonwritableInCurrentImage 10b383a0 f   LIBCMTD:pesect.obj
 0001:000374c0       __initp_misc_winxfltr      10b384c0 f   LIBCMTD:winxfltr.obj
 0001:000374c0       __fpclear                  10b384c0 f   LIBCMTD:_fpinit_.obj
 0001:000374d0       ___CppXcptFilter           10b384d0 f   LIBCMTD:winxfltr.obj
 0001:00037500       __XcptFilter               10b38500 f   LIBCMTD:winxfltr.obj
 0001:00037730       __CrtDefaultAllocHook      10b38730 f   LIBCMTD:dbghook.obj
 0001:00037740       __crt_debugger_hook        10b38740 f   LIBCMTD:dbghook.obj
 0001:00037760       __CrtDbgBreak              10b38760 f   LIBCMTD:dbgrptt.obj
 0001:00037770       __VCrtDbgReportA           10b38770 f   LIBCMTD:dbgrptt.obj
 0001:00037fa0       __VCrtDbgReportW           10b38fa0 f   LIBCMTD:dbgrptt.obj
 0001:000388d0       __initp_misc_winsig        10b398d0 f   LIBCMTD:winsig.obj
 0001:00038900       _raise                     10b39900 f   LIBCMTD:winsig.obj
 0001:00038c70       ___get_sigabrt             10b39c70 f   LIBCMTD:winsig.obj
 0001:00038c90       ___crtMessageBoxW          10b39c90 f   LIBCMTD:crtmboxw.obj
 0001:00038eb0       __snwprintf_s              10b39eb0 f   LIBCMTD:swprintf.obj
 0001:00038ee0       _wcscpy_s                  10b39ee0 f   LIBCMTD:wcscpy_s.obj
 0001:000391c0       __chkstk                   10b3a1c0 f   LIBCMTD:chkstk.obj
 0001:000391c0       __alloca_probe             10b3a1c0     LIBCMTD:chkstk.obj
 0001:000391f0       __VEC_memcpy               10b3a1f0 f   LIBCMTD:p4_memcpy.obj
 0001:00039370       __setdefaultprecision      10b3a370 f   LIBCMTD:fp8.obj
 0001:000393b0       __ms_p5_test_fdiv          10b3a3b0 f   LIBCMTD:_testfdiv_.obj
 0001:00039400       __ms_p5_mp_test_fdiv       10b3a400 f   LIBCMTD:_testfdiv_.obj
 0001:00039450       __forcdecpt                10b3a450 f   LIBCMTD:cvt.obj
 0001:00039470       __forcdecpt_l              10b3a470 f   LIBCMTD:cvt.obj
 0001:00039530       __cropzeros                10b3a530 f   LIBCMTD:cvt.obj
 0001:00039550       __cropzeros_l              10b3a550 f   LIBCMTD:cvt.obj
 0001:00039660       __positive                 10b3a660 f   LIBCMTD:cvt.obj
 0001:00039690       __fassign_l                10b3a690 f   LIBCMTD:cvt.obj
 0001:000396f0       __fassign                  10b3a6f0 f   LIBCMTD:cvt.obj
 0001:00039710       __cftoe_l                  10b3a710 f   LIBCMTD:cvt.obj
 0001:00039c60       __cftoe                    10b3ac60 f   LIBCMTD:cvt.obj
 0001:00039c90       __cftoa_l                  10b3ac90 f   LIBCMTD:cvt.obj
 0001:0003a470       ?strrchr@@YAPADPADH@Z      10b3b470 f i LIBCMTD:cvt.obj
 0001:0003a490       __cftof_l                  10b3b490 f   LIBCMTD:cvt.obj
 0001:0003a8a0       __cftog_l                  10b3b8a0 f   LIBCMTD:cvt.obj
 0001:0003aad0       __cfltcvt_l                10b3bad0 f   LIBCMTD:cvt.obj
 0001:0003ab90       __cfltcvt                  10b3bb90 f   LIBCMTD:cvt.obj
 0001:0003abf0       __initp_misc_cfltcvt_tab   10b3bbf0 f   LIBCMTD:cmiscdat.obj
 0001:0003ac40       __woutput_l                10b3bc40 f   LIBCMTD:woutput.obj
 0001:0003bd70       ___crtLCMapStringA         10b3cd70 f   LIBCMTD:a_map.obj
 0001:0003c2d0       __MarkAllocaS              10b3d2d0 f i LIBCMTD:a_map.obj
 0001:0003c300       __freea                    10b3d300 f i LIBCMTD:a_map.obj
 0001:0003c3c0       __isleadbyte_l             10b3d3c0 f i LIBCMTD:_wctype.obj
 0001:0003c410       _isleadbyte                10b3d410 f i LIBCMTD:_wctype.obj
 0001:0003c430       __chvalidator              10b3d430 f   LIBCMTD:isctype.obj
 0001:0003c480       __chvalidator_l            10b3d480 f   LIBCMTD:isctype.obj
 0001:0003c530       __isctype_l                10b3d530 f   LIBCMTD:isctype.obj
 0001:0003c650       ___crtLCMapStringW         10b3d650 f   LIBCMTD:w_map.obj
 0001:0003c740       __iswctype_l               10b3d740 f   LIBCMTD:iswctype.obj
 0001:0003c7f0       __setenvp                  10b3d7f0 f   LIBCMTD:stdenvp.obj
 0001:0003c990       __setargv                  10b3d990 f   LIBCMTD:stdargv.obj
 0001:0003cab0       __set_pgmptr               10b3dab0 f i LIBCMTD:stdargv.obj
 0001:0003ce20       ___crtGetEnvironmentStringsA 10b3de20 f   LIBCMTD:a_env.obj
 0001:0003d040       __RTC_Initialize           10b3e040 f   LIBCMTD:_initsect_.obj
 0001:0003d070       __RTC_Terminate            10b3e070 f   LIBCMTD:_initsect_.obj
 0001:0003d0a0       ___heap_select             10b3e0a0 f   LIBCMTD:heapinit.obj
 0001:0003d0c0       __heap_init                10b3e0c0 f   LIBCMTD:heapinit.obj
 0001:0003d140       __heap_term                10b3e140 f   LIBCMTD:heapinit.obj
 0001:0003d1e0       ___security_init_cookie    10b3e1e0 f   LIBCMTD:gs_support.obj
 0001:0003d2c0       __fcloseall                10b3e2c0 f   LIBCMTD:closeall.obj
 0001:0003d3f0       __commit                   10b3e3f0 f   LIBCMTD:commit.obj
 0001:0003d610       __write                    10b3e610 f   LIBCMTD:write.obj
 0001:0003d840       __write_nolock             10b3e840 f   LIBCMTD:write.obj
 0001:0003e380       _V6_HeapAlloc              10b3f380 f   LIBCMTD:malloc.obj
 0001:0003e420       __malloc_base              10b3f420 f   LIBCMTD:malloc.obj
 0001:0003e4b0       __heap_alloc_base          10b3f4b0 f i LIBCMTD:malloc.obj
 0001:0003e570       __CrtDbgReport             10b3f570 f   LIBCMTD:dbgrpt.obj
 0001:0003e5b0       __CrtDbgReportV            10b3f5b0 f i LIBCMTD:dbgrpt.obj
 0001:0003e5e0       ___crtMessageWindowA       10b3f5e0 f   LIBCMTD:dbgrpt.obj
 0001:0003e9e0       __expand_base              10b3f9e0 f   LIBCMTD:expand.obj
 0001:0003ecb0       __realloc_base             10b3fcb0 f   LIBCMTD:realloc.obj
 0001:0003f050       __free_base                10b40050 f   LIBCMTD:free.obj
 0001:0003f180       __heapchk                  10b40180 f   LIBCMTD:heapchk.obj
 0001:0003f250       ___sbh_heap_init           10b40250 f   LIBCMTD:sbheap.obj
 0001:0003f2c0       ___sbh_find_block          10b402c0 f   LIBCMTD:sbheap.obj
 0001:0003f320       ___sbh_verify_block        10b40320 f   LIBCMTD:sbheap.obj
 0001:0003f380       ___sbh_free_block          10b40380 f   LIBCMTD:sbheap.obj
 0001:0003f940       ___sbh_alloc_block         10b40940 f   LIBCMTD:sbheap.obj
 0001:0003fe60       ___sbh_alloc_new_region    10b40e60 f   LIBCMTD:sbheap.obj
 0001:0003ff70       ___sbh_alloc_new_group     10b40f70 f   LIBCMTD:sbheap.obj
 0001:00040160       ___sbh_resize_block        10b41160 f   LIBCMTD:sbheap.obj
 0001:00040730       ___sbh_heap_check          10b41730 f   LIBCMTD:sbheap.obj
 0001:00040c20       __lseeki64                 10b41c20 f   LIBCMTD:lseeki64.obj
 0001:00040e70       __lseeki64_nolock          10b41e70 f   LIBCMTD:lseeki64.obj
 0001:00040f60       __getbuf                   10b41f60 f   LIBCMTD:_getbuf.obj
 0001:00041020       __isatty                   10b42020 f   LIBCMTD:isatty.obj
 0001:00041100       __wctomb_s_l               10b42100 f   LIBCMTD:wctomb.obj
 0001:00041400       _wctomb_s                  10b42400 f   LIBCMTD:wctomb.obj
 0001:00041430       __aulldiv                  10b42430 f   LIBCMTD:ulldiv.obj
 0001:000414a0       __aullrem                  10b424a0 f   LIBCMTD:ullrem.obj
 0001:00041520       ?_ValidateRead@@YAHPBXI@Z  10b42520 f   LIBCMTD:validate.obj
 0001:00041520       ?_ValidateWrite@@YAHPAXI@Z 10b42520 f   LIBCMTD:validate.obj
 0001:00041520       ?_ValidateExecute@@YAHP6GHXZ@Z 10b42520 f   LIBCMTD:validate.obj
 0001:00041544       __global_unwind2           10b42544 f   LIBCMTD:exsup.obj
 0001:000415a9       __local_unwind2            10b425a9 f   LIBCMTD:exsup.obj
 0001:0004162d       __abnormal_termination     10b4262d f   LIBCMTD:exsup.obj
 0001:00041650       __NLG_Notify1              10b42650 f   LIBCMTD:exsup.obj
 0001:00041659       __NLG_Notify               10b42659 f   LIBCMTD:exsup.obj
 0001:00041670       __NLG_Dispatch             10b42670     LIBCMTD:exsup.obj
 0001:00041670       __NLG_Dispatch2            10b42670     LIBCMTD:exsup.obj
 0001:00041678       __NLG_Call                 10b42678 f   LIBCMTD:exsup.obj
 0001:0004167a       __NLG_Return2              10b4267a     LIBCMTD:exsup.obj
 0001:00041680       ?_RTC_GetSrcLine@@YAHPAEPA_WKPAH1K@Z 10b42680 f   LIBCMTD:_pdblkup_.obj
 0001:00041b20       __alloc_osfhnd             10b42b20 f   LIBCMTD:osfinfo.obj
 0001:00041dd0       __set_osfhnd               10b42dd0 f   LIBCMTD:osfinfo.obj
 0001:00041ea0       __free_osfhnd              10b42ea0 f   LIBCMTD:osfinfo.obj
 0001:00041f90       __get_osfhandle            10b42f90 f   LIBCMTD:osfinfo.obj
 0001:00042100       ___lock_fhandle            10b43100 f   LIBCMTD:osfinfo.obj
 0001:00042200       __unlock_fhandle           10b43200 f   LIBCMTD:osfinfo.obj
 0001:00042230       __initp_misc_initcrit      10b43230 f   LIBCMTD:initcrit.obj
 0001:00042240       ___crtInitCritSecAndSpinCount 10b43240 f   LIBCMTD:initcrit.obj
 0001:000422f0       __sopen_helper             10b432f0 f   LIBCMTD:open.obj
 0001:00043550       __sopen_s                  10b44550 f   LIBCMTD:open.obj
 0001:00043580       __mbsnbicmp_l              10b44580 f   LIBCMTD:mbsnbicm.obj
 0001:00043a20       __mbsnbicmp                10b44a20 f   LIBCMTD:mbsnbicm.obj
 0001:00043a40       __mbsnbcmp_l               10b44a40 f   LIBCMTD:mbsnbcmp.obj
 0001:00043d20       __mbsnbcmp                 10b44d20 f   LIBCMTD:mbsnbcmp.obj
 0001:00043d40       __allmul                   10b44d40 f   LIBCMTD:llmul.obj
 0001:00043d80       __initp_misc_rand_s        10b44d80 f   LIBCMTD:rand_s.obj
 0001:00043da0       _strchr                    10b44da0 f   LIBCMTD:strchr.obj
 0001:00043da6       ___from_strstr_to_strchr   10b44da6     LIBCMTD:strchr.obj
 0001:00043e60       ___crtGetStringTypeA       10b44e60 f   LIBCMTD:a_str.obj
 0001:000440f0       ___free_lc_time            10b450f0 f   LIBCMTD:inittime.obj
 0001:00044400       ___free_lconv_num          10b45400 f   LIBCMTD:initnum.obj
 0001:00044470       ___free_lconv_mon          10b45470 f   LIBCMTD:initmon.obj
 0001:00044560       _strncpy_s                 10b45560 f   LIBCMTD:strncpy_s.obj
 0001:00044950       _strcspn                   10b45950 f   LIBCMTD:strcspn.obj
 0001:000449a0       _strpbrk                   10b459a0 f   LIBCMTD:strpbrk.obj
 0001:000449e0       _strcat_s                  10b459e0 f   LIBCMTD:strcat_s.obj
 0001:00044dc0       __set_error_mode           10b45dc0 f   LIBCMTD:errmode.obj
 0001:00044e80       ___crtMessageBoxA          10b45e80 f   LIBCMTD:crtmbox.obj
 0001:000450a0       __mbstowcs_l_helper        10b460a0 f   LIBCMTD:mbstowcs.obj
 0001:000453f0       __mbstowcs_s_l             10b463f0 f   LIBCMTD:mbstowcs.obj
 0001:00045770       _mbstowcs_s                10b46770 f   LIBCMTD:mbstowcs.obj
 0001:000457a0       __itoa_s                   10b467a0 f   LIBCMTD:xtoas.obj
 0001:00045b70       __wcstombs_l_helper        10b46b70 f   LIBCMTD:wcstombs.obj
 0001:00046060       __wcstombs_s_l             10b47060 f   LIBCMTD:wcstombs.obj
 0001:00046390       _wcstombs_s                10b47390 f   LIBCMTD:wcstombs.obj
 0001:000463c0       _wcscat_s                  10b473c0 f   LIBCMTD:wcscat_s.obj
 0001:000467b0       __vswprintf_helper         10b477b0 f   LIBCMTD:vswprnc.obj
 0001:000469e0       __vsnwprintf_s_l           10b479e0 f   LIBCMTD:vswprnc.obj
 0001:00046d90       __vsnwprintf_s             10b47d90 f   LIBCMTD:vswprnc.obj
 0001:00046dc0       __itow_s                   10b47dc0 f   LIBCMTD:xtows.obj
 0001:000471a0       __controlfp_s              10b481a0 f   LIBCMTD:_contrlfp_.obj
 0001:00047280       __atodbl_l                 10b48280 f   LIBCMTD:atodbl.obj
 0001:00047390       __atoflt_l                 10b48390 f   LIBCMTD:atodbl.obj
 0001:000474a0       __fptostr                  10b484a0 f   LIBCMTD:_fptostr.obj
 0001:00047750       __fltout2                  10b48750 f   LIBCMTD:_cfout_.obj
 0001:00047800       ___dtold                   10b48800 f   LIBCMTD:_cfout_.obj
 0001:00047960       __allrem                   10b48960 f   LIBCMTD:llrem.obj
 0001:00047a20       __alldiv                   10b48a20 f   LIBCMTD:lldiv.obj
 0001:00047ad0       __allshl                   10b48ad0 f   LIBCMTD:llshl.obj
 0001:00047af0       __aullshr                  10b48af0 f   LIBCMTD:ullshr.obj
 0001:00047b10       _strrchr                   10b48b10 f   LIBCMTD:strrchr.obj
 0001:00047b40       __fptrap                   10b48b40 f   LIBCMTD:crt0fp.obj
 0001:00047b60       __mbtowc_l                 10b48b60 f   LIBCMTD:mbtowc.obj
 0001:00047d80       _mbtowc                    10b48d80 f   LIBCMTD:mbtowc.obj
 0001:00047da0       __fputwc_nolock            10b48da0 f   LIBCMTD:fputwc.obj
 0001:00048090       ___ansicp                  10b49090 f   LIBCMTD:convrtcp.obj
 0001:000480f0       ___convertcp               10b490f0 f   LIBCMTD:convrtcp.obj
 0001:00048340       ___crtGetStringTypeW       10b49340 f   LIBCMTD:w_str.obj
 0001:000483c0       __ismbblead                10b493c0 f   LIBCMTD:ismbbyte.obj
 0001:000484b0       __putwch_nolock            10b494b0 f   LIBCMTD:putwch.obj
 0001:000485b0       __chsize_nolock            10b495b0 f   LIBCMTD:chsize.obj
 0001:00048850       __read_nolock              10b49850 f   LIBCMTD:read.obj
 0001:000497a0       __lseek_nolock             10b4a7a0 f   LIBCMTD:lseek.obj
 0001:00049880       __setmode_nolock           10b4a880 f   LIBCMTD:setmode.obj
 0001:00049af0       __get_fmode                10b4aaf0 f   LIBCMTD:setmode.obj
 0001:00049b70       __strnicmp_l               10b4ab70 f   LIBCMTD:strnicmp.obj
 0001:00049db0       __strnicmp                 10b4adb0 f   LIBCMTD:strnicmp.obj
 0001:00049f40       __woutput_s_l              10b4af40 f   LIBCMTD:woutputs.obj
 0001:0004b1e0       __control87                10b4c1e0 f i LIBCMTD:_ieee87_.obj
 0001:0004b860       __ld12tod                  10b4c860 f   LIBCMTD:_intrncvt_.obj
 0001:0004b880       __ld12cvt                  10b4c880 f i LIBCMTD:_intrncvt_.obj
 0001:0004bad0       __RoundMan                 10b4cad0 f i LIBCMTD:_intrncvt_.obj
 0001:0004bbb0       __ZeroTail                 10b4cbb0 f i LIBCMTD:_intrncvt_.obj
 0001:0004bc40       __IncMan                   10b4cc40 f i LIBCMTD:_intrncvt_.obj
 0001:0004bcf0       ___addl                    10b4ccf0 f i LIBCMTD:_intrncvt_.obj
 0001:0004bd30       __CopyMan                  10b4cd30 f i LIBCMTD:_intrncvt_.obj
 0001:0004bd80       __FillZeroMan              10b4cd80 f i LIBCMTD:_intrncvt_.obj
 0001:0004bdc0       __IsZeroMan                10b4cdc0 f i LIBCMTD:_intrncvt_.obj
 0001:0004be00       __ShrMan                   10b4ce00 f i LIBCMTD:_intrncvt_.obj
 0001:0004bef0       __ld12tof                  10b4cef0 f   LIBCMTD:_intrncvt_.obj
 0001:0004bf10       ___strgtold12_l            10b4cf10 f   LIBCMTD:_strgtold_.obj
 0001:0004c9c0       ___multtenpow12            10b4d9c0 f i LIBCMTD:_strgtold_.obj
 0001:0004caa0       ___ld12mul                 10b4daa0 f i LIBCMTD:_strgtold_.obj
 0001:0004cea0       ___shl_12                  10b4dea0 f i LIBCMTD:_strgtold_.obj
 0001:0004cf10       ___shr_12                  10b4df10 f i LIBCMTD:_strgtold_.obj
 0001:0004cf80       _$I10_OUTPUT               10b4df80 f   LIBCMTD:_x10fout_.obj
 0001:0004d530       ___add_12                  10b4e530 f i LIBCMTD:_x10fout_.obj
 0001:0004d5e0       __flswbuf                  10b4e5e0 f   LIBCMTD:_flswbuf.obj
 0001:0004d8c0       ___initconout              10b4e8c0 f   LIBCMTD:initcon.obj
 0001:0004d8f0       ___termcon                 10b4e8f0 f   LIBCMTD:initcon.obj
 0001:0004d940       ___ascii_strnicmp          10b4e940 f   LIBCMTD:_strnicm.obj
 0001:0004d9b0       ___set_fpsr_sse2           10b4e9b0 f   LIBCMTD:_fpctrl_.obj
 0001:0004da90       ___mtold12                 10b4ea90 f   LIBCMTD:_mantold_.obj
 0001:0004dbe2       _RtlUnwind@16              10b4ebe2 f   kernel32:KERNEL32.dll
 0002:00000000       __imp_?XbufCreate@@YGPAUIXBuf@@PAU1@@Z 10b51000     BMBD:BMBD.dll
 0002:00000004       \177BMBD_NULL_THUNK_DATA   10b51004     BMBD:BMBD.dll
 0002:00000008       __imp__GetLocalTime@4      10b51008     kernel32:KERNEL32.dll
 0002:0000000c       __imp__GetPrivateProfileStringA@24 10b5100c     kernel32:KERNEL32.dll
 0002:00000010       __imp__InitializeCriticalSectionAndSpinCount@8 10b51010     kernel32:KERNEL32.dll
 0002:00000014       __imp__DeleteCriticalSection@4 10b51014     kernel32:KERNEL32.dll
 0002:00000018       __imp__RaiseException@16   10b51018     kernel32:KERNEL32.dll
 0002:0000001c       __imp__GetLastError@0      10b5101c     kernel32:KERNEL32.dll
 0002:00000020       __imp__CreateEventA@16     10b51020     kernel32:KERNEL32.dll
 0002:00000024       __imp__CloseHandle@4       10b51024     kernel32:KERNEL32.dll
 0002:00000028       __imp__WaitForSingleObject@8 10b51028     kernel32:KERNEL32.dll
 0002:0000002c       __imp__SetEvent@4          10b5102c     kernel32:KERNEL32.dll
 0002:00000030       __imp__GetCurrentProcessId@0 10b51030     kernel32:KERNEL32.dll
 0002:00000034       __imp__WaitForMultipleObjects@16 10b51034     kernel32:KERNEL32.dll
 0002:00000038       __imp__SetLastError@4      10b51038     kernel32:KERNEL32.dll
 0002:0000003c       __imp__EnterCriticalSection@4 10b5103c     kernel32:KERNEL32.dll
 0002:00000040       __imp__LeaveCriticalSection@4 10b51040     kernel32:KERNEL32.dll
 0002:00000044       __imp__DisableThreadLibraryCalls@4 10b51044     kernel32:KERNEL32.dll
 0002:00000048       __imp__SignalObjectAndWait@16 10b51048     kernel32:KERNEL32.dll
 0002:0000004c       __imp__WaitForSingleObjectEx@12 10b5104c     kernel32:KERNEL32.dll
 0002:00000050       __imp__WaitForMultipleObjectsEx@20 10b51050     kernel32:KERNEL32.dll
 0002:00000054       __imp__CreateSemaphoreA@16 10b51054     kernel32:KERNEL32.dll
 0002:00000058       __imp__OpenSemaphoreA@12   10b51058     kernel32:KERNEL32.dll
 0002:0000005c       __imp__ReleaseSemaphore@12 10b5105c     kernel32:KERNEL32.dll
 0002:00000060       __imp__CreateMutexA@12     10b51060     kernel32:KERNEL32.dll
 0002:00000064       __imp__OpenMutexA@12       10b51064     kernel32:KERNEL32.dll
 0002:00000068       __imp__ReleaseMutex@4      10b51068     kernel32:KERNEL32.dll
 0002:0000006c       __imp__OpenEventA@12       10b5106c     kernel32:KERNEL32.dll
 0002:00000070       __imp__PulseEvent@4        10b51070     kernel32:KERNEL32.dll
 0002:00000074       __imp__ResetEvent@4        10b51074     kernel32:KERNEL32.dll
 0002:00000078       __imp__TryEnterCriticalSection@4 10b51078     kernel32:KERNEL32.dll
 0002:0000007c       __imp__ExitProcess@4       10b5107c     kernel32:KERNEL32.dll
 0002:00000080       __imp__WideCharToMultiByte@32 10b51080     kernel32:KERNEL32.dll
 0002:00000084       __imp__MultiByteToWideChar@24 10b51084     kernel32:KERNEL32.dll
 0002:00000088       __imp__ReadFile@20         10b51088     kernel32:KERNEL32.dll
 0002:0000008c       __imp__SetEndOfFile@4      10b5108c     kernel32:KERNEL32.dll
 0002:00000090       __imp__GetConsoleOutputCP@0 10b51090     kernel32:KERNEL32.dll
 0002:00000094       __imp__WriteConsoleA@20    10b51094     kernel32:KERNEL32.dll
 0002:00000098       __imp__CreateDirectoryA@8  10b51098     kernel32:KERNEL32.dll
 0002:0000009c       __imp__GetLocaleInfoA@16   10b5109c     kernel32:KERNEL32.dll
 0002:000000a0       __imp__GetStringTypeW@16   10b510a0     kernel32:KERNEL32.dll
 0002:000000a4       __imp__GetStringTypeA@20   10b510a4     kernel32:KERNEL32.dll
 0002:000000a8       __imp__CreateFileA@28      10b510a8     kernel32:KERNEL32.dll
 0002:000000ac       __imp__SetStdHandle@8      10b510ac     kernel32:KERNEL32.dll
 0002:000000b0       __imp__FreeLibrary@4       10b510b0     kernel32:KERNEL32.dll
 0002:000000b4       __imp__VirtualQuery@12     10b510b4     kernel32:KERNEL32.dll
 0002:000000b8       __imp__GetProcessHeap@0    10b510b8     kernel32:KERNEL32.dll
 0002:000000bc       __imp__SetFilePointer@16   10b510bc     kernel32:KERNEL32.dll
 0002:000000c0       __imp__VirtualAlloc@16     10b510c0     kernel32:KERNEL32.dll
 0002:000000c4       __imp__HeapReAlloc@16      10b510c4     kernel32:KERNEL32.dll
 0002:000000c8       __imp__HeapSize@12         10b510c8     kernel32:KERNEL32.dll
 0002:000000cc       __imp__HeapAlloc@12        10b510cc     kernel32:KERNEL32.dll
 0002:000000d0       __imp__GetConsoleMode@8    10b510d0     kernel32:KERNEL32.dll
 0002:000000d4       __imp__GetConsoleCP@0      10b510d4     kernel32:KERNEL32.dll
 0002:000000d8       __imp__FlushFileBuffers@4  10b510d8     kernel32:KERNEL32.dll
 0002:000000dc       __imp__GetSystemTimeAsFileTime@4 10b510dc     kernel32:KERNEL32.dll
 0002:000000e0       __imp__GetTickCount@0      10b510e0     kernel32:KERNEL32.dll
 0002:000000e4       __imp__QueryPerformanceCounter@4 10b510e4     kernel32:KERNEL32.dll
 0002:000000e8       __imp__VirtualFree@12      10b510e8     kernel32:KERNEL32.dll
 0002:000000ec       __imp__HeapFree@12         10b510ec     kernel32:KERNEL32.dll
 0002:000000f0       __imp__HeapCreate@12       10b510f0     kernel32:KERNEL32.dll
 0002:000000f4       __imp__HeapDestroy@4       10b510f4     kernel32:KERNEL32.dll
 0002:000000f8       __imp__GetEnvironmentStringsW@0 10b510f8     kernel32:KERNEL32.dll
 0002:000000fc       __imp__FreeEnvironmentStringsW@4 10b510fc     kernel32:KERNEL32.dll
 0002:00000100       __imp__GetEnvironmentStrings@0 10b51100     kernel32:KERNEL32.dll
 0002:00000104       __imp__FreeEnvironmentStringsA@4 10b51104     kernel32:KERNEL32.dll
 0002:00000108       __imp__LCMapStringW@24     10b51108     kernel32:KERNEL32.dll
 0002:0000010c       __imp__LCMapStringA@24     10b5110c     kernel32:KERNEL32.dll
 0002:00000110       __imp__GetModuleHandleA@4  10b51110     kernel32:KERNEL32.dll
 0002:00000114       __imp__LoadLibraryW@4      10b51114     kernel32:KERNEL32.dll
 0002:00000118       __imp__OutputDebugStringW@4 10b51118     kernel32:KERNEL32.dll
 0002:0000011c       __imp__WriteConsoleW@20    10b5111c     kernel32:KERNEL32.dll
 0002:00000120       __imp__OutputDebugStringA@4 10b51120     kernel32:KERNEL32.dll
 0002:00000124       __imp__GetModuleFileNameA@12 10b51124     kernel32:KERNEL32.dll
 0002:00000128       __imp__InterlockedIncrement@4 10b51128     kernel32:KERNEL32.dll
 0002:0000012c       __imp__InterlockedDecrement@4 10b5112c     kernel32:KERNEL32.dll
 0002:00000130       __imp__Sleep@4             10b51130     kernel32:KERNEL32.dll
 0002:00000134       __imp__InitializeCriticalSection@4 10b51134     kernel32:KERNEL32.dll
 0002:00000138       __imp__RtlUnwind@16        10b51138     kernel32:KERNEL32.dll
 0002:0000013c       __imp__CreateThread@24     10b5113c     kernel32:KERNEL32.dll
 0002:00000140       __imp__GetCurrentThreadId@0 10b51140     kernel32:KERNEL32.dll
 0002:00000144       __imp__ExitThread@4        10b51144     kernel32:KERNEL32.dll
 0002:00000148       __imp__TerminateProcess@8  10b51148     kernel32:KERNEL32.dll
 0002:0000014c       __imp__GetCurrentProcess@0 10b5114c     kernel32:KERNEL32.dll
 0002:00000150       __imp__UnhandledExceptionFilter@4 10b51150     kernel32:KERNEL32.dll
 0002:00000154       __imp__SetUnhandledExceptionFilter@4 10b51154     kernel32:KERNEL32.dll
 0002:00000158       __imp__IsDebuggerPresent@0 10b51158     kernel32:KERNEL32.dll
 0002:0000015c       __imp__GetModuleFileNameW@12 10b5115c     kernel32:KERNEL32.dll
 0002:00000160       __imp__GetCommandLineA@0   10b51160     kernel32:KERNEL32.dll
 0002:00000164       __imp__HeapValidate@12     10b51164     kernel32:KERNEL32.dll
 0002:00000168       __imp__IsBadReadPtr@8      10b51168     kernel32:KERNEL32.dll
 0002:0000016c       __imp__GetProcAddress@8    10b5116c     kernel32:KERNEL32.dll
 0002:00000170       __imp__TlsGetValue@4       10b51170     kernel32:KERNEL32.dll
 0002:00000174       __imp__GetModuleHandleW@4  10b51174     kernel32:KERNEL32.dll
 0002:00000178       __imp__TlsAlloc@0          10b51178     kernel32:KERNEL32.dll
 0002:0000017c       __imp__TlsSetValue@8       10b5117c     kernel32:KERNEL32.dll
 0002:00000180       __imp__TlsFree@4           10b51180     kernel32:KERNEL32.dll
 0002:00000184       __imp__DebugBreak@0        10b51184     kernel32:KERNEL32.dll
 0002:00000188       __imp__lstrlenA@4          10b51188     kernel32:KERNEL32.dll
 0002:0000018c       __imp__LoadLibraryA@4      10b5118c     kernel32:KERNEL32.dll
 0002:00000190       __imp__SetHandleCount@4    10b51190     kernel32:KERNEL32.dll
 0002:00000194       __imp__GetStdHandle@4      10b51194     kernel32:KERNEL32.dll
 0002:00000198       __imp__GetFileType@4       10b51198     kernel32:KERNEL32.dll
 0002:0000019c       __imp__GetStartupInfoA@4   10b5119c     kernel32:KERNEL32.dll
 0002:000001a0       __imp__GetACP@0            10b511a0     kernel32:KERNEL32.dll
 0002:000001a4       __imp__GetOEMCP@0          10b511a4     kernel32:KERNEL32.dll
 0002:000001a8       __imp__GetCPInfo@8         10b511a8     kernel32:KERNEL32.dll
 0002:000001ac       __imp__IsValidCodePage@4   10b511ac     kernel32:KERNEL32.dll
 0002:000001b0       __imp__WriteFile@20        10b511b0     kernel32:KERNEL32.dll
 0002:000001b4       \177KERNEL32_NULL_THUNK_DATA 10b511b4     kernel32:KERNEL32.dll
 0002:000001b8       __imp__SysStringByteLen@4  10b511b8     oleaut32:OLEAUT32.dll
 0002:000001bc       __imp__SysAllocStringByteLen@8 10b511bc     oleaut32:OLEAUT32.dll
 0002:000001c0       __imp__VariantClear@4      10b511c0     oleaut32:OLEAUT32.dll
 0002:000001c4       __imp__SafeArrayCreateVector@12 10b511c4     oleaut32:OLEAUT32.dll
 0002:000001c8       __imp__SafeArrayUnaccessData@4 10b511c8     oleaut32:OLEAUT32.dll
 0002:000001cc       __imp__SafeArrayDestroy@4  10b511cc     oleaut32:OLEAUT32.dll
 0002:000001d0       __imp__SafeArrayAccessData@8 10b511d0     oleaut32:OLEAUT32.dll
 0002:000001d4       \177OLEAUT32_NULL_THUNK_DATA 10b511d4     oleaut32:OLEAUT32.dll
 0002:000001d8       __imp__MessageBoxA@16      10b511d8     user32:USER32.dll
 0002:000001dc       __imp__MsgWaitForMultipleObjects@20 10b511dc     user32:USER32.dll
 0002:000001e0       __imp__GetActiveWindow@0   10b511e0     user32:USER32.dll
 0002:000001e4       __imp__MsgWaitForMultipleObjectsEx@20 10b511e4     user32:USER32.dll
 0002:000001e8       \177USER32_NULL_THUNK_DATA 10b511e8     user32:USER32.dll
 0002:000001ec       __imp__accept@12           10b511ec     ws2_32:WS2_32.dll
 0002:000001f0       __imp__listen@8            10b511f0     ws2_32:WS2_32.dll
 0002:000001f4       __imp__getsockopt@20       10b511f4     ws2_32:WS2_32.dll
 0002:000001f8       __imp__setsockopt@20       10b511f8     ws2_32:WS2_32.dll
 0002:000001fc       __imp__getsockname@12      10b511fc     ws2_32:WS2_32.dll
 0002:00000200       __imp__getpeername@12      10b51200     ws2_32:WS2_32.dll
 0002:00000204       __imp__inet_ntoa@4         10b51204     ws2_32:WS2_32.dll
 0002:00000208       __imp__ntohs@4             10b51208     ws2_32:WS2_32.dll
 0002:0000020c       __imp__WSAGetLastError@0   10b5120c     ws2_32:WS2_32.dll
 0002:00000210       __imp__WSASetLastError@4   10b51210     ws2_32:WS2_32.dll
 0002:00000214       __imp__htons@4             10b51214     ws2_32:WS2_32.dll
 0002:00000218       __imp__socket@12           10b51218     ws2_32:WS2_32.dll
 0002:0000021c       __imp__WSACleanup@0        10b5121c     ws2_32:WS2_32.dll
 0002:00000220       __imp__WSAStartup@8        10b51220     ws2_32:WS2_32.dll
 0002:00000224       __imp__ioctlsocket@12      10b51224     ws2_32:WS2_32.dll
 0002:00000228       __imp__WSASetEvent@4       10b51228     ws2_32:WS2_32.dll
 0002:0000022c       __imp__WSACloseEvent@4     10b5122c     ws2_32:WS2_32.dll
 0002:00000230       __imp__WSACreateEvent@0    10b51230     ws2_32:WS2_32.dll
 0002:00000234       __imp__WSAEventSelect@12   10b51234     ws2_32:WS2_32.dll
 0002:00000238       __imp__WSAEnumNetworkEvents@12 10b51238     ws2_32:WS2_32.dll
 0002:0000023c       __imp__WSAResetEvent@4     10b5123c     ws2_32:WS2_32.dll
 0002:00000240       __imp__htonl@4             10b51240     ws2_32:WS2_32.dll
 0002:00000244       __imp__bind@12             10b51244     ws2_32:WS2_32.dll
 0002:00000248       __imp__connect@12          10b51248     ws2_32:WS2_32.dll
 0002:0000024c       __imp__recv@16             10b5124c     ws2_32:WS2_32.dll
 0002:00000250       __imp__send@16             10b51250     ws2_32:WS2_32.dll
 0002:00000254       __imp__recvfrom@24         10b51254     ws2_32:WS2_32.dll
 0002:00000258       __imp__sendto@24           10b51258     ws2_32:WS2_32.dll
 0002:0000025c       __imp__WSARecvFrom@36      10b5125c     ws2_32:WS2_32.dll
 0002:00000260       __imp__WSASendTo@36        10b51260     ws2_32:WS2_32.dll
 0002:00000264       __imp__gethostbyname@4     10b51264     ws2_32:WS2_32.dll
 0002:00000268       __imp__inet_addr@4         10b51268     ws2_32:WS2_32.dll
 0002:0000026c       __imp__gethostname@8       10b5126c     ws2_32:WS2_32.dll
 0002:00000270       __imp__closesocket@4       10b51270     ws2_32:WS2_32.dll
 0002:00000274       \177WS2_32_NULL_THUNK_DATA 10b51274     ws2_32:WS2_32.dll
 0002:00000278       ___xc_a                    10b51278     LIBCMTD:crt0init.obj
 0002:00000288       ___xc_z                    10b51288     LIBCMTD:crt0init.obj
 0002:0000028c       ___xi_a                    10b5128c     LIBCMTD:crt0init.obj
 0002:000002a0       ___xi_z                    10b512a0     LIBCMTD:crt0init.obj
 0002:000002a4       ___xp_a                    10b512a4     LIBCMTD:crt0init.obj
 0002:000002b4       ___xp_z                    10b512b4     LIBCMTD:crt0init.obj
 0002:000002b8       ___xt_a                    10b512b8     LIBCMTD:crt0init.obj
 0002:000002bc       ___xt_z                    10b512bc     LIBCMTD:crt0init.obj
 0002:00000370       ??_C@_1IA@IJKDJKBN@?$AAC?$AA?3?$AA?2?$AAP?$AAr?$AAo?$AAg?$AAr?$AAa?$AAm?$AA?5?$AAF?$AAi?$AAl?$AAe?$AAs?$AA?2?$AAM?$AAi?$AAc?$AAr?$AAo?$AAs?$AAo?$AAf?$AAt?$AA?5?$AAV?$AAi?$AAs?$AAu?$AAa@ 10b51370     ErrorLog.obj
 0002:000003f0       ??_C@_1CK@EOPGIILJ@?$AAi?$AAn?$AAv?$AAa?$AAl?$AAi?$AAd?$AA?5?$AAn?$AAu?$AAl?$AAl?$AA?5?$AAp?$AAo?$AAi?$AAn?$AAt?$AAe?$AAr?$AA?$AA@ 10b513f0     ErrorLog.obj
 0002:00000420       ??_7bad_alloc@std@@6B@     10b51420     ErrorLog.obj
 0002:00000664       ??_7CLinkManager@@6B@      10b51664     LinkManager.obj
 0002:000006b4       ??_7?$AdlSocketSingleT@VGSocketHandler@@VGBufSocket@@VPayloadGS@@@@6B@ 10b516b4     LinkManager.obj
 0002:000006f4       ??_7GSafeBufQ@@6B@         10b516f4     LinkManager.obj
 0002:00000704       ??_7?$AdlSocketDispatcherImplT@V?$BufSocketSingleT@VGSocketHandler@@VGBufSocket@@@@VPayloadGS@@@@6B@ 10b51704     LinkManager.obj
 0002:00000744       ??_7?$BufSocketSingleT@VGSocketHandler@@VGBufSocket@@@@6B@ 10b51744     LinkManager.obj
 0002:00000780       ??_7?$BufSocketDispatcherImplT@V?$SocketSingleT@VGSocketHandler@@VGBufSocket@@@@@@6B@ 10b51780     LinkManager.obj
 0002:000007bc       ??_7?$SocketSingleT@VGSocketHandler@@VGBufSocket@@@@6B@ 10b517bc     LinkManager.obj
 0002:000007f8       ??_7?$SocketDispatcherT@VGSocketHandler@@VGBufSocket@@@@6B@ 10b517f8     LinkManager.obj
 0002:00000834       ??_7GSocketHandler@@6B@    10b51834     LinkManager.obj
 0002:0000083c       ??_7PMSUnitID@@6B@         10b5183c     LinkManager.obj
 0002:00000840       ??_C@_1DC@POOIKBAO@?$AAI?$AAT?$AAE?$AAR?$AAA?$AAT?$AAO?$AAR?$AA?5?$AAL?$AAI?$AAS?$AAT?$AA?5?$AAC?$AAO?$AAR?$AAR?$AAU?$AAP?$AAT?$AAE?$AAD?$AA?$CB?$AA?$AA@ 10b51840     LinkManager.obj
 0002:00000878       ??_C@_1IC@LODEOCIN@?$AAC?$AA?3?$AA?2?$AAP?$AAr?$AAo?$AAg?$AAr?$AAa?$AAm?$AA?5?$AAF?$AAi?$AAl?$AAe?$AAs?$AA?2?$AAM?$AAi?$AAc?$AAr?$AAo?$AAs?$AAo?$AAf?$AAt?$AA?5?$AAV?$AAi?$AAs?$AAu?$AAa@ 10b51878     LinkManager.obj
 0002:00000900       ??_C@_1EI@HGIDLLCM@?$AAv?$AAe?$AAc?$AAt?$AAo?$AAr?$AA?5?$AAe?$AAr?$AAa?$AAs?$AAe?$AA?5?$AAi?$AAt?$AAe?$AAr?$AAa?$AAt?$AAo?$AAr?$AA?5?$AAo?$AAu?$AAt?$AAs?$AAi?$AAd?$AAe?$AA?5?$AAr?$AAa@ 10b51900     LinkManager.obj
 0002:00000948       ??_C@_1HO@BGIAGONF@?$AAC?$AA?3?$AA?2?$AAP?$AAr?$AAo?$AAg?$AAr?$AAa?$AAm?$AA?5?$AAF?$AAi?$AAl?$AAe?$AAs?$AA?2?$AAM?$AAi?$AAc?$AAr?$AAo?$AAs?$AAo?$AAf?$AAt?$AA?5?$AAV?$AAi?$AAs?$AAu?$AAa@ 10b51948     LinkManager.obj
 0002:000009c8       ??_C@_1EK@EEHFMKDC@?$AAv?$AAe?$AAc?$AAt?$AAo?$AAr?$AA?5?$AAi?$AAn?$AAs?$AAe?$AAr?$AAt?$AA?5?$AAi?$AAt?$AAe?$AAr?$AAa?$AAt?$AAo?$AAr?$AA?5?$AAo?$AAu?$AAt?$AAs?$AAi?$AAd?$AAe?$AA?5?$AAr@ 10b519c8     LinkManager.obj
 0002:00000a14       ??_C@_0BD@OLBABOEK@vector?$DMT?$DO?5too?5long?$AA@ 10b51a14     LinkManager.obj
 0002:00000a2c       ??_7length_error@std@@6B@  10b51a2c     LinkManager.obj
 0002:00000a38       ??_7logic_error@std@@6B@   10b51a38     LinkManager.obj
 0002:00000a40       ??_C@_1CG@JNLFBNGN@?$AA?$CC?$AAi?$AAn?$AAv?$AAa?$AAl?$AAi?$AAd?$AA?5?$AAa?$AAr?$AAg?$AAu?$AAm?$AAe?$AAn?$AAt?$AA?$CC?$AA?$AA@ 10b51a40     LinkManager.obj
 0002:00000a68       ??_C@_1NA@INNCODEC@?$AAs?$AAt?$AAd?$AA?3?$AA?3?$AA_?$AAV?$AAe?$AAc?$AAt?$AAo?$AAr?$AA_?$AAc?$AAo?$AAn?$AAs?$AAt?$AA_?$AAi?$AAt?$AAe?$AAr?$AAa?$AAt?$AAo?$AAr?$AA?$DM?$AAc?$AAl?$AAa?$AAs@ 10b51a68     LinkManager.obj
 0002:00000b38       ??_C@_1NK@JLHOCNGO@?$AA?$CI?$AA?$CC?$AA_?$AAP?$AAv?$AAe?$AAc?$AAt?$AAo?$AAr?$AA?5?$AA?$DN?$AA?$DN?$AA?5?$AAN?$AAU?$AAL?$AAL?$AA?5?$AA?$HM?$AA?$HM?$AA?5?$AA?$CI?$AA?$CI?$AA?$CI?$AA_?$AAM?$AAy?$AAv?$AAe?$AAc?$AA?5@ 10b51b38     LinkManager.obj
 0002:00000c18       ??_C@_1LC@EFFDHEGE@?$AAs?$AAt?$AAd?$AA?3?$AA?3?$AA_?$AAV?$AAe?$AAc?$AAt?$AAo?$AAr?$AA_?$AAc?$AAo?$AAn?$AAs?$AAt?$AA_?$AAi?$AAt?$AAe?$AAr?$AAa?$AAt?$AAo?$AAr?$AA?$DM?$AAc?$AAl?$AAa?$AAs@ 10b51c18     LinkManager.obj
 0002:00000cd0       ??_C@_1FO@OCPOOAIA@?$AA?$CI?$AA?$CC?$AAS?$AAt?$AAa?$AAn?$AAd?$AAa?$AAr?$AAd?$AA?5?$AAC?$AA?$CL?$AA?$CL?$AA?5?$AAL?$AAi?$AAb?$AAr?$AAa?$AAr?$AAi?$AAe?$AAs?$AA?5?$AAI?$AAn?$AAv?$AAa?$AAl?$AAi?$AAd@ 10b51cd0     LinkManager.obj
 0002:00000d30       ??_C@_1DM@HINDPMBP@?$AAv?$AAe?$AAc?$AAt?$AAo?$AAr?$AA?5?$AAi?$AAt?$AAe?$AAr?$AAa?$AAt?$AAo?$AAr?$AAs?$AA?5?$AAi?$AAn?$AAc?$AAo?$AAm?$AAp?$AAa?$AAt?$AAi?$AAb?$AAl?$AAe?$AA?$AA@ 10b51d30     LinkManager.obj
 0002:00000d6c       ??_C@_1BO@MEPPHOO@?$AA?$CC?$AAo?$AAu?$AAt?$AA?5?$AAo?$AAf?$AA?5?$AAr?$AAa?$AAn?$AAg?$AAe?$AA?$CC?$AA?$AA@ 10b51d6c     LinkManager.obj
 0002:00000d90       ??_C@_1BAC@KBDNDJPK@?$AA?$CI?$AA?$CC?$AA_?$AAM?$AAy?$AAp?$AAt?$AAr?$AA?5?$AA?$CL?$AA?5?$AA_?$AAO?$AAf?$AAf?$AA?5?$AA?$DM?$AA?$DN?$AA?5?$AA?$CI?$AA?$CI?$AA_?$AAM?$AAy?$AAv?$AAe?$AAc?$AA?5?$AA?$CK?$AA?$CJ?$AA?$CI?$AAt@ 10b51d90     LinkManager.obj
 0002:00000e98       ??_C@_1LK@PDNPANFE@?$AAs?$AAt?$AAd?$AA?3?$AA?3?$AA_?$AAV?$AAe?$AAc?$AAt?$AAo?$AAr?$AA_?$AAc?$AAo?$AAn?$AAs?$AAt?$AA_?$AAi?$AAt?$AAe?$AAr?$AAa?$AAt?$AAo?$AAr?$AA?$DM?$AAc?$AAl?$AAa?$AAs@ 10b51e98     LinkManager.obj
 0002:00000f54       ??_C@_1DM@LBMEEJPP@?$AA?$CI?$AA?$CC?$AAt?$AAh?$AAi?$AAs?$AA?9?$AA?$DO?$AA_?$AAH?$AAa?$AAs?$AA_?$AAc?$AAo?$AAn?$AAt?$AAa?$AAi?$AAn?$AAe?$AAr?$AA?$CI?$AA?$CJ?$AA?$CC?$AA?0?$AA?5?$AA0?$AA?$CJ?$AA?$AA@ 10b51f54     LinkManager.obj
 0002:00000f90       ??_C@_1IO@BFDDHGBI@?$AAs?$AAt?$AAd?$AA?3?$AA?3?$AA_?$AAV?$AAe?$AAc?$AAt?$AAo?$AAr?$AA_?$AAc?$AAo?$AAn?$AAs?$AAt?$AA_?$AAi?$AAt?$AAe?$AAr?$AAa?$AAt?$AAo?$AAr?$AA?$DM?$AAl?$AAo?$AAn?$AAg@ 10b51f90     LinkManager.obj
 0002:00001020       ??_C@_1KM@KMMKJFME@?$AAs?$AAt?$AAd?$AA?3?$AA?3?$AA_?$AAV?$AAe?$AAc?$AAt?$AAo?$AAr?$AA_?$AAc?$AAo?$AAn?$AAs?$AAt?$AA_?$AAi?$AAt?$AAe?$AAr?$AAa?$AAt?$AAo?$AAr?$AA?$DM?$AAl?$AAo?$AAn?$AAg@ 10b52020     LinkManager.obj
 0002:000010d0       ??_C@_1JE@PJMJLAGI@?$AAs?$AAt?$AAd?$AA?3?$AA?3?$AA_?$AAV?$AAe?$AAc?$AAt?$AAo?$AAr?$AA_?$AAc?$AAo?$AAn?$AAs?$AAt?$AA_?$AAi?$AAt?$AAe?$AAr?$AAa?$AAt?$AAo?$AAr?$AA?$DM?$AAl?$AAo?$AAn?$AAg@ 10b520d0     LinkManager.obj
 0002:00001168       ??_C@_1FG@CMLDHNON@?$AA?$CI?$AA?$CC?$AAS?$AAt?$AAa?$AAn?$AAd?$AAa?$AAr?$AAd?$AA?5?$AAC?$AA?$CL?$AA?$CL?$AA?5?$AAL?$AAi?$AAb?$AAr?$AAa?$AAr?$AAi?$AAe?$AAs?$AA?5?$AAO?$AAu?$AAt?$AA?5?$AAo?$AAf?$AA?5@ 10b52168     LinkManager.obj
 0002:000011c0       ??_C@_1EG@FOHJJHAC@?$AAv?$AAe?$AAc?$AAt?$AAo?$AAr?$AA?5?$AAi?$AAt?$AAe?$AAr?$AAa?$AAt?$AAo?$AAr?$AA?5?$AAn?$AAo?$AAt?$AA?5?$AAd?$AAe?$AAr?$AAe?$AAf?$AAe?$AAr?$AAe?$AAn?$AAc?$AAa?$AAb@ 10b521c0     LinkManager.obj
 0002:00001208       ??_C@_1EE@EJDKCLKB@?$AAv?$AAe?$AAc?$AAt?$AAo?$AAr?$AA?5?$AAi?$AAt?$AAe?$AAr?$AAa?$AAt?$AAo?$AAr?$AA?5?$AAn?$AAo?$AAt?$AA?5?$AAi?$AAn?$AAc?$AAr?$AAe?$AAm?$AAe?$AAn?$AAt?$AAa?$AAb?$AAl@ 10b52208     LinkManager.obj
 0002:00001250       ??_C@_1HE@NMBDDEHP@?$AA?$CI?$AA?$CC?$AA_?$AAM?$AAy?$AAp?$AAt?$AAr?$AA?5?$AA?$DM?$AA?5?$AA?$CI?$AA?$CI?$AA_?$AAM?$AAy?$AAv?$AAe?$AAc?$AA?5?$AA?$CK?$AA?$CJ?$AA?$CI?$AAt?$AAh?$AAi?$AAs?$AA?9?$AA?$DO?$AA_?$AAG?$AAe@ 10b52250     LinkManager.obj
 0002:000012c8       ??_C@_1JG@NKCKFAHA@?$AAs?$AAt?$AAd?$AA?3?$AA?3?$AA_?$AAV?$AAe?$AAc?$AAt?$AAo?$AAr?$AA_?$AAc?$AAo?$AAn?$AAs?$AAt?$AA_?$AAi?$AAt?$AAe?$AAr?$AAa?$AAt?$AAo?$AAr?$AA?$DM?$AAl?$AAo?$AAn?$AAg@ 10b522c8     LinkManager.obj
 0002:00001360       ??_C@_1LI@KIHDPHAB@?$AAs?$AAt?$AAd?$AA?3?$AA?3?$AA_?$AAV?$AAe?$AAc?$AAt?$AAo?$AAr?$AA_?$AAc?$AAo?$AAn?$AAs?$AAt?$AA_?$AAi?$AAt?$AAe?$AAr?$AAa?$AAt?$AAo?$AAr?$AA?$DM?$AAc?$AAl?$AAa?$AAs@ 10b52360     LinkManager.obj
 0002:00001418       ??_C@_1LK@IGKNAFBH@?$AAs?$AAt?$AAd?$AA?3?$AA?3?$AA_?$AAV?$AAe?$AAc?$AAt?$AAo?$AAr?$AA_?$AAc?$AAo?$AAn?$AAs?$AAt?$AA_?$AAi?$AAt?$AAe?$AAr?$AAa?$AAt?$AAo?$AAr?$AA?$DM?$AAc?$AAl?$AAa?$AAs@ 10b52418     LinkManager.obj
 0002:000014d8       ??_C@_1MI@KEHDFECE@?$AAs?$AAt?$AAd?$AA?3?$AA?3?$AA_?$AAV?$AAe?$AAc?$AAt?$AAo?$AAr?$AA_?$AAc?$AAo?$AAn?$AAs?$AAt?$AA_?$AAi?$AAt?$AAe?$AAr?$AAa?$AAt?$AAo?$AAr?$AA?$DM?$AAc?$AAl?$AAa?$AAs@ 10b524d8     LinkManager.obj
 0002:000015a0       ??_C@_1MK@CBIBCLKC@?$AAs?$AAt?$AAd?$AA?3?$AA?3?$AA_?$AAV?$AAe?$AAc?$AAt?$AAo?$AAr?$AA_?$AAc?$AAo?$AAn?$AAs?$AAt?$AA_?$AAi?$AAt?$AAe?$AAr?$AAa?$AAt?$AAo?$AAr?$AA?$DM?$AAc?$AAl?$AAa?$AAs@ 10b525a0     LinkManager.obj
 0002:00001670       ??_C@_1NA@JEJGLF@?$AAs?$AAt?$AAd?$AA?3?$AA?3?$AA_?$AAV?$AAe?$AAc?$AAt?$AAo?$AAr?$AA_?$AAc?$AAo?$AAn?$AAs?$AAt?$AA_?$AAi?$AAt?$AAe?$AAr?$AAa?$AAt?$AAo?$AAr?$AA?$DM?$AAc?$AAl?$AAa?$AAs@ 10b52670     LinkManager.obj
 0002:00001740       ??_C@_1NC@DMLBJHIC@?$AAs?$AAt?$AAd?$AA?3?$AA?3?$AA_?$AAV?$AAe?$AAc?$AAt?$AAo?$AAr?$AA_?$AAc?$AAo?$AAn?$AAs?$AAt?$AA_?$AAi?$AAt?$AAe?$AAr?$AAa?$AAt?$AAo?$AAr?$AA?$DM?$AAc?$AAl?$AAa?$AAs@ 10b52740     LinkManager.obj
 0002:00001818       ??_C@_1OA@NDLIOMEI@?$AAs?$AAt?$AAd?$AA?3?$AA?3?$AA_?$AAV?$AAe?$AAc?$AAt?$AAo?$AAr?$AA_?$AAc?$AAo?$AAn?$AAs?$AAt?$AA_?$AAi?$AAt?$AAe?$AAr?$AAa?$AAt?$AAo?$AAr?$AA?$DM?$AAc?$AAl?$AAa?$AAs@ 10b52818     LinkManager.obj
 0002:000018f8       ??_C@_1MC@IFNKFAON@?$AAs?$AAt?$AAd?$AA?3?$AA?3?$AA_?$AAV?$AAe?$AAc?$AAt?$AAo?$AAr?$AA_?$AAc?$AAo?$AAn?$AAs?$AAt?$AA_?$AAi?$AAt?$AAe?$AAr?$AAa?$AAt?$AAo?$AAr?$AA?$DM?$AAc?$AAl?$AAa?$AAs@ 10b528f8     LinkManager.obj
 0002:000019c0       ??_C@_1OI@FMOAIJMK@?$AAs?$AAt?$AAd?$AA?3?$AA?3?$AA_?$AAV?$AAe?$AAc?$AAt?$AAo?$AAr?$AA_?$AAc?$AAo?$AAn?$AAs?$AAt?$AA_?$AAi?$AAt?$AAe?$AAr?$AAa?$AAt?$AAo?$AAr?$AA?$DM?$AAc?$AAl?$AAa?$AAs@ 10b529c0     LinkManager.obj
 0002:00001aa8       ??_C@_1MK@DDMHIEMA@?$AAs?$AAt?$AAd?$AA?3?$AA?3?$AA_?$AAV?$AAe?$AAc?$AAt?$AAo?$AAr?$AA_?$AAc?$AAo?$AAn?$AAs?$AAt?$AA_?$AAi?$AAt?$AAe?$AAr?$AAa?$AAt?$AAo?$AAr?$AA?$DM?$AAc?$AAl?$AAa?$AAs@ 10b52aa8     LinkManager.obj
 0002:00001b74       ??_C@_1CO@DGLIKNHI@?$AAi?$AAn?$AAv?$AAa?$AAl?$AAi?$AAd?$AA?5?$AAi?$AAt?$AAe?$AAr?$AAa?$AAt?$AAo?$AAr?$AA?5?$AAr?$AAa?$AAn?$AAg?$AAe?$AA?$AA@ 10b52b74     LinkManager.obj
 0002:00001ba8       ??_C@_1HO@GIFLOCNO@?$AAC?$AA?3?$AA?2?$AAP?$AAr?$AAo?$AAg?$AAr?$AAa?$AAm?$AA?5?$AAF?$AAi?$AAl?$AAe?$AAs?$AA?2?$AAM?$AAi?$AAc?$AAr?$AAo?$AAs?$AAo?$AAf?$AAt?$AA?5?$AAV?$AAi?$AAs?$AAu?$AAa@ 10b52ba8     LinkManager.obj
 0002:00001c28       ??_C@_1EE@BBMFLDOC@?$AAl?$AAi?$AAs?$AAt?$AA?5?$AAe?$AAr?$AAa?$AAs?$AAe?$AA?5?$AAi?$AAt?$AAe?$AAr?$AAa?$AAt?$AAo?$AAr?$AA?5?$AAo?$AAu?$AAt?$AAs?$AAi?$AAd?$AAe?$AA?5?$AAr?$AAa?$AAn?$AAg@ 10b52c28     LinkManager.obj
 0002:00001c70       ??_C@_1HK@FADJPMFC@?$AAC?$AA?3?$AA?2?$AAP?$AAr?$AAo?$AAg?$AAr?$AAa?$AAm?$AA?5?$AAF?$AAi?$AAl?$AAe?$AAs?$AA?2?$AAM?$AAi?$AAc?$AAr?$AAo?$AAs?$AAo?$AAf?$AAt?$AA?5?$AAV?$AAi?$AAs?$AAu?$AAa@ 10b52c70     LinkManager.obj
 0002:00001cf0       ??_C@_1LA@CANNIEAL@?$AAs?$AAt?$AAd?$AA?3?$AA?3?$AAl?$AAi?$AAs?$AAt?$AA?$DM?$AAc?$AAl?$AAa?$AAs?$AAs?$AA?5?$AAG?$AAB?$AAu?$AAf?$AA?0?$AAc?$AAl?$AAa?$AAs?$AAs?$AA?5?$AAs?$AAt?$AAd?$AA?3?$AA?3@ 10b52cf0     LinkManager.obj
 0002:00001da0       ??_C@_1EC@HILJLMMC@?$AAl?$AAi?$AAs?$AAt?$AA?5?$AAi?$AAt?$AAe?$AAr?$AAa?$AAt?$AAo?$AAr?$AA?5?$AAn?$AAo?$AAt?$AA?5?$AAd?$AAe?$AAr?$AAe?$AAf?$AAe?$AAr?$AAe?$AAn?$AAc?$AAa?$AAb?$AAl?$AAe@ 10b52da0     LinkManager.obj
 0002:00001de8       ??_C@_1LC@LFEOEFLF@?$AAs?$AAt?$AAd?$AA?3?$AA?3?$AAl?$AAi?$AAs?$AAt?$AA?$DM?$AAc?$AAl?$AAa?$AAs?$AAs?$AA?5?$AAG?$AAB?$AAu?$AAf?$AA?0?$AAc?$AAl?$AAa?$AAs?$AAs?$AA?5?$AAs?$AAt?$AAd?$AA?3?$AA?3@ 10b52de8     LinkManager.obj
 0002:00001ea0       ??_C@_1EA@DOGAGKDH@?$AAl?$AAi?$AAs?$AAt?$AA?5?$AAi?$AAt?$AAe?$AAr?$AAa?$AAt?$AAo?$AAr?$AA?5?$AAn?$AAo?$AAt?$AA?5?$AAi?$AAn?$AAc?$AAr?$AAe?$AAm?$AAe?$AAn?$AAt?$AAa?$AAb?$AAl?$AAe?$AA?$AA@ 10b52ea0     LinkManager.obj
 0002:00001f2c       ??_7PMSRegionInfo@@6B@     10b52f2c     LinkManagerMsg.obj
 0002:00001f34       ??_7PMSStatBase@@6B@       10b52f34     LinkManagerMsg.obj
 0002:00001f3c       ??_7CPMSPerformanceInfo@@6B@ 10b52f3c     LinkManagerMsg.obj
 0002:00001f48       ??_7IPMSPerformanceInfo@@6B@ 10b52f48     LinkManagerMsg.obj
 0002:00001f54       ??_7CPMSRegionInfoList@@6B@ 10b52f54     LinkManagerMsg.obj
 0002:00001f6c       ??_7IPMSRegionInfoList@@6B@ 10b52f6c     LinkManagerMsg.obj
 0002:00001f80       ??_7CPMSStatInfoList@@6B@  10b52f80     LinkManagerMsg.obj
 0002:00001f8c       ??_7IPMSStatInfoList@@6B@  10b52f8c     LinkManagerMsg.obj
 0002:00001f94       ??_7CPMSRegionInfoListPC@@6B@ 10b52f94     LinkManagerMsg.obj
 0002:00001fa8       ??_7IPMSRegionInfoListPC@@6B@ 10b52fa8     LinkManagerMsg.obj
 0002:00001fb8       ??_7CPMSStatInfoListPC@@6B@ 10b52fb8     LinkManagerMsg.obj
 0002:00001fc4       ??_7IPMSStatInfoListPC@@6B@ 10b52fc4     LinkManagerMsg.obj
 0002:00001fc8       ??_C@_1OI@PNIDODDN@?$AAs?$AAt?$AAd?$AA?3?$AA?3?$AA_?$AAS?$AAt?$AAr?$AAi?$AAn?$AAg?$AA_?$AAc?$AAo?$AAn?$AAs?$AAt?$AA_?$AAi?$AAt?$AAe?$AAr?$AAa?$AAt?$AAo?$AAr?$AA?$DM?$AAc?$AAh?$AAa?$AAr@ 10b52fc8     LinkManagerMsg.obj
 0002:000020b0       ??_C@_1BEO@GFHFALBP@?$AA?$CI?$AA?$CC?$AA_?$AAP?$AAs?$AAt?$AAr?$AAi?$AAn?$AAg?$AA?5?$AA?$DN?$AA?$DN?$AA?5?$AAN?$AAU?$AAL?$AAL?$AA?5?$AA?$HM?$AA?$HM?$AA?5?$AA_?$AAP?$AAt?$AAr?$AA?5?$AA?$CB?$AA?$DN?$AA?5?$AAN?$AAU@ 10b530b0     LinkManagerMsg.obj
 0002:00002200       ??_C@_1MK@BODNBKIO@?$AAs?$AAt?$AAd?$AA?3?$AA?3?$AA_?$AAS?$AAt?$AAr?$AAi?$AAn?$AAg?$AA_?$AAc?$AAo?$AAn?$AAs?$AAt?$AA_?$AAi?$AAt?$AAe?$AAr?$AAa?$AAt?$AAo?$AAr?$AA?$DM?$AAc?$AAh?$AAa?$AAr@ 10b53200     LinkManagerMsg.obj
 0002:000022cc       ??_C@_1DM@KDEKGMPF@?$AAs?$AAt?$AAr?$AAi?$AAn?$AAg?$AA?5?$AAi?$AAt?$AAe?$AAr?$AAa?$AAt?$AAo?$AAr?$AAs?$AA?5?$AAi?$AAn?$AAc?$AAo?$AAm?$AAp?$AAa?$AAt?$AAi?$AAb?$AAl?$AAe?$AA?$AA@ 10b532cc     LinkManagerMsg.obj
 0002:00002308       ??_C@_1MK@FEPDCDOB@?$AAs?$AAt?$AAd?$AA?3?$AA?3?$AA_?$AAV?$AAe?$AAc?$AAt?$AAo?$AAr?$AA_?$AAc?$AAo?$AAn?$AAs?$AAt?$AA_?$AAi?$AAt?$AAe?$AAr?$AAa?$AAt?$AAo?$AAr?$AA?$DM?$AAc?$AAl?$AAa?$AAs@ 10b53308     LinkManagerMsg.obj
 0002:000023d8       ??_C@_1NC@EJMDJPMB@?$AAs?$AAt?$AAd?$AA?3?$AA?3?$AA_?$AAV?$AAe?$AAc?$AAt?$AAo?$AAr?$AA_?$AAc?$AAo?$AAn?$AAs?$AAt?$AA_?$AAi?$AAt?$AAe?$AAr?$AAa?$AAt?$AAo?$AAr?$AA?$DM?$AAc?$AAl?$AAa?$AAs@ 10b533d8     LinkManagerMsg.obj
 0002:000024b0       ??_C@_1JG@KPFIFIDD@?$AAs?$AAt?$AAd?$AA?3?$AA?3?$AA_?$AAV?$AAe?$AAc?$AAt?$AAo?$AAr?$AA_?$AAc?$AAo?$AAn?$AAs?$AAt?$AA_?$AAi?$AAt?$AAe?$AAr?$AAa?$AAt?$AAo?$AAr?$AA?$DM?$AAl?$AAo?$AAn?$AAg@ 10b534b0     LinkManagerMsg.obj
 0002:00002548       ??_C@_1EG@BPNHNPIG@?$AAl?$AAi?$AAs?$AAt?$AA?5?$AAi?$AAn?$AAs?$AAe?$AAr?$AAt?$AA?5?$AAi?$AAt?$AAe?$AAr?$AAa?$AAt?$AAo?$AAr?$AA?5?$AAo?$AAu?$AAt?$AAs?$AAi?$AAd?$AAe?$AA?5?$AAr?$AAa?$AAn@ 10b53548     LinkManagerMsg.obj
 0002:00002590       ??_C@_0BB@MOGOBHAF@list?$DMT?$DO?5too?5long?$AA@ 10b53590     LinkManagerMsg.obj
 0002:000025b4       ?npos@?$basic_string@_WU?$char_traits@_W@std@@V?$allocator@_W@2@@std@@2IB 10b535b4     GAdlUtl.obj
 0002:000025b4       ?npos@?$basic_string@DU?$char_traits@D@std@@V?$allocator@D@2@@std@@2IB 10b535b4     ErrorLog.obj
 0002:000025bc       ??_7GKernelObj@@6B@        10b535bc     GKernelObj.obj
 0002:000025c8       ??_7GWaitableObj@@6B@      10b535c8     GKernelObj.obj
 0002:000025d4       ??_7GSyncObj@@6B@          10b535d4     GKernelObj.obj
 0002:000025e8       ??_7GSemaphore@@6B@        10b535e8     GKernelObj.obj
 0002:00002600       ??_7GMutex@@6B@            10b53600     GKernelObj.obj
 0002:00002614       ??_7GEvent@@6B@            10b53614     GKernelObj.obj
 0002:00002628       ??_7GSelector@@6B@         10b53628     GKernelObj.obj
 0002:00002630       ??_7?$pvector@VGSyncObj@@@@6B@ 10b53630     GKernelObj.obj
 0002:00002634       ??_C@_1CK@POGJDOKA@?$AA?$CI?$AA?$CC?$AA_?$AAP?$AAo?$AAs?$AA?5?$AA?$DM?$AA?5?$AAs?$AAi?$AAz?$AAe?$AA?$CI?$AA?$CJ?$AA?$CC?$AA?0?$AA?5?$AA0?$AA?$CJ?$AA?$AA@ 10b53634     GKernelObj.obj
 0002:00002660       ??_C@_1KG@OHFOGLIF@?$AAs?$AAt?$AAd?$AA?3?$AA?3?$AAv?$AAe?$AAc?$AAt?$AAo?$AAr?$AA?$DM?$AAc?$AAl?$AAa?$AAs?$AAs?$AA?5?$AAG?$AAS?$AAy?$AAn?$AAc?$AAO?$AAb?$AAj?$AA?5?$AA?$CK?$AA?0?$AAc?$AAl?$AAa@ 10b53660     GKernelObj.obj
 0002:00002708       ??_C@_1DM@LHGCHCBA@?$AAv?$AAe?$AAc?$AAt?$AAo?$AAr?$AA?5?$AAs?$AAu?$AAb?$AAs?$AAc?$AAr?$AAi?$AAp?$AAt?$AA?5?$AAo?$AAu?$AAt?$AA?5?$AAo?$AAf?$AA?5?$AAr?$AAa?$AAn?$AAg?$AAe?$AA?$AA@ 10b53708     GKernelObj.obj
 0002:00002748       ??_C@_1HO@FOFOMKFB@?$AAs?$AAt?$AAd?$AA?3?$AA?3?$AAv?$AAe?$AAc?$AAt?$AAo?$AAr?$AA?$DM?$AAv?$AAo?$AAi?$AAd?$AA?5?$AA?$CK?$AA?0?$AAc?$AAl?$AAa?$AAs?$AAs?$AA?5?$AAs?$AAt?$AAd?$AA?3?$AA?3?$AAa?$AAl@ 10b53748     GKernelObj.obj
 0002:000027c8       ??_C@_1JM@OIMMEENE@?$AAs?$AAt?$AAd?$AA?3?$AA?3?$AA_?$AAV?$AAe?$AAc?$AAt?$AAo?$AAr?$AA_?$AAc?$AAo?$AAn?$AAs?$AAt?$AA_?$AAi?$AAt?$AAe?$AAr?$AAa?$AAt?$AAo?$AAr?$AA?$DM?$AAv?$AAo?$AAi?$AAd@ 10b537c8     GKernelObj.obj
 0002:00002868       ??_C@_1LE@EJOHCFKN@?$AAs?$AAt?$AAd?$AA?3?$AA?3?$AA_?$AAV?$AAe?$AAc?$AAt?$AAo?$AAr?$AA_?$AAc?$AAo?$AAn?$AAs?$AAt?$AA_?$AAi?$AAt?$AAe?$AAr?$AAa?$AAt?$AAo?$AAr?$AA?$DM?$AAv?$AAo?$AAi?$AAd@ 10b53868     GKernelObj.obj
 0002:00002920       ??_C@_1JG@CBFADKIM@?$AAs?$AAt?$AAd?$AA?3?$AA?3?$AA_?$AAV?$AAe?$AAc?$AAt?$AAo?$AAr?$AA_?$AAc?$AAo?$AAn?$AAs?$AAt?$AA_?$AAi?$AAt?$AAe?$AAr?$AAa?$AAt?$AAo?$AAr?$AA?$DM?$AAv?$AAo?$AAi?$AAd@ 10b53920     GKernelObj.obj
 0002:000029b8       ??_C@_1MG@JGJINGJB@?$AAs?$AAt?$AAd?$AA?3?$AA?3?$AA_?$AAV?$AAe?$AAc?$AAt?$AAo?$AAr?$AA_?$AAc?$AAo?$AAn?$AAs?$AAt?$AA_?$AAi?$AAt?$AAe?$AAr?$AAa?$AAt?$AAo?$AAr?$AA?$DM?$AAc?$AAl?$AAa?$AAs@ 10b539b8     GKernelObj.obj
 0002:00002a80       ??_C@_1JO@FNPIJOIH@?$AAs?$AAt?$AAd?$AA?3?$AA?3?$AA_?$AAV?$AAe?$AAc?$AAt?$AAo?$AAr?$AA_?$AAc?$AAo?$AAn?$AAs?$AAt?$AA_?$AAi?$AAt?$AAe?$AAr?$AAa?$AAt?$AAo?$AAr?$AA?$DM?$AAv?$AAo?$AAi?$AAd@ 10b53a80     GKernelObj.obj
 0002:00002b20       ??_C@_1IE@NNDBNIJK@?$AAC?$AA?3?$AA?2?$AAP?$AAr?$AAo?$AAg?$AAr?$AAa?$AAm?$AA?5?$AAF?$AAi?$AAl?$AAe?$AAs?$AA?2?$AAM?$AAi?$AAc?$AAr?$AAo?$AAs?$AAo?$AAf?$AAt?$AA?5?$AAV?$AAi?$AAs?$AAu?$AAa@ 10b53b20     GKernelObj.obj
 0002:00002ba8       ??_C@_1ME@MICHPCJF@?$AAs?$AAt?$AAd?$AA?3?$AA?3?$AA_?$AAV?$AAe?$AAc?$AAt?$AAo?$AAr?$AA_?$AAc?$AAo?$AAn?$AAs?$AAt?$AA_?$AAi?$AAt?$AAe?$AAr?$AAa?$AAt?$AAo?$AAr?$AA?$DM?$AAc?$AAl?$AAa?$AAs@ 10b53ba8     GKernelObj.obj
 0002:00002c70       ??_C@_1MG@ODOKNONC@?$AAs?$AAt?$AAd?$AA?3?$AA?3?$AA_?$AAV?$AAe?$AAc?$AAt?$AAo?$AAr?$AA_?$AAc?$AAo?$AAn?$AAs?$AAt?$AA_?$AAi?$AAt?$AAe?$AAr?$AAa?$AAt?$AAo?$AAr?$AA?$DM?$AAc?$AAl?$AAa?$AAs@ 10b53c70     GKernelObj.obj
 0002:00002d38       ??_C@_1JO@CIIKJGME@?$AAs?$AAt?$AAd?$AA?3?$AA?3?$AA_?$AAV?$AAe?$AAc?$AAt?$AAo?$AAr?$AA_?$AAc?$AAo?$AAn?$AAs?$AAt?$AA_?$AAi?$AAt?$AAe?$AAr?$AAa?$AAt?$AAo?$AAr?$AA?$DM?$AAv?$AAo?$AAi?$AAd@ 10b53d38     GKernelObj.obj
 0002:00002dd8       ??_C@_1NM@BBBICOKC@?$AAs?$AAt?$AAd?$AA?3?$AA?3?$AA_?$AAV?$AAe?$AAc?$AAt?$AAo?$AAr?$AA_?$AAc?$AAo?$AAn?$AAs?$AAt?$AA_?$AAi?$AAt?$AAe?$AAr?$AAa?$AAt?$AAo?$AAr?$AA?$DM?$AAc?$AAl?$AAa?$AAs@ 10b53dd8     GKernelObj.obj
 0002:00002eb8       ??_C@_1LO@LJHKOCLG@?$AAs?$AAt?$AAd?$AA?3?$AA?3?$AA_?$AAV?$AAe?$AAc?$AAt?$AAo?$AAr?$AA_?$AAc?$AAo?$AAn?$AAs?$AAt?$AA_?$AAi?$AAt?$AAe?$AAr?$AAa?$AAt?$AAo?$AAr?$AA?$DM?$AAc?$AAl?$AAa?$AAs@ 10b53eb8     GKernelObj.obj
 0002:00003864       ??_7GSocketEvent@@6B@      10b54864     GSocket.obj
 0002:0000387c       ??_7GSocket@@6B@           10b5487c     GSocket.obj
 0002:000038cc       ??_7GTxtSocket@@6B@        10b548cc     GSocketUtl.obj
 0002:0000392c       ??_7GBufSocket@@6B@        10b5492c     GSocketUtl.obj
 0002:00003998       ??_C@_1LO@NPPEKPAI@?$AAs?$AAt?$AAd?$AA?3?$AA?3?$AAb?$AAa?$AAs?$AAi?$AAc?$AA_?$AAs?$AAt?$AAr?$AAi?$AAn?$AAg?$AA?$DM?$AAc?$AAh?$AAa?$AAr?$AA?0?$AAs?$AAt?$AAr?$AAu?$AAc?$AAt?$AA?5?$AAs?$AAt@ 10b54998     GString.obj
 0002:00003a58       ??_C@_1DM@GMPLOCPK@?$AAs?$AAt?$AAr?$AAi?$AAn?$AAg?$AA?5?$AAs?$AAu?$AAb?$AAs?$AAc?$AAr?$AAi?$AAp?$AAt?$AA?5?$AAo?$AAu?$AAt?$AA?5?$AAo?$AAf?$AA?5?$AAr?$AAa?$AAn?$AAg?$AAe?$AA?$AA@ 10b54a58     GString.obj
 0002:00003a98       ??_C@_1NA@KFAKIFMH@?$AAs?$AAt?$AAd?$AA?3?$AA?3?$AAb?$AAa?$AAs?$AAi?$AAc?$AA_?$AAs?$AAt?$AAr?$AAi?$AAn?$AAg?$AA?$DM?$AAw?$AAc?$AAh?$AAa?$AAr?$AA_?$AAt?$AA?0?$AAs?$AAt?$AAr?$AAu?$AAc?$AAt@ 10b54a98     GString.obj
 0002:00003b68       ??_C@_0P@GHFPNOJB@bad?5allocation?$AA@ 10b54b68     libcpmtd:string.obj
 0002:00003b78       ??_C@_0BA@JFNIOLAK@string?5too?5long?$AA@ 10b54b78     libcpmtd:string.obj
 0002:00003b88       ??_C@_0BI@CFPLBAOH@invalid?5string?5position?$AA@ 10b54b88     libcpmtd:string.obj
 0002:00003ba4       ??_7out_of_range@std@@6B@  10b54ba4     libcpmtd:string.obj
 0002:00003bac       ??_C@_01EEMJAFIK@?6?$AA@   10b54bac     libcpmtd:stdthrow.obj
 0002:00003bb4       ??_C@_1CC@MGIEJOME@?$AA?$CI?$AAf?$AAo?$AAr?$AAm?$AAa?$AAt?$AA?5?$AA?$CB?$AA?$DN?$AA?5?$AAN?$AAU?$AAL?$AAL?$AA?$CJ?$AA?$AA@ 10b54bb4     LIBCMTD:sprintf.obj
 0002:00003bd8       ??_C@_1O@EGMJNCOI@?$AAf?$AAc?$AAl?$AAo?$AAs?$AAe?$AA?$AA@ 10b54bd8     LIBCMTD:fclose.obj
 0002:00003be8       ??_C@_1GA@KMIDAPAP@?$AAf?$AA?3?$AA?2?$AAd?$AAd?$AA?2?$AAv?$AAc?$AAt?$AAo?$AAo?$AAl?$AAs?$AA?2?$AAc?$AAr?$AAt?$AA_?$AAb?$AAl?$AAd?$AA?2?$AAs?$AAe?$AAl?$AAf?$AA_?$AAx?$AA8?$AA6?$AA?2?$AAc@ 10b54be8     LIBCMTD:fclose.obj
 0002:00003c48       ??_C@_1CC@FADMNIL@?$AA?$CI?$AAs?$AAt?$AAr?$AAe?$AAa?$AAm?$AA?5?$AA?$CB?$AA?$DN?$AA?5?$AAN?$AAU?$AAL?$AAL?$AA?$CJ?$AA?$AA@ 10b54c48     LIBCMTD:fclose.obj
 0002:00003c6c       ??_C@_1BO@JINCABEC@?$AA_?$AAf?$AAc?$AAl?$AAo?$AAs?$AAe?$AA_?$AAn?$AAo?$AAl?$AAo?$AAc?$AAk?$AA?$AA@ 10b54c6c     LIBCMTD:fclose.obj
 0002:00003c8c       ??_C@_1BM@JMKHIAHP@?$AA?$CI?$AAs?$AAt?$AAr?$AA?5?$AA?$CB?$AA?$DN?$AA?5?$AAN?$AAU?$AAL?$AAL?$AA?$CJ?$AA?$AA@ 10b54c8c     LIBCMTD:fclose.obj
 0002:00003ca8       ??_C@_1BAA@ODEGEDCK@?$AA?$CI?$AA?5?$AA?$CI?$AA_?$AAS?$AAt?$AAr?$AAe?$AAa?$AAm?$AA?9?$AA?$DO?$AA_?$AAf?$AAl?$AAa?$AAg?$AA?5?$AA?$CG?$AA?5?$AA_?$AAI?$AAO?$AAS?$AAT?$AAR?$AAG?$AA?$CJ?$AA?5?$AA?$HM?$AA?$HM?$AA?5@ 10b54ca8     LIBCMTD:fprintf.obj
 0002:00003da8       ??_C@_1BA@DNOHIGNM@?$AAf?$AAp?$AAr?$AAi?$AAn?$AAt?$AAf?$AA?$AA@ 10b54da8     LIBCMTD:fprintf.obj
 0002:00003db8       ??_C@_1GC@NHJDDBOH@?$AAf?$AA?3?$AA?2?$AAd?$AAd?$AA?2?$AAv?$AAc?$AAt?$AAo?$AAo?$AAl?$AAs?$AA?2?$AAc?$AAr?$AAt?$AA_?$AAb?$AAl?$AAd?$AA?2?$AAs?$AAe?$AAl?$AAf?$AA_?$AAx?$AA8?$AA6?$AA?2?$AAc@ 10b54db8     LIBCMTD:fprintf.obj
 0002:00003e1c       ??_C@_1CI@HBNALCBB@?$AA?$CI?$AA?$CK?$AAm?$AAo?$AAd?$AAe?$AA?5?$AA?$CB?$AA?$DN?$AA?5?$AA_?$AAT?$AA?$CI?$AA?8?$AA?2?$AA0?$AA?8?$AA?$CJ?$AA?$CJ?$AA?$AA@ 10b54e1c     LIBCMTD:fopen.obj
 0002:00003e44       ??_C@_1BO@MJMKAKCJ@?$AA?$CI?$AAm?$AAo?$AAd?$AAe?$AA?5?$AA?$CB?$AA?$DN?$AA?5?$AAN?$AAU?$AAL?$AAL?$AA?$CJ?$AA?$AA@ 10b54e44     LIBCMTD:fopen.obj
 0002:00003e64       ??_C@_1BA@HNEAFMNL@?$AA_?$AAf?$AAs?$AAo?$AAp?$AAe?$AAn?$AA?$AA@ 10b54e64     LIBCMTD:fopen.obj
 0002:00003e78       ??_C@_1FO@NCADDBOO@?$AAf?$AA?3?$AA?2?$AAd?$AAd?$AA?2?$AAv?$AAc?$AAt?$AAo?$AAo?$AAl?$AAs?$AA?2?$AAc?$AAr?$AAt?$AA_?$AAb?$AAl?$AAd?$AA?2?$AAs?$AAe?$AAl?$AAf?$AA_?$AAx?$AA8?$AA6?$AA?2?$AAc@ 10b54e78     LIBCMTD:fopen.obj
 0002:00003ed8       ??_C@_1BO@CLGIAEOJ@?$AA?$CI?$AAf?$AAi?$AAl?$AAe?$AA?5?$AA?$CB?$AA?$DN?$AA?5?$AAN?$AAU?$AAL?$AAL?$AA?$CJ?$AA?$AA@ 10b54ed8     LIBCMTD:fopen.obj
 0002:00003ef8       ??_C@_1BA@PBGKCCAP@?$AAf?$AAo?$AAp?$AAe?$AAn?$AA_?$AAs?$AA?$AA@ 10b54ef8     LIBCMTD:fopen.obj
 0002:00003f08       ??_C@_1CA@LLJLFCDN@?$AA?$CI?$AAp?$AAf?$AAi?$AAl?$AAe?$AA?5?$AA?$CB?$AA?$DN?$AA?5?$AAN?$AAU?$AAL?$AAL?$AA?$CJ?$AA?$AA@ 10b54f08     LIBCMTD:fopen.obj
 0002:00003f28       ??_C@_1EC@FABAOFFO@?$AA?$CI?$AAc?$AAo?$AAu?$AAn?$AAt?$AA?5?$AA?$DN?$AA?$DN?$AA?5?$AA0?$AA?$CJ?$AA?5?$AA?$HM?$AA?$HM?$AA?5?$AA?$CI?$AAs?$AAt?$AAr?$AAi?$AAn?$AAg?$AA?5?$AA?$CB?$AA?$DN?$AA?5?$AAN?$AAU?$AAL?$AAL?$AA?$CJ@ 10b54f28     LIBCMTD:vsnprnc.obj
 0002:00003f6c       ??_C@_1CE@PCFPEIFI@?$AA_?$AAv?$AAs?$AAn?$AAp?$AAr?$AAi?$AAn?$AAt?$AAf?$AA_?$AAh?$AAe?$AAl?$AAp?$AAe?$AAr?$AA?$AA@ 10b54f6c     LIBCMTD:vsnprnc.obj
 0002:00003f90       ??_C@_1GE@DPADKNCG@?$AAf?$AA?3?$AA?2?$AAd?$AAd?$AA?2?$AAv?$AAc?$AAt?$AAo?$AAo?$AAl?$AAs?$AA?2?$AAc?$AAr?$AAt?$AA_?$AAb?$AAl?$AAd?$AA?2?$AAs?$AAe?$AAl?$AAf?$AA_?$AAx?$AA8?$AA6?$AA?2?$AAc@ 10b54f90     LIBCMTD:vsnprnc.obj
 0002:00003ff4       ??_C@_1DA@HPBFKMEB@?$AA?$CI?$AA?$CC?$AAB?$AAu?$AAf?$AAf?$AAe?$AAr?$AA?5?$AAt?$AAo?$AAo?$AA?5?$AAs?$AAm?$AAa?$AAl?$AAl?$AA?$CC?$AA?0?$AA?5?$AA0?$AA?$CJ?$AA?$AA@ 10b54ff4     LIBCMTD:vsnprnc.obj
 0002:00004028       ??_C@_1EE@OKCKIGFK@?$AAs?$AAt?$AAr?$AAi?$AAn?$AAg?$AA?5?$AA?$CB?$AA?$DN?$AA?5?$AAN?$AAU?$AAL?$AAL?$AA?5?$AA?$CG?$AA?$CG?$AA?5?$AAs?$AAi?$AAz?$AAe?$AAI?$AAn?$AAB?$AAy?$AAt?$AAe?$AAs?$AA?5?$AA?$DO?$AA?5@ 10b55028     LIBCMTD:vsnprnc.obj
 0002:0000406c       ??_C@_1BM@BLJALHEF@?$AA_?$AAv?$AAs?$AAp?$AAr?$AAi?$AAn?$AAt?$AAf?$AA_?$AAs?$AA_?$AAl?$AA?$AA@ 10b5506c     LIBCMTD:vsnprnc.obj
 0002:00004088       ??_C@_1BO@MLMCMBKN@?$AAf?$AAo?$AAr?$AAm?$AAa?$AAt?$AA?5?$AA?$CB?$AA?$DN?$AA?5?$AAN?$AAU?$AAL?$AAL?$AA?$AA@ 10b55088     LIBCMTD:vsnprnc.obj
 0002:000040a8       ??_C@_1BO@MMPELNIM@?$AA_?$AAv?$AAs?$AAn?$AAp?$AAr?$AAi?$AAn?$AAt?$AAf?$AA_?$AAs?$AA_?$AAl?$AA?$AA@ 10b550a8     LIBCMTD:vsnprnc.obj
 0002:000040e8       ??_C@_1GE@BDAODJCD@?$AAf?$AA?3?$AA?2?$AAd?$AAd?$AA?2?$AAv?$AAc?$AAt?$AAo?$AAo?$AAl?$AAs?$AA?2?$AAc?$AAr?$AAt?$AA_?$AAb?$AAl?$AAd?$AA?2?$AAs?$AAe?$AAl?$AAf?$AA_?$AAx?$AA8?$AA6?$AA?2?$AAc@ 10b550e8     LIBCMTD:dbgdel.obj
 0002:00004150       ??_C@_1EO@LHDAJOCM@?$AA_?$AAB?$AAL?$AAO?$AAC?$AAK?$AA_?$AAT?$AAY?$AAP?$AAE?$AA_?$AAI?$AAS?$AA_?$AAV?$AAA?$AAL?$AAI?$AAD?$AA?$CI?$AAp?$AAH?$AAe?$AAa?$AAd?$AA?9?$AA?$DO?$AAn?$AAB?$AAl?$AAo@ 10b55150     LIBCMTD:dbgdel.obj
 0002:000041a4       ??_7type_info@@6B@         10b551a4     LIBCMTD:typinfo.obj
 0002:000041ac       ??_7exception@std@@6B@     10b551ac     LIBCMTD:stdexcpt.obj
 0002:000041b4       ??_C@_0BC@EOODALEL@Unknown?5exception?$AA@ 10b551b4     LIBCMTD:stdexcpt.obj
 0002:000041c8       ??_C@_1CK@DDKKOLAN@?$AAs?$AAi?$AAz?$AAe?$AAI?$AAn?$AAB?$AAy?$AAt?$AAe?$AAs?$AA?5?$AA?$DO?$AA?$DN?$AA?5?$AAc?$AAo?$AAu?$AAn?$AAt?$AA?$AA@ 10b551c8     LIBCMTD:memcpy_s.obj
 0002:000041f4       ??_C@_1BI@DCHLDCPP@?$AAs?$AAr?$AAc?$AA?5?$AA?$CB?$AA?$DN?$AA?5?$AAN?$AAU?$AAL?$AAL?$AA?$AA@ 10b551f4     LIBCMTD:memcpy_s.obj
 0002:0000420c       ??_C@_1BC@GKHDJMGB@?$AAm?$AAe?$AAm?$AAc?$AAp?$AAy?$AA_?$AAs?$AA?$AA@ 10b5520c     LIBCMTD:memcpy_s.obj
 0002:00004220       ??_C@_1GE@NEOPGGBM@?$AAf?$AA?3?$AA?2?$AAd?$AAd?$AA?2?$AAv?$AAc?$AAt?$AAo?$AAo?$AAl?$AAs?$AA?2?$AAc?$AAr?$AAt?$AA_?$AAb?$AAl?$AAd?$AA?2?$AAs?$AAe?$AAl?$AAf?$AA_?$AAx?$AA8?$AA6?$AA?2?$AAc@ 10b55220     LIBCMTD:memcpy_s.obj
 0002:00004284       ??_C@_1BI@GKKCBDMD@?$AAd?$AAs?$AAt?$AA?5?$AA?$CB?$AA?$DN?$AA?5?$AAN?$AAU?$AAL?$AAL?$AA?$AA@ 10b55284     LIBCMTD:memcpy_s.obj
 0002:0000429c       ??_C@_1BE@NMKKBGPA@?$AAm?$AAe?$AAm?$AAm?$AAo?$AAv?$AAe?$AA_?$AAs?$AA?$AA@ 10b5529c     LIBCMTD:memmove_s.obj
 0002:000042b0       ??_C@_1GG@JKNLCIHH@?$AAf?$AA?3?$AA?2?$AAd?$AAd?$AA?2?$AAv?$AAc?$AAt?$AAo?$AAo?$AAl?$AAs?$AA?2?$AAc?$AAr?$AAt?$AA_?$AAb?$AAl?$AAd?$AA?2?$AAs?$AAe?$AAl?$AAf?$AA_?$AAx?$AA8?$AA6?$AA?2?$AAc@ 10b552b0     LIBCMTD:memmove_s.obj
 0002:00004318       ??_C@_0DA@HMCPFNKN@f?3?2dd?2vctools?2crt_bld?2self_x86?2c@ 10b55318     LIBCMTD:onexit.obj
 0002:00004348       ??_C@_1BK@DLEGNDH@?$AAs?$AAt?$AAr?$AA1?$AA?5?$AA?$CB?$AA?$DN?$AA?5?$AAN?$AAU?$AAL?$AAL?$AA?$AA@ 10b55348     LIBCMTD:mbsstr.obj
 0002:00004364       ??_C@_1BE@KLCPDEDD@?$AA_?$AAm?$AAb?$AAs?$AAs?$AAt?$AAr?$AA_?$AAl?$AA?$AA@ 10b55364     LIBCMTD:mbsstr.obj
 0002:00004378       ??_C@_1GA@FCKKOGFM@?$AAf?$AA?3?$AA?2?$AAd?$AAd?$AA?2?$AAv?$AAc?$AAt?$AAo?$AAo?$AAl?$AAs?$AA?2?$AAc?$AAr?$AAt?$AA_?$AAb?$AAl?$AAd?$AA?2?$AAs?$AAe?$AAl?$AAf?$AA_?$AAx?$AA8?$AA6?$AA?2?$AAc@ 10b55378     LIBCMTD:mbsstr.obj
 0002:000043d8       ??_C@_1BK@KMBNCAPN@?$AAs?$AAt?$AAr?$AA2?$AA?5?$AA?$CB?$AA?$DN?$AA?5?$AAN?$AAU?$AAL?$AAL?$AA?$AA@ 10b553d8     LIBCMTD:mbsstr.obj
 0002:000043f4       ??_C@_1DM@MADKGDLO@?$AA?$CI?$AAL?$AA?$CC?$AAB?$AAu?$AAf?$AAf?$AAe?$AAr?$AA?5?$AAi?$AAs?$AA?5?$AAt?$AAo?$AAo?$AA?5?$AAs?$AAm?$AAa?$AAl?$AAl?$AA?$CC?$AA?5?$AA?$CG?$AA?$CG?$AA?5?$AA0?$AA?$CJ?$AA?$AA@ 10b553f4     LIBCMTD:strcpy_s.obj
 0002:00004430       ??_C@_1CI@HCPHDDLE@?$AAB?$AAu?$AAf?$AAf?$AAe?$AAr?$AA?5?$AAi?$AAs?$AA?5?$AAt?$AAo?$AAo?$AA?5?$AAs?$AAm?$AAa?$AAl?$AAl?$AA?$AA@ 10b55430     LIBCMTD:strcpy_s.obj
 0002:00004458       ??_C@_1CG@OFBJMIGJ@?$AA?$CI?$AA?$CI?$AA?$CI?$AA_?$AAS?$AAr?$AAc?$AA?$CJ?$AA?$CJ?$AA?$CJ?$AA?5?$AA?$CB?$AA?$DN?$AA?5?$AAN?$AAU?$AAL?$AAL?$AA?$AA@ 10b55458     LIBCMTD:strcpy_s.obj
 0002:00004480       ??_C@_1BC@CFJEPFGF@?$AAs?$AAt?$AAr?$AAc?$AAp?$AAy?$AA_?$AAs?$AA?$AA@ 10b55480     LIBCMTD:strcpy_s.obj
 0002:00004498       ??_C@_1GI@BGBNCIMA@?$AAf?$AA?3?$AA?2?$AAd?$AAd?$AA?2?$AAv?$AAc?$AAt?$AAo?$AAo?$AAl?$AAs?$AA?2?$AAc?$AAr?$AAt?$AA_?$AAb?$AAl?$AAd?$AA?2?$AAs?$AAe?$AAl?$AAf?$AA_?$AAx?$AA8?$AA6?$AA?2?$AAc@ 10b55498     LIBCMTD:strcpy_s.obj
 0002:00004500       ??_C@_1FC@NCPEPIBI@?$AA?$CI?$AA?$CI?$AA_?$AAD?$AAs?$AAt?$AA?$CJ?$AA?$CJ?$AA?5?$AA?$CB?$AA?$DN?$AA?5?$AAN?$AAU?$AAL?$AAL?$AA?5?$AA?$CG?$AA?$CG?$AA?5?$AA?$CI?$AA?$CI?$AA_?$AAS?$AAi?$AAz?$AAe?$AAI?$AAn?$AAB?$AAy?$AAt@ 10b55500     LIBCMTD:strcpy_s.obj
 0002:00004554       ??_C@_1O@GKDHFACN@?$AAp?$AAr?$AAi?$AAn?$AAt?$AAf?$AA?$AA@ 10b55554     LIBCMTD:printf.obj
 0002:00004568       ??_C@_1GA@LHEGHOAF@?$AAf?$AA?3?$AA?2?$AAd?$AAd?$AA?2?$AAv?$AAc?$AAt?$AAo?$AAo?$AAl?$AAs?$AA?2?$AAc?$AAr?$AAt?$AA_?$AAb?$AAl?$AAd?$AA?2?$AAs?$AAe?$AAl?$AAf?$AA_?$AAx?$AA8?$AA6?$AA?2?$AAc@ 10b55568     LIBCMTD:printf.obj
 0002:000045c8       ??_C@_0DC@EFKEANPM@f?3?2dd?2vctools?2crt_bld?2self_x86?2c@ 10b555c8     LIBCMTD:threadex.obj
 0002:000045fc       ??_C@_1BO@FIKPNENM@?$AA_?$AAb?$AAe?$AAg?$AAi?$AAn?$AAt?$AAh?$AAr?$AAe?$AAa?$AAd?$AAe?$AAx?$AA?$AA@ 10b555fc     LIBCMTD:threadex.obj
 0002:00004620       ??_C@_1GE@KFNOMGAL@?$AAf?$AA?3?$AA?2?$AAd?$AAd?$AA?2?$AAv?$AAc?$AAt?$AAo?$AAo?$AAl?$AAs?$AA?2?$AAc?$AAr?$AAt?$AA_?$AAb?$AAl?$AAd?$AA?2?$AAs?$AAe?$AAl?$AAf?$AA_?$AAx?$AA8?$AA6?$AA?2?$AAc@ 10b55620     LIBCMTD:threadex.obj
 0002:00004684       ??_C@_1CI@JCFHILLH@?$AAi?$AAn?$AAi?$AAt?$AAi?$AAa?$AAl?$AAc?$AAo?$AAd?$AAe?$AA?5?$AA?$CB?$AA?$DN?$AA?5?$AAN?$AAU?$AAL?$AAL?$AA?$AA@ 10b55684     LIBCMTD:threadex.obj
 0002:000046ac       ??_C@_17LGKOMLJ@?$AA?4?$AA?4?$AA?4?$AA?$AA@ 10b556ac     LIBCMTD:dbgrptw.obj
 0002:000046b4       ??_C@_1CC@CGHMNGDG@?$AAA?$AAs?$AAs?$AAe?$AAr?$AAt?$AAi?$AAo?$AAn?$AA?5?$AAF?$AAa?$AAi?$AAl?$AAe?$AAd?$AA?$AA@ 10b556b4     LIBCMTD:dbgrptw.obj
 0002:000046d8       ??_C@_1M@ILHOPKA@?$AAE?$AAr?$AAr?$AAo?$AAr?$AA?$AA@ 10b556d8     LIBCMTD:dbgrptw.obj
 0002:000046e4       ??_C@_1BA@GLMCNLEM@?$AAW?$AAa?$AAr?$AAn?$AAi?$AAn?$AAg?$AA?$AA@ 10b556e4     LIBCMTD:dbgrptw.obj
 0002:00004700       ??_C@_1GA@IBJGKIFE@?$AAf?$AA?3?$AA?2?$AAd?$AAd?$AA?2?$AAv?$AAc?$AAt?$AAo?$AAo?$AAl?$AAs?$AA?2?$AAc?$AAr?$AAt?$AA_?$AAb?$AAl?$AAd?$AA?2?$AAs?$AAe?$AAl?$AAf?$AA_?$AAx?$AA8?$AA6?$AA?2?$AAc@ 10b55700     LIBCMTD:dbgrptw.obj
 0002:00004760       ??_C@_1EG@PEOEAKBB@?$AAM?$AAi?$AAc?$AAr?$AAo?$AAs?$AAo?$AAf?$AAt?$AA?5?$AAV?$AAi?$AAs?$AAu?$AAa?$AAl?$AA?5?$AAC?$AA?$CL?$AA?$CL?$AA?5?$AAD?$AAe?$AAb?$AAu?$AAg?$AA?5?$AAL?$AAi?$AAb?$AAr?$AAa@ 10b55760     LIBCMTD:dbgrptw.obj
 0002:000047a8       ??_C@_1FG@BBOLDHGF@?$AA_?$AAC?$AAr?$AAt?$AAD?$AAb?$AAg?$AAR?$AAe?$AAp?$AAo?$AAr?$AAt?$AA?3?$AA?5?$AAS?$AAt?$AAr?$AAi?$AAn?$AAg?$AA?5?$AAt?$AAo?$AAo?$AA?5?$AAl?$AAo?$AAn?$AAg?$AA?5?$AAo@ 10b557a8     LIBCMTD:dbgrptw.obj
 0002:00004800       ??_C@_1JI@EACPGHID@?$AAw?$AAc?$AAs?$AAc?$AAp?$AAy?$AA_?$AAs?$AA?$CI?$AAs?$AAz?$AAO?$AAu?$AAt?$AAM?$AAe?$AAs?$AAs?$AAa?$AAg?$AAe?$AA?0?$AA?5?$AA4?$AA0?$AA9?$AA6?$AA?0?$AA?5?$AAL?$AA?$CC?$AA_@ 10b55800     LIBCMTD:dbgrptw.obj
 0002:00004898       ??_C@_1BI@KALLJECN@?$AA?$CI?$AA?$CK?$AA_?$AAe?$AAr?$AAr?$AAn?$AAo?$AA?$CI?$AA?$CJ?$AA?$CJ?$AA?$AA@ 10b55898     LIBCMTD:dbgrptw.obj
 0002:000048b0       ??_C@_1KK@MEFMPOLM@?$AAD?$AAe?$AAb?$AAu?$AAg?$AA?5?$AA?$CF?$AAs?$AA?$CB?$AA?6?$AA?6?$AAP?$AAr?$AAo?$AAg?$AAr?$AAa?$AAm?$AA?3?$AA?5?$AA?$CF?$AAs?$AA?$CF?$AAs?$AA?$CF?$AAs?$AA?$CF?$AAs?$AA?$CF?$AAs?$AA?$CF?$AAs@ 10b558b0     LIBCMTD:dbgrptw.obj
 0002:0000495c       ??_C@_1BE@CGCJKGHI@?$AA?6?$AAM?$AAo?$AAd?$AAu?$AAl?$AAe?$AA?3?$AA?5?$AA?$AA@ 10b5595c     LIBCMTD:dbgrptw.obj
 0002:00004970       ??_C@_1BA@LNHECFIM@?$AA?6?$AAF?$AAi?$AAl?$AAe?$AA?3?$AA?5?$AA?$AA@ 10b55970     LIBCMTD:dbgrptw.obj
 0002:00004980       ??_C@_1BA@GLLGCPCK@?$AA?6?$AAL?$AAi?$AAn?$AAe?$AA?3?$AA?5?$AA?$AA@ 10b55980     LIBCMTD:dbgrptw.obj
 0002:00004990       ??_C@_15IABLJNFO@?$AA?6?$AA?6?$AA?$AA@ 10b55990     LIBCMTD:dbgrptw.obj
 0002:00004998       ??_C@_1BK@PEDCIPMA@?$AAE?$AAx?$AAp?$AAr?$AAe?$AAs?$AAs?$AAi?$AAo?$AAn?$AA?3?$AA?5?$AA?$AA@ 10b55998     LIBCMTD:dbgrptw.obj
 0002:000049b4       ??_C@_11LOCGONAA@?$AA?$AA@ 10b559b4     LIBCMTD:dbgrptw.obj
 0002:000049b8       ??_C@_1OG@PMPPFHAF@?$AA?6?$AA?6?$AAF?$AAo?$AAr?$AA?5?$AAi?$AAn?$AAf?$AAo?$AAr?$AAm?$AAa?$AAt?$AAi?$AAo?$AAn?$AA?5?$AAo?$AAn?$AA?5?$AAh?$AAo?$AAw?$AA?5?$AAy?$AAo?$AAu?$AAr?$AA?5?$AAp?$AAr@ 10b559b8     LIBCMTD:dbgrptw.obj
 0002:00004aa0       ??_C@_1NO@LECLLHOL@?$AAm?$AAe?$AAm?$AAc?$AAp?$AAy?$AA_?$AAs?$AA?$CI?$AAs?$AAz?$AAS?$AAh?$AAo?$AAr?$AAt?$AAP?$AAr?$AAo?$AAg?$AAN?$AAa?$AAm?$AAe?$AA?0?$AA?5?$AAs?$AAi?$AAz?$AAe?$AAo?$AAf@ 10b55aa0     LIBCMTD:dbgrptw.obj
 0002:00004b80       ??_C@_1CO@EAEJAADC@?$AA?$DM?$AAp?$AAr?$AAo?$AAg?$AAr?$AAa?$AAm?$AA?5?$AAn?$AAa?$AAm?$AAe?$AA?5?$AAu?$AAn?$AAk?$AAn?$AAo?$AAw?$AAn?$AA?$DO?$AA?$AA@ 10b55b80     LIBCMTD:dbgrptw.obj
 0002:00004bb0       ??_C@_1GI@DEDNNLCI@?$AAw?$AAc?$AAs?$AAc?$AAp?$AAy?$AA_?$AAs?$AA?$CI?$AAs?$AAz?$AAE?$AAx?$AAe?$AAN?$AAa?$AAm?$AAe?$AA?0?$AA?5?$AA2?$AA6?$AA0?$AA?0?$AA?5?$AAL?$AA?$CC?$AA?$DM?$AAp?$AAr?$AAo?$AAg@ 10b55bb0     LIBCMTD:dbgrptw.obj
 0002:00004c18       ??_C@_1CI@PGJIFDEK@?$AA_?$AA_?$AAc?$AAr?$AAt?$AAM?$AAe?$AAs?$AAs?$AAa?$AAg?$AAe?$AAW?$AAi?$AAn?$AAd?$AAo?$AAw?$AAW?$AA?$AA@ 10b55c18     LIBCMTD:dbgrptw.obj
 0002:00004c40       __FPinit                   10b55c40     LIBCMTD:_fpinit_.obj
 0002:00004c44       __FPmtinit                 10b55c44     LIBCMTD:_fpinit_.obj
 0002:00004c48       __FPmtterm                 10b55c48     LIBCMTD:_fpinit_.obj
 0002:00004c4c       ??_C@_1BK@FHMHFMNL@?$AA_?$AAv?$AAs?$AAn?$AAp?$AAr?$AAi?$AAn?$AAt?$AAf?$AA_?$AAl?$AA?$AA@ 10b55c4c     LIBCMTD:vsnprint.obj
 0002:00004c68       ??_C@_1BM@JBFIAFJJ@?$AA_?$AAv?$AAs?$AAn?$AAw?$AAp?$AAr?$AAi?$AAn?$AAt?$AAf?$AA_?$AAl?$AA?$AA@ 10b55c68     LIBCMTD:vsnwprnt.obj
 0002:00004c88       ??_C@_1GE@KINELFI@?$AAf?$AA?3?$AA?2?$AAd?$AAd?$AA?2?$AAv?$AAc?$AAt?$AAo?$AAo?$AAl?$AAs?$AA?2?$AAc?$AAr?$AAt?$AA_?$AAb?$AAl?$AAd?$AA?2?$AAs?$AAe?$AAl?$AAf?$AA_?$AAx?$AA8?$AA6?$AA?2?$AAc@ 10b55c88     LIBCMTD:vsnwprnt.obj
 0002:00004cec       __pDefaultRawDllMain       10b55cec     LIBCMTD:dllcrt0.obj
 0002:00004cec       __pRawDllMain              10b55cec     LIBCMTD:dllcrt0.obj
 0002:00004cf0       ??_C@_0DB@OLNOAEGF@f?3?2dd?2vctools?2crt_bld?2self_x86?2c@ 10b55cf0     LIBCMTD:dllcrt0.obj
 0002:00004d24       ??_C@_0CP@BNKDODJJ@f?3?2dd?2vctools?2crt_bld?2self_x86?2c@ 10b55d24     LIBCMTD:_file.obj
 0002:00004d54       ??_C@_06PJIGMIJB@Client?$AA@ 10b55d54     LIBCMTD:dbgheap.obj
 0002:00004d5c       ??_C@_06KMEJCCGM@Ignore?$AA@ 10b55d5c     LIBCMTD:dbgheap.obj
 0002:00004d64       ??_C@_03OGPFLFLO@CRT?$AA@  10b55d64     LIBCMTD:dbgheap.obj
 0002:00004d68       ??_C@_06EFAGIKOH@Normal?$AA@ 10b55d68     LIBCMTD:dbgheap.obj
 0002:00004d70       ??_C@_04HJMOFLDF@Free?$AA@ 10b55d70     LIBCMTD:dbgheap.obj
 0002:00004d8c       ??_C@_0DC@JEMAGEKG@Error?3?5memory?5allocation?3?5bad?5me@ 10b55d8c     LIBCMTD:dbgheap.obj
 0002:00004dc0       ??_C@_0CF@BICKFLAF@Invalid?5allocation?5size?3?5?$CFIu?5byt@ 10b55dc0     LIBCMTD:dbgheap.obj
 0002:00004de8       ??_C@_02DKCKIIND@?$CFs?$AA@ 10b55de8     LIBCMTD:dbgheap.obj
 0002:00004dec       ??_C@_0CB@CCLOLAHO@Client?5hook?5allocation?5failure?4?6@ 10b55dec     LIBCMTD:dbgheap.obj
 0002:00004e10       ??_C@_0DF@BBEGIFEK@Client?5hook?5allocation?5failure?5a@ 10b55e10     LIBCMTD:dbgheap.obj
 0002:00004e48       ??_C@_1GC@DNJKKEAA@?$AAf?$AA?3?$AA?2?$AAd?$AAd?$AA?2?$AAv?$AAc?$AAt?$AAo?$AAo?$AAl?$AAs?$AA?2?$AAc?$AAr?$AAt?$AA_?$AAb?$AAl?$AAd?$AA?2?$AAs?$AAe?$AAl?$AAf?$AA_?$AAx?$AA8?$AA6?$AA?2?$AAc@ 10b55e48     LIBCMTD:dbgheap.obj
 0002:00004eac       ??_C@_1CE@LJFEPPMP@?$AA_?$AAC?$AAr?$AAt?$AAC?$AAh?$AAe?$AAc?$AAk?$AAM?$AAe?$AAm?$AAo?$AAr?$AAy?$AA?$CI?$AA?$CJ?$AA?$AA@ 10b55eac     LIBCMTD:dbgheap.obj
 0002:00004ed0       ??_C@_1CC@CKBDKDFF@?$AA_?$AAc?$AAa?$AAl?$AAl?$AAo?$AAc?$AA_?$AAd?$AAb?$AAg?$AA_?$AAi?$AAm?$AAp?$AAl?$AA?$AA@ 10b55ed0     LIBCMTD:dbgheap.obj
 0002:00004ef4       ??_C@_1DO@MEOGCGBN@?$AA?$CI?$AA_?$AAH?$AAE?$AAA?$AAP?$AA_?$AAM?$AAA?$AAX?$AAR?$AAE?$AAQ?$AA?5?$AA?1?$AA?5?$AAn?$AAN?$AAu?$AAm?$AA?$CJ?$AA?5?$AA?$DO?$AA?$DN?$AA?5?$AAn?$AAS?$AAi?$AAz?$AAe?$AA?$AA@ 10b55ef4     LIBCMTD:dbgheap.obj
 0002:00004f34       ??_C@_1DE@KOOKLFBB@?$AA_?$AAp?$AAF?$AAi?$AAr?$AAs?$AAt?$AAB?$AAl?$AAo?$AAc?$AAk?$AA?5?$AA?$DN?$AA?$DN?$AA?5?$AAp?$AAO?$AAl?$AAd?$AAB?$AAl?$AAo?$AAc?$AAk?$AA?$AA@ 10b55f34     LIBCMTD:dbgheap.obj
 0002:00004f68       ??_C@_1DC@GEFKNOOL@?$AA_?$AAp?$AAL?$AAa?$AAs?$AAt?$AAB?$AAl?$AAo?$AAc?$AAk?$AA?5?$AA?$DN?$AA?$DN?$AA?5?$AAp?$AAO?$AAl?$AAd?$AAB?$AAl?$AAo?$AAc?$AAk?$AA?$AA@ 10b55f68     LIBCMTD:dbgheap.obj
 0002:00004fa0       ??_C@_1GE@PCKLOLAO@?$AAf?$AAR?$AAe?$AAa?$AAl?$AAl?$AAo?$AAc?$AA?5?$AA?$HM?$AA?$HM?$AA?5?$AA?$CI?$AA?$CB?$AAf?$AAR?$AAe?$AAa?$AAl?$AAl?$AAo?$AAc?$AA?5?$AA?$CG?$AA?$CG?$AA?5?$AAp?$AAN?$AAe?$AAw?$AAB?$AAl@ 10b55fa0     LIBCMTD:dbgheap.obj
 0002:00005004       ??_C@_0DA@HFBKENN@Error?3?5possible?5heap?5corruption?5@ 10b56004     LIBCMTD:dbgheap.obj
 0002:00005038       ??_C@_1IK@DCPKDGNH@?$AAp?$AAO?$AAl?$AAd?$AAB?$AAl?$AAo?$AAc?$AAk?$AA?9?$AA?$DO?$AAn?$AAL?$AAi?$AAn?$AAe?$AA?5?$AA?$DN?$AA?$DN?$AA?5?$AAI?$AAG?$AAN?$AAO?$AAR?$AAE?$AA_?$AAL?$AAI?$AAN?$AAE?$AA?5@ 10b56038     LIBCMTD:dbgheap.obj
 0002:000050c8       ??_C@_1EE@GFOPCECE@?$AA_?$AAC?$AAr?$AAt?$AAI?$AAs?$AAV?$AAa?$AAl?$AAi?$AAd?$AAH?$AAe?$AAa?$AAp?$AAP?$AAo?$AAi?$AAn?$AAt?$AAe?$AAr?$AA?$CI?$AAp?$AAU?$AAs?$AAe?$AAr?$AAD?$AAa?$AAt?$AAa@ 10b560c8     LIBCMTD:dbgheap.obj
 0002:00005110       ??_C@_0EM@LGFLMAGJ@The?5Block?5at?50x?$CFp?5was?5allocated?5@ 10b56110     LIBCMTD:dbgheap.obj
 0002:00005160       ??_C@_0FA@EFEIGJKG@Error?3?5memory?5allocation?3?5bad?5me@ 10b56160     LIBCMTD:dbgheap.obj
 0002:000051b0       ??_C@_0ED@GPCPBAGP@Invalid?5allocation?5size?3?5?$CFIu?5byt@ 10b561b0     LIBCMTD:dbgheap.obj
 0002:000051f4       ??_C@_0CE@DOFMDOL@Client?5hook?5re?9allocation?5failur@ 10b561f4     LIBCMTD:dbgheap.obj
 0002:00005218       ??_C@_0DI@KKJPDPGM@Client?5hook?5re?9allocation?5failur@ 10b56218     LIBCMTD:dbgheap.obj
 0002:00005250       ??_C@_1CE@CJACEFBA@?$AAp?$AAU?$AAs?$AAe?$AAr?$AAD?$AAa?$AAt?$AAa?$AA?5?$AA?$CB?$AA?$DN?$AA?5?$AAN?$AAU?$AAL?$AAL?$AA?$AA@ 10b56250     LIBCMTD:dbgheap.obj
 0002:00005274       ??_C@_1CM@MMAADDMD@?$AA_?$AAp?$AAF?$AAi?$AAr?$AAs?$AAt?$AAB?$AAl?$AAo?$AAc?$AAk?$AA?5?$AA?$DN?$AA?$DN?$AA?5?$AAp?$AAH?$AAe?$AAa?$AAd?$AA?$AA@ 10b56274     LIBCMTD:dbgheap.obj
 0002:000052a0       ??_C@_1CK@DMAGEMBG@?$AA_?$AAp?$AAL?$AAa?$AAs?$AAt?$AAB?$AAl?$AAo?$AAc?$AAk?$AA?5?$AA?$DN?$AA?$DN?$AA?5?$AAp?$AAH?$AAe?$AAa?$AAd?$AA?$AA@ 10b562a0     LIBCMTD:dbgheap.obj
 0002:000052cc       ??_C@_1DM@ODCJIDCP@?$AAp?$AAH?$AAe?$AAa?$AAd?$AA?9?$AA?$DO?$AAn?$AAB?$AAl?$AAo?$AAc?$AAk?$AAU?$AAs?$AAe?$AA?5?$AA?$DN?$AA?$DN?$AA?5?$AAn?$AAB?$AAl?$AAo?$AAc?$AAk?$AAU?$AAs?$AAe?$AA?$AA@ 10b562cc     LIBCMTD:dbgheap.obj
 0002:00005308       ??_C@_1HK@HPCBMDFG@?$AAp?$AAH?$AAe?$AAa?$AAd?$AA?9?$AA?$DO?$AAn?$AAL?$AAi?$AAn?$AAe?$AA?5?$AA?$DN?$AA?$DN?$AA?5?$AAI?$AAG?$AAN?$AAO?$AAR?$AAE?$AA_?$AAL?$AAI?$AAN?$AAE?$AA?5?$AA?$CG?$AA?$CG?$AA?5?$AAp@ 10b56308     LIBCMTD:dbgheap.obj
 0002:00005388       ??_C@_0IG@LEMBDCJK@HEAP?5CORRUPTION?5DETECTED?3?5after?5@ 10b56388     LIBCMTD:dbgheap.obj
 0002:00005410       ??_C@_0KE@MBMNHHHN@HEAP?5CORRUPTION?5DETECTED?3?5after?5@ 10b56410     LIBCMTD:dbgheap.obj
 0002:000054b8       ??_C@_0IK@PJCGLBOB@HEAP?5CORRUPTION?5DETECTED?3?5before@ 10b564b8     LIBCMTD:dbgheap.obj
 0002:00005548       ??_C@_0KI@JGFOHMEB@HEAP?5CORRUPTION?5DETECTED?3?5before@ 10b56548     LIBCMTD:dbgheap.obj
 0002:000055f0       ??_C@_0BL@KEIPLFAC@Client?5hook?5free?5failure?4?6?$AA@ 10b565f0     LIBCMTD:dbgheap.obj
 0002:00005610       ??_C@_0EJ@HEIBCIMJ@The?5Block?5at?50x?$CFp?5was?5allocated?5@ 10b56610     LIBCMTD:dbgheap.obj
 0002:0000565c       ??_C@_1BG@MBKOGDLD@?$AA_?$AAm?$AAs?$AAi?$AAz?$AAe?$AA_?$AAd?$AAb?$AAg?$AA?$AA@ 10b5665c     LIBCMTD:dbgheap.obj
 0002:00005674       ??_C@_0CI@JMLBEDHJ@?$CFhs?5located?5at?50x?$CFp?5is?5?$CFIu?5bytes@ 10b56674     LIBCMTD:dbgheap.obj
 0002:000056a0       ??_C@_0EG@DGJMPDBH@?$CFhs?5located?5at?50x?$CFp?5is?5?$CFIu?5bytes@ 10b566a0     LIBCMTD:dbgheap.obj
 0002:000056e8       ??_C@_0IC@BBJIOOJH@HEAP?5CORRUPTION?5DETECTED?3?5on?5top@ 10b566e8     LIBCMTD:dbgheap.obj
 0002:00005770       ??_C@_0KA@IHNJJKPL@HEAP?5CORRUPTION?5DETECTED?3?5on?5top@ 10b56770     LIBCMTD:dbgheap.obj
 0002:00005810       ??_C@_07OHKEFPKJ@DAMAGED?$AA@ 10b56810     LIBCMTD:dbgheap.obj
 0002:00005818       ??_C@_0CL@HNNNMKMJ@_heapchk?5fails?5with?5unknown?5retu@ 10b56818     LIBCMTD:dbgheap.obj
 0002:00005844       ??_C@_0CC@MFFCHFHO@_heapchk?5fails?5with?5_HEAPBADPTR?4@ 10b56844     LIBCMTD:dbgheap.obj
 0002:00005868       ??_C@_0CC@MJGLGBDG@_heapchk?5fails?5with?5_HEAPBADEND?4@ 10b56868     LIBCMTD:dbgheap.obj
 0002:0000588c       ??_C@_0CD@CPKEAPBD@_heapchk?5fails?5with?5_HEAPBADNODE@ 10b5688c     LIBCMTD:dbgheap.obj
 0002:000058b0       ??_C@_0CE@MKKHMBMK@_heapchk?5fails?5with?5_HEAPBADBEGI@ 10b568b0     LIBCMTD:dbgheap.obj
 0002:000058d4       ??_C@_1BO@GJFDNMNF@?$AA_?$AAC?$AAr?$AAt?$AAS?$AAe?$AAt?$AAD?$AAb?$AAg?$AAF?$AAl?$AAa?$AAg?$AA?$AA@ 10b568d4     LIBCMTD:dbgheap.obj
 0002:000058f8       ??_C@_1BHO@NNANJNF@?$AA?$CI?$AAf?$AAN?$AAe?$AAw?$AAB?$AAi?$AAt?$AAs?$AA?$DN?$AA?$DN?$AA_?$AAC?$AAR?$AAT?$AAD?$AAB?$AAG?$AA_?$AAR?$AAE?$AAP?$AAO?$AAR?$AAT?$AA_?$AAF?$AAL?$AAA?$AAG?$AA?$CJ?$AA?5@ 10b568f8     LIBCMTD:dbgheap.obj
 0002:00005a78       ??_C@_0CB@EAAIGELO@Bad?5memory?5block?5found?5at?50x?$CFp?4?6@ 10b56a78     LIBCMTD:dbgheap.obj
 0002:00005a9c       ??_C@_0DP@LEFMFBOD@Bad?5memory?5block?5found?5at?50x?$CFp?4?6@ 10b56a9c     LIBCMTD:dbgheap.obj
 0002:00005adc       ??_C@_1CE@NJJKELF@?$AA_?$AAC?$AAr?$AAt?$AAM?$AAe?$AAm?$AAC?$AAh?$AAe?$AAc?$AAk?$AAp?$AAo?$AAi?$AAn?$AAt?$AA?$AA@ 10b56adc     LIBCMTD:dbgheap.obj
 0002:00005b00       ??_C@_1BM@MIMANDHC@?$AAs?$AAt?$AAa?$AAt?$AAe?$AA?5?$AA?$CB?$AA?$DN?$AA?5?$AAN?$AAU?$AAL?$AAL?$AA?$AA@ 10b56b00     LIBCMTD:dbgheap.obj
 0002:00005b1c       ??_C@_0BH@GFGKJDCO@Object?5dump?5complete?4?6?$AA@ 10b56b1c     LIBCMTD:dbgheap.obj
 0002:00005b34       ??_C@_0DA@MDLBNIBM@crt?5block?5at?50x?$CFp?0?5subtype?5?$CFx?0?5?$CF@ 10b56b34     LIBCMTD:dbgheap.obj
 0002:00005b64       ??_C@_0CH@FAGDDGPN@normal?5block?5at?50x?$CFp?0?5?$CFIu?5bytes?5@ 10b56b64     LIBCMTD:dbgheap.obj
 0002:00005b8c       ??_C@_0DD@GHNAAKBB@client?5block?5at?50x?$CFp?0?5subtype?5?$CFx@ 10b56b8c     LIBCMTD:dbgheap.obj
 0002:00005bc0       ??_C@_06PKLGBFGM@?$HL?$CFld?$HN?5?$AA@ 10b56bc0     LIBCMTD:dbgheap.obj
 0002:00005bc8       ??_C@_0L@JMEFFCCJ@?$CFhs?$CI?$CFd?$CJ?5?3?5?$AA@ 10b56bc8     LIBCMTD:dbgheap.obj
 0002:00005bd4       ??_C@_0BE@OIEFNFL@?$CDFile?5Error?$CD?$CI?$CFd?$CJ?5?3?5?$AA@ 10b56bd4     LIBCMTD:dbgheap.obj
 0002:00005be8       ??_C@_0BE@KCIPKCIA@Dumping?5objects?5?9?$DO?6?$AA@ 10b56be8     LIBCMTD:dbgheap.obj
 0002:00005bfc       ??_C@_0BA@HJBKCELP@?5Data?3?5?$DM?$CFs?$DO?5?$CFs?6?$AA@ 10b56bfc     LIBCMTD:dbgheap.obj
 0002:00005c0c       ??_C@_1CG@LPFIACGM@?$AA_?$AAp?$AAr?$AAi?$AAn?$AAt?$AAM?$AAe?$AAm?$AAB?$AAl?$AAo?$AAc?$AAk?$AAD?$AAa?$AAt?$AAa?$AA?$AA@ 10b56c0c     LIBCMTD:dbgheap.obj
 0002:00005c34       ??_C@_05MKKEDADM@?$CF?42X?5?$AA@ 10b56c34     LIBCMTD:dbgheap.obj
 0002:00005c3c       ??_C@_0BI@JBFPOEJA@Detected?5memory?5leaks?$CB?6?$AA@ 10b56c3c     LIBCMTD:dbgheap.obj
 0002:00005c58       ??_C@_1HO@MLMGPAFH@?$AA?$CI?$AA?$CC?$AAi?$AAn?$AAc?$AAo?$AAn?$AAs?$AAi?$AAs?$AAt?$AAe?$AAn?$AAt?$AA?5?$AAI?$AAO?$AAB?$AA?5?$AAf?$AAi?$AAe?$AAl?$AAd?$AAs?$AA?$CC?$AA?0?$AA?5?$AAs?$AAt?$AAr?$AAe@ 10b56c58     LIBCMTD:_flsbuf.obj
 0002:00005cd8       ??_C@_1GC@GNCCMPNN@?$AAf?$AA?3?$AA?2?$AAd?$AAd?$AA?2?$AAv?$AAc?$AAt?$AAo?$AAo?$AAl?$AAs?$AA?2?$AAc?$AAr?$AAt?$AA_?$AAb?$AAl?$AAd?$AA?2?$AAs?$AAe?$AAl?$AAf?$AA_?$AAx?$AA8?$AA6?$AA?2?$AAc@ 10b56cd8     LIBCMTD:_flsbuf.obj
 0002:00005d3c       ??_C@_1BI@MFCLPIBM@?$AAs?$AAt?$AAr?$AA?5?$AA?$CB?$AA?$DN?$AA?5?$AAN?$AAU?$AAL?$AAL?$AA?$AA@ 10b56d3c     LIBCMTD:_flsbuf.obj
 0002:00005d54       ??_C@_1O@CEDCILHN@?$AA?$CI?$AAn?$AAu?$AAl?$AAl?$AA?$CJ?$AA?$AA@ 10b56d54     LIBCMTD:output.obj
 0002:00005d64       ??_C@_06OJHGLDPL@?$CInull?$CJ?$AA@ 10b56d64     LIBCMTD:output.obj
 0002:00005d70       ___lookuptable             10b56d70     LIBCMTD:output.obj
 0002:00005dcc       ??_C@_0DA@NFBEBPEE@f?3?2dd?2vctools?2crt_bld?2self_x86?2c@ 10b56dcc     LIBCMTD:output.obj
 0002:00005e00       ??_C@_1EK@PNGFDECN@?$AA?$CI?$AA?$CC?$AA?8?$AAn?$AA?8?$AA?5?$AAf?$AAo?$AAr?$AAm?$AAa?$AAt?$AA?5?$AAs?$AAp?$AAe?$AAc?$AAi?$AAf?$AAi?$AAe?$AAr?$AA?5?$AAd?$AAi?$AAs?$AAa?$AAb?$AAl?$AAe?$AAd?$AA?$CC@ 10b56e00     LIBCMTD:output.obj
 0002:00005e4c       ??_C@_1CC@IFFHEMNF@?$AA?$CI?$AAc?$AAh?$AA?5?$AA?$CB?$AA?$DN?$AA?5?$AA_?$AAT?$AA?$CI?$AA?8?$AA?2?$AA0?$AA?8?$AA?$CJ?$AA?$CJ?$AA?$AA@ 10b56e4c     LIBCMTD:output.obj
 0002:00005e70       ??_C@_1BE@IONLIDNC@?$AA_?$AAo?$AAu?$AAt?$AAp?$AAu?$AAt?$AA_?$AAl?$AA?$AA@ 10b56e70     LIBCMTD:output.obj
 0002:00005e88       ??_C@_1GA@HHFOFBLN@?$AAf?$AA?3?$AA?2?$AAd?$AAd?$AA?2?$AAv?$AAc?$AAt?$AAo?$AAo?$AAl?$AAs?$AA?2?$AAc?$AAr?$AAt?$AA_?$AAb?$AAl?$AAd?$AA?2?$AAs?$AAe?$AAl?$AAf?$AA_?$AAx?$AA8?$AA6?$AA?2?$AAc@ 10b56e88     LIBCMTD:output.obj
 0002:00005ee8       __pDestructExceptionObject 10b56ee8     LIBCMTD:frame.obj
 0002:00005eec       ??_C@_0O@DPKOEFFH@bad?5exception?$AA@ 10b56eec     LIBCMTD:frame.obj
 0002:00005f00       ??_7bad_exception@std@@6B@ 10b56f00     LIBCMTD:frame.obj
 0002:00005f08       ??_C@_0O@NLDKAIKN@EncodePointer?$AA@ 10b56f08     LIBCMTD:tidtable.obj
 0002:00005f18       ??_C@_1BK@DBDEIDLH@?$AAK?$AAE?$AAR?$AAN?$AAE?$AAL?$AA3?$AA2?$AA?4?$AAD?$AAL?$AAL?$AA?$AA@ 10b56f18     LIBCMTD:tidtable.obj
 0002:00005f34       ??_C@_0O@KBPMFGHI@DecodePointer?$AA@ 10b56f34     LIBCMTD:tidtable.obj
 0002:00005f44       ??_C@_0DC@LMJHGCKC@f?3?2dd?2vctools?2crt_bld?2self_x86?2c@ 10b56f44     LIBCMTD:tidtable.obj
 0002:00005f78       ??_C@_07PEJMOBNF@FlsFree?$AA@ 10b56f78     LIBCMTD:tidtable.obj
 0002:00005f80       ??_C@_0M@JCPCPOEF@FlsSetValue?$AA@ 10b56f80     LIBCMTD:tidtable.obj
 0002:00005f8c       ??_C@_0M@GDNOONDI@FlsGetValue?$AA@ 10b56f8c     LIBCMTD:tidtable.obj
 0002:00005f98       ??_C@_08KNHFBNJ@FlsAlloc?$AA@ 10b56f98     LIBCMTD:tidtable.obj
 0002:00005fac       ??_C@_0BO@GNIAFIKK@Unknown?5Runtime?5Check?5Error?6?$AN?$AA@ 10b56fac     LIBCMTD:_error_.obj
 0002:00005fcc       ??_C@_0CM@NGINOKPC@Stack?5memory?5around?5_alloca?5was?5@ 10b56fcc     LIBCMTD:_error_.obj
 0002:00005ff8       ??_C@_0DG@HKJMLLLP@A?5local?5variable?5was?5used?5before@ 10b56ff8     LIBCMTD:_error_.obj
 0002:00006030       ??_C@_0BN@FFOINMNJ@Stack?5memory?5was?5corrupted?6?$AN?$AA@ 10b57030     LIBCMTD:_error_.obj
 0002:00006050       ??_C@_0BBN@GPMLNJCF@A?5cast?5to?5a?5smaller?5data?5type?5ha@ 10b57050     LIBCMTD:_error_.obj
 0002:00006170       ??_C@_0NN@NGPKDKPD@The?5value?5of?5ESP?5was?5not?5properl@ 10b57170     LIBCMTD:_error_.obj
 0002:000062ec       ??_C@_0CA@IODNCDPG@Run?9Time?5Check?5Failure?5?$CD?$CFd?5?9?5?$CFs?$AA@ 10b572ec     LIBCMTD:_error_.obj
 0002:0000630c       ??_C@_0BE@GNBOBNCK@Unknown?5Module?5Name?$AA@ 10b5730c     LIBCMTD:_error_.obj
 0002:00006320       ??_C@_0BB@PFFGGCJP@Unknown?5Filename?$AA@ 10b57320     LIBCMTD:_error_.obj
 0002:00006338       ??_C@_1EA@NFKNIFJP@?$AAR?$AAu?$AAn?$AA?9?$AAT?$AAi?$AAm?$AAe?$AA?5?$AAC?$AAh?$AAe?$AAc?$AAk?$AA?5?$AAF?$AAa?$AAi?$AAl?$AAu?$AAr?$AAe?$AA?5?$AA?$CD?$AA?$CF?$AAd?$AA?5?$AA?9?$AA?5?$AA?$CF?$AAs?$AA?$AA@ 10b57338     LIBCMTD:_error_.obj
 0002:00006378       ??_C@_1GM@OLMCBDMB@?$AAR?$AAu?$AAn?$AAt?$AAi?$AAm?$AAe?$AA?5?$AAC?$AAh?$AAe?$AAc?$AAk?$AA?5?$AAE?$AAr?$AAr?$AAo?$AAr?$AA?4?$AA?6?$AA?$AN?$AA?5?$AAU?$AAn?$AAa?$AAb?$AAl?$AAe?$AA?5?$AAt?$AAo@ 10b57378     LIBCMTD:_error_.obj
 0002:000063e4       ??_C@_0CG@IAFNJNEE@Stack?5corrupted?5near?5unknown?5var@ 10b573e4     LIBCMTD:_error_.obj
 0002:00006410       ??_C@_0EJ@LJKNEOLN@Stack?5area?5around?5_alloca?5memory@ 10b57410     LIBCMTD:_error_.obj
 0002:0000645c       ??_C@_08KJEDNCKC@?$CFs?$CFs?$CFs?$CFs?$AA@ 10b5745c     LIBCMTD:_error_.obj
 0002:00006468       ??_C@_02LLMPMKNF@?$DO?5?$AA@ 10b57468     LIBCMTD:_error_.obj
 0002:0000646c       ??_C@_0BC@KIBAILCI@?$CFs?$CFs?$CFp?$CFs?$CFld?$CFs?$CFd?$CFs?$AA@ 10b5746c     LIBCMTD:_error_.obj
 0002:00006480       ??_C@_0EI@CLEPFNGI@Stack?5area?5around?5_alloca?5memory@ 10b57480     LIBCMTD:_error_.obj
 0002:000064c8       ??_C@_0N@MHFFIMFG@?6Address?3?50x?$AA@ 10b574c8     LIBCMTD:_error_.obj
 0002:000064d8       ??_C@_07DFDJCKFN@?6Size?3?5?$AA@ 10b574d8     LIBCMTD:_error_.obj
 0002:000064e0       ??_C@_0CK@DKGBICFE@?6Allocation?5number?5within?5this?5f@ 10b574e0     LIBCMTD:_error_.obj
 0002:0000650c       ??_C@_08OMAHNMHJ@?6Data?3?5?$DM?$AA@ 10b5750c     LIBCMTD:_error_.obj
 0002:00006518       ??_C@_09FOPFMPEJ@wsprintfA?$AA@ 10b57518     LIBCMTD:_error_.obj
 0002:00006524       ??_C@_0L@GMPLCCII@user32?4dll?$AA@ 10b57524     LIBCMTD:_error_.obj
 0002:00006530       ??_C@_0BP@OGBCLIBO@Stack?5around?5_alloca?5corrupted?$AA@ 10b57530     LIBCMTD:_userapi_.obj
 0002:00006550       ??_C@_0CK@CNLNOEPB@Local?5variable?5used?5before?5initi@ 10b57550     LIBCMTD:_userapi_.obj
 0002:0000657c       ??_C@_0BI@CIGMDCBH@Stack?5memory?5corruption?$AA@ 10b5757c     LIBCMTD:_userapi_.obj
 0002:00006594       ??_C@_0CK@FEGOIOPB@Cast?5to?5smaller?5type?5causing?5los@ 10b57594     LIBCMTD:_userapi_.obj
 0002:000065c0       ??_C@_0BJ@HEGAHDFO@Stack?5pointer?5corruption?$AA@ 10b575c0     LIBCMTD:_userapi_.obj
 0002:000065f0       ??_C@_00CNPNBAHC@?$AA@     10b575f0     LIBCMTD:chkesp.obj
 0002:000065f8       ??_C@_1JE@ECKHFIFP@?$AA?$CI?$AA?$CC?$AAI?$AAn?$AAv?$AAa?$AAl?$AAi?$AAd?$AA?5?$AAf?$AAi?$AAl?$AAe?$AA?5?$AAd?$AAe?$AAs?$AAc?$AAr?$AAi?$AAp?$AAt?$AAo?$AAr?$AA?4?$AA?5?$AAF?$AAi?$AAl?$AAe?$AA?5@ 10b575f8     LIBCMTD:close.obj
 0002:0000668c       ??_C@_1CM@OKGMMMDH@?$AA?$CI?$AA_?$AAo?$AAs?$AAf?$AAi?$AAl?$AAe?$AA?$CI?$AAf?$AAh?$AA?$CJ?$AA?5?$AA?$CG?$AA?5?$AAF?$AAO?$AAP?$AAE?$AAN?$AA?$CJ?$AA?$AA@ 10b5768c     LIBCMTD:close.obj
 0002:000066b8       ??_C@_1O@EDEJGJBM@?$AA_?$AAc?$AAl?$AAo?$AAs?$AAe?$AA?$AA@ 10b576b8     LIBCMTD:close.obj
 0002:000066c8       ??_C@_1FO@NNGNFGFH@?$AAf?$AA?3?$AA?2?$AAd?$AAd?$AA?2?$AAv?$AAc?$AAt?$AAo?$AAo?$AAl?$AAs?$AA?2?$AAc?$AAr?$AAt?$AA_?$AAb?$AAl?$AAd?$AA?2?$AAs?$AAe?$AAl?$AAf?$AA_?$AAx?$AA8?$AA6?$AA?2?$AAc@ 10b576c8     LIBCMTD:close.obj
 0002:00006728       ??_C@_1FO@LPCLHKGE@?$AA?$CI?$AAf?$AAh?$AA?5?$AA?$DO?$AA?$DN?$AA?5?$AA0?$AA?5?$AA?$CG?$AA?$CG?$AA?5?$AA?$CI?$AAu?$AAn?$AAs?$AAi?$AAg?$AAn?$AAe?$AAd?$AA?$CJ?$AAf?$AAh?$AA?5?$AA?$DM?$AA?5?$AA?$CI?$AAu?$AAn?$AAs?$AAi@ 10b57728     LIBCMTD:close.obj
 0002:00006788       ??_C@_1BA@JGHIEKKM@?$AA_?$AAf?$AAi?$AAl?$AAe?$AAn?$AAo?$AA?$AA@ 10b57788     LIBCMTD:fileno.obj
 0002:00006798       ??_C@_1GA@PBJHELNC@?$AAf?$AA?3?$AA?2?$AAd?$AAd?$AA?2?$AAv?$AAc?$AAt?$AAo?$AAo?$AAl?$AAs?$AA?2?$AAc?$AAr?$AAt?$AA_?$AAb?$AAl?$AAd?$AA?2?$AAs?$AAe?$AAl?$AAf?$AA_?$AAx?$AA8?$AA6?$AA?2?$AAc@ 10b57798     LIBCMTD:fileno.obj
 0002:000067f8       ??_C@_1GE@MIMBMOF@?$AAf?$AA?3?$AA?2?$AAd?$AAd?$AA?2?$AAv?$AAc?$AAt?$AAo?$AAo?$AAl?$AAs?$AA?2?$AAc?$AAr?$AAt?$AA_?$AAb?$AAl?$AAd?$AA?2?$AAs?$AAe?$AAl?$AAf?$AA_?$AAx?$AA8?$AA6?$AA?2?$AAc@ 10b577f8     LIBCMTD:_freebuf.obj
 0002:0000685c       ??_C@_1BO@KIJENGPH@?$AAs?$AAt?$AAr?$AAe?$AAa?$AAm?$AA?5?$AA?$CB?$AA?$DN?$AA?5?$AAN?$AAU?$AAL?$AAL?$AA?$AA@ 10b5785c     LIBCMTD:_freebuf.obj
 0002:0000687c       ??_C@_0DB@OLNNDFNH@f?3?2dd?2vctools?2crt_bld?2self_x86?2c@ 10b5787c     LIBCMTD:_sftbuf.obj
 0002:000068b0       ??_C@_1GC@DGAFOCMO@?$AAf?$AA?3?$AA?2?$AAd?$AAd?$AA?2?$AAv?$AAc?$AAt?$AAo?$AAo?$AAl?$AAs?$AA?2?$AAc?$AAr?$AAt?$AA_?$AAb?$AAl?$AAd?$AA?2?$AAs?$AAe?$AAl?$AAf?$AA_?$AAx?$AA8?$AA6?$AA?2?$AAc@ 10b578b0     LIBCMTD:_sftbuf.obj
 0002:00006914       ??_C@_1CO@KCKAACMI@?$AAf?$AAl?$AAa?$AAg?$AA?5?$AA?$DN?$AA?$DN?$AA?5?$AA0?$AA?5?$AA?$HM?$AA?$HM?$AA?5?$AAf?$AAl?$AAa?$AAg?$AA?5?$AA?$DN?$AA?$DN?$AA?5?$AA1?$AA?$AA@ 10b57914     LIBCMTD:_sftbuf.obj
 0002:00006944       ??_C@_0DA@NBLAKPEL@f?3?2dd?2vctools?2crt_bld?2self_x86?2c@ 10b57944     LIBCMTD:ioinit.obj
 0002:00006994       ??_C@_1CI@KEDPFCAL@?$AA?$CI?$AA?$CK?$AAm?$AAo?$AAd?$AAe?$AA?5?$AA?$DN?$AA?$DN?$AA?5?$AA_?$AAT?$AA?$CI?$AA?8?$AA?2?$AA0?$AA?8?$AA?$CJ?$AA?$CJ?$AA?$AA@ 10b57994     LIBCMTD:_open.obj
 0002:000069bc       ??_C@_1BE@DONHJJKE@?$AA_?$AAo?$AAp?$AAe?$AAn?$AAf?$AAi?$AAl?$AAe?$AA?$AA@ 10b579bc     LIBCMTD:_open.obj
 0002:000069d0       ??_C@_1DK@PKMJBLLN@?$AA?$CI?$AA?$CC?$AAI?$AAn?$AAv?$AAa?$AAl?$AAi?$AAd?$AA?5?$AAf?$AAi?$AAl?$AAe?$AA?5?$AAo?$AAp?$AAe?$AAn?$AA?5?$AAm?$AAo?$AAd?$AAe?$AA?$CC?$AA?0?$AA0?$AA?$CJ?$AA?$AA@ 10b579d0     LIBCMTD:_open.obj
 0002:00006a0c       ??_C@_1BK@HGLMNMEC@?$AAm?$AAo?$AAd?$AAe?$AA?5?$AA?$CB?$AA?$DN?$AA?5?$AAN?$AAU?$AAL?$AAL?$AA?$AA@ 10b57a0c     LIBCMTD:_open.obj
 0002:00006a28       ??_C@_1FO@POGAHKND@?$AAf?$AA?3?$AA?2?$AAd?$AAd?$AA?2?$AAv?$AAc?$AAt?$AAo?$AAo?$AAl?$AAs?$AA?2?$AAc?$AAr?$AAt?$AA_?$AAb?$AAl?$AAd?$AA?2?$AAs?$AAe?$AAl?$AAf?$AA_?$AAx?$AA8?$AA6?$AA?2?$AAc@ 10b57a28     LIBCMTD:_open.obj
 0002:00006a88       ??_C@_1CC@JBMDNKJP@?$AAf?$AAi?$AAl?$AAe?$AAn?$AAa?$AAm?$AAe?$AA?5?$AA?$CB?$AA?$DN?$AA?5?$AAN?$AAU?$AAL?$AAL?$AA?$AA@ 10b57a88     LIBCMTD:_open.obj
 0002:00006aac       ??_C@_0DA@NLPACBPK@f?3?2dd?2vctools?2crt_bld?2self_x86?2c@ 10b57aac     LIBCMTD:stream.obj
 0002:00006ae0       ___lookuptable_s           10b57ae0     LIBCMTD:outputs.obj
 0002:00006b40       ??_C@_1FK@LNCFKALM@?$AA?$CI?$AA?$CI?$AAs?$AAt?$AAa?$AAt?$AAe?$AA?5?$AA?$DN?$AA?$DN?$AA?5?$AAS?$AAT?$AA_?$AAN?$AAO?$AAR?$AAM?$AAA?$AAL?$AA?$CJ?$AA?5?$AA?$HM?$AA?$HM?$AA?5?$AA?$CI?$AAs?$AAt?$AAa?$AAt?$AAe?$AA?5@ 10b57b40     LIBCMTD:outputs.obj
 0002:00006ba0       ??_C@_1EE@DMAIGNBG@?$AA?$CI?$AA?$CC?$AAI?$AAn?$AAc?$AAo?$AAr?$AAr?$AAe?$AAc?$AAt?$AA?5?$AAf?$AAo?$AAr?$AAm?$AAa?$AAt?$AA?5?$AAs?$AAp?$AAe?$AAc?$AAi?$AAf?$AAi?$AAe?$AAr?$AA?$CC?$AA?0?$AA?5?$AA0@ 10b57ba0     LIBCMTD:outputs.obj
 0002:00006be4       ??_C@_1BI@COFBLHCG@?$AA_?$AAo?$AAu?$AAt?$AAp?$AAu?$AAt?$AA_?$AAs?$AA_?$AAl?$AA?$AA@ 10b57be4     LIBCMTD:outputs.obj
 0002:00006c00       ??_C@_1FE@CEHLKAHD@?$AAi?$AAb?$AAa?$AAs?$AAe?$AA?5?$AA?$DN?$AA?$DN?$AA?5?$AA0?$AA?5?$AA?$HM?$AA?$HM?$AA?5?$AA?$CI?$AA2?$AA?5?$AA?$DM?$AA?$DN?$AA?5?$AAi?$AAb?$AAa?$AAs?$AAe?$AA?5?$AA?$CG?$AA?$CG?$AA?5?$AAi?$AAb?$AAa@ 10b57c00     LIBCMTD:strtol.obj
 0002:00006c54       ??_C@_1BA@LOLAMAJG@?$AAs?$AAt?$AAr?$AAt?$AAo?$AAx?$AAl?$AA?$AA@ 10b57c54     LIBCMTD:strtol.obj
 0002:00006c68       ??_C@_1GA@IPHKKOEI@?$AAf?$AA?3?$AA?2?$AAd?$AAd?$AA?2?$AAv?$AAc?$AAt?$AAo?$AAo?$AAl?$AAs?$AA?2?$AAc?$AAr?$AAt?$AA_?$AAb?$AAl?$AAd?$AA?2?$AAs?$AAe?$AAl?$AAf?$AA_?$AAx?$AA8?$AA6?$AA?2?$AAc@ 10b57c68     LIBCMTD:strtol.obj
 0002:00006cc8       ??_C@_1BK@LAOAACLJ@?$AAn?$AAp?$AAt?$AAr?$AA?5?$AA?$CB?$AA?$DN?$AA?5?$AAN?$AAU?$AAL?$AAL?$AA?$AA@ 10b57cc8     LIBCMTD:strtol.obj
 0002:00006ce4       ??_C@_0CP@MKONOLCI@f?3?2dd?2vctools?2crt_bld?2self_x86?2c@ 10b57ce4     LIBCMTD:mlock.obj
 0002:00006d18       ??_C@_1HG@KNCBMCDD@?$AAf?$AA?3?$AA?2?$AAd?$AAd?$AA?2?$AAv?$AAc?$AAt?$AAo?$AAo?$AAl?$AAs?$AA?2?$AAc?$AAr?$AAt?$AA_?$AAb?$AAl?$AAd?$AA?2?$AAs?$AAe?$AAl?$AAf?$AA_?$AAx?$AA8?$AA6?$AA?2?$AAc@ 10b57d18     LIBCMTD:typname.obj
 0002:00006d90       ??_C@_1CI@IDCGDBOP@?$AAp?$AAN?$AAo?$AAd?$AAe?$AA?9?$AA?$DO?$AAn?$AAe?$AAx?$AAt?$AA?5?$AA?$CB?$AA?$DN?$AA?5?$AAN?$AAU?$AAL?$AAL?$AA?$AA@ 10b57d90     LIBCMTD:typname.obj
 0002:00006db8       ??_C@_0P@MIGLKIOC@CorExitProcess?$AA@ 10b57db8     LIBCMTD:crt0dat.obj
 0002:00006dc8       ??_C@_1BI@BGOHAHKC@?$AAm?$AAs?$AAc?$AAo?$AAr?$AAe?$AAe?$AA?4?$AAd?$AAl?$AAl?$AA?$AA@ 10b57dc8     LIBCMTD:crt0dat.obj
 0002:00006de0       ??_C@_0DB@MHMEONEC@f?3?2dd?2vctools?2crt_bld?2self_x86?2c@ 10b57de0     LIBCMTD:mbctype.obj
 0002:00006e98       ??_C@_1GE@OLEIGPBJ@?$AAf?$AA?3?$AA?2?$AAd?$AAd?$AA?2?$AAv?$AAc?$AAt?$AAo?$AAo?$AAl?$AAs?$AA?2?$AAc?$AAr?$AAt?$AA_?$AAb?$AAl?$AAd?$AA?2?$AAs?$AAe?$AAl?$AAf?$AA_?$AAx?$AA8?$AA6?$AA?2?$AAc@ 10b57e98     LIBCMTD:setlocal.obj
 0002:00006f00       ??_C@_1BKC@GGIENNAK@?$AA?$CI?$AA?$CI?$AAp?$AAt?$AAl?$AAo?$AAc?$AAi?$AA?9?$AA?$DO?$AAl?$AAc?$AA_?$AAc?$AAa?$AAt?$AAe?$AAg?$AAo?$AAr?$AAy?$AA?$FL?$AAc?$AAa?$AAt?$AAe?$AAg?$AAo?$AAr?$AAy?$AA?$FN?$AA?4@ 10b57f00     LIBCMTD:setlocal.obj
 0002:000070a4       ??_C@_01NEMOKFLO@?$DN?$AA@ 10b580a4     LIBCMTD:setlocal.obj
 0002:000070a8       ??_C@_0P@GGKDKEEG@runtime?5error?5?$AA@ 10b580a8     LIBCMTD:crt0msg.obj
 0002:000070b8       ??_C@_02PCIJFNDE@?$AN?6?$AA@ 10b580b8     LIBCMTD:crt0msg.obj
 0002:000070bc       ??_C@_0O@MJNIPGOH@TLOSS?5error?$AN?6?$AA@ 10b580bc     LIBCMTD:crt0msg.obj
 0002:000070cc       ??_C@_0N@BONNPDHF@SING?5error?$AN?6?$AA@ 10b580cc     LIBCMTD:crt0msg.obj
 0002:000070dc       ??_C@_0P@MBDAJNE@DOMAIN?5error?$AN?6?$AA@ 10b580dc     LIBCMTD:crt0msg.obj
 0002:000070f0       ??_C@_0BFB@HKKMCDOL@R6034?$AN?6An?5application?5has?5made?5a@ 10b580f0     LIBCMTD:crt0msg.obj
 0002:00007248       ??_C@_0PH@EPAFIJ@R6033?$AN?6?9?5Attempt?5to?5use?5MSIL?5cod@ 10b58248     LIBCMTD:crt0msg.obj
 0002:00007340       ??_C@_0DD@BKEEABMM@R6032?$AN?6?9?5not?5enough?5space?5for?5lo@ 10b58340     LIBCMTD:crt0msg.obj
 0002:00007378       ??_C@_0GD@OFKILIED@R6031?$AN?6?9?5Attempt?5to?5initialize?5t@ 10b58378     LIBCMTD:crt0msg.obj
 0002:000073dc       ??_C@_0BP@LPMHJOKI@R6030?$AN?6?9?5CRT?5not?5initialized?$AN?6?$AA@ 10b583dc     LIBCMTD:crt0msg.obj
 0002:000073fc       ??_C@_0CF@KJDAIALP@R6028?$AN?6?9?5unable?5to?5initialize?5he@ 10b583fc     LIBCMTD:crt0msg.obj
 0002:00007424       ??_C@_0DF@GAKBPDFP@R6027?$AN?6?9?5not?5enough?5space?5for?5lo@ 10b58424     LIBCMTD:crt0msg.obj
 0002:0000745c       ??_C@_0DF@IBLNNAIG@R6026?$AN?6?9?5not?5enough?5space?5for?5st@ 10b5845c     LIBCMTD:crt0msg.obj
 0002:00007494       ??_C@_0CG@IOHKGFNJ@R6025?$AN?6?9?5pure?5virtual?5function?5c@ 10b58494     LIBCMTD:crt0msg.obj
 0002:000074bc       ??_C@_0DF@JIJJFJDC@R6024?$AN?6?9?5not?5enough?5space?5for?5_o@ 10b584bc     LIBCMTD:crt0msg.obj
 0002:000074f4       ??_C@_0CJ@EGEJHFME@R6019?$AN?6?9?5unable?5to?5open?5console?5@ 10b584f4     LIBCMTD:crt0msg.obj
 0002:00007520       ??_C@_0CB@GNHNIELH@R6018?$AN?6?9?5unexpected?5heap?5error?$AN?6@ 10b58520     LIBCMTD:crt0msg.obj
 0002:00007544       ??_C@_0CN@FOLDKNG@R6017?$AN?6?9?5unexpected?5multithread?5@ 10b58544     LIBCMTD:crt0msg.obj
 0002:00007574       ??_C@_0CM@FAHFJNHO@R6016?$AN?6?9?5not?5enough?5space?5for?5th@ 10b58574     LIBCMTD:crt0msg.obj
 0002:000075a0       ??_C@_0JG@LBKMGKLD@?$AN?6This?5application?5has?5requested@ 10b585a0     LIBCMTD:crt0msg.obj
 0002:00007638       ??_C@_0CM@FLCNIPKK@R6009?$AN?6?9?5not?5enough?5space?5for?5en@ 10b58638     LIBCMTD:crt0msg.obj
 0002:00007664       ??_C@_0CK@KMMJOAPP@R6008?$AN?6?9?5not?5enough?5space?5for?5ar@ 10b58664     LIBCMTD:crt0msg.obj
 0002:00007690       ??_C@_0CN@LEKKICBM@R6002?$AN?6?9?5floating?5point?5support?5@ 10b58690     LIBCMTD:crt0msg.obj
 0002:000076c0       ??_C@_0CF@GOGNBNAK@Microsoft?5Visual?5C?$CL?$CL?5Runtime?5Lib@ 10b586c0     LIBCMTD:crt0msg.obj
 0002:000076e8       ??_C@_1KC@JBIKIPNF@?$AAs?$AAt?$AAr?$AAc?$AAa?$AAt?$AA_?$AAs?$AA?$CI?$AAo?$AAu?$AAt?$AAm?$AAs?$AAg?$AA?0?$AA?5?$AA?$CI?$AAs?$AAi?$AAz?$AAe?$AAo?$AAf?$AA?$CI?$AAo?$AAu?$AAt?$AAm?$AAs?$AAg?$AA?$CJ@ 10b586e8     LIBCMTD:crt0msg.obj
 0002:0000778c       ??_C@_02PHMGELLB@?6?6?$AA@ 10b5878c     LIBCMTD:crt0msg.obj
 0002:00007790       ??_C@_1HO@POLIDBMF@?$AAs?$AAt?$AAr?$AAc?$AAa?$AAt?$AA_?$AAs?$AA?$CI?$AAo?$AAu?$AAt?$AAm?$AAs?$AAg?$AA?0?$AA?5?$AA?$CI?$AAs?$AAi?$AAz?$AAe?$AAo?$AAf?$AA?$CI?$AAo?$AAu?$AAt?$AAm?$AAs?$AAg?$AA?$CJ@ 10b58790     LIBCMTD:crt0msg.obj
 0002:00007810       ??_C@_03KHICJKCI@?4?4?4?$AA@ 10b58810     LIBCMTD:crt0msg.obj
 0002:00007818       ??_C@_1HG@CJJGKFHK@?$AAs?$AAt?$AAr?$AAn?$AAc?$AAp?$AAy?$AA_?$AAs?$AA?$CI?$AAp?$AAc?$AAh?$AA?0?$AA?5?$AAp?$AAr?$AAo?$AAg?$AAn?$AAa?$AAm?$AAe?$AA_?$AAs?$AAi?$AAz?$AAe?$AA?5?$AA?9?$AA?5?$AA?$CI@ 10b58818     LIBCMTD:crt0msg.obj
 0002:00007890       ??_C@_0BH@DNAGHKFM@?$DMprogram?5name?5unknown?$DO?$AA@ 10b58890     LIBCMTD:crt0msg.obj
 0002:000078a8       ??_C@_1HI@FOOPEDMH@?$AAs?$AAt?$AAr?$AAc?$AAp?$AAy?$AA_?$AAs?$AA?$CI?$AAp?$AAr?$AAo?$AAg?$AAn?$AAa?$AAm?$AAe?$AA?0?$AA?5?$AAp?$AAr?$AAo?$AAg?$AAn?$AAa?$AAm?$AAe?$AA_?$AAs?$AAi?$AAz?$AAe@ 10b588a8     LIBCMTD:crt0msg.obj
 0002:00007920       ??_C@_0BK@OFGJDLJJ@Runtime?5Error?$CB?6?6Program?3?5?$AA@ 10b58920     LIBCMTD:crt0msg.obj
 0002:00007940       ??_C@_1KM@NKKPELHG@?$AAs?$AAt?$AAr?$AAc?$AAp?$AAy?$AA_?$AAs?$AA?$CI?$AAo?$AAu?$AAt?$AAm?$AAs?$AAg?$AA?0?$AA?5?$AA?$CI?$AAs?$AAi?$AAz?$AAe?$AAo?$AAf?$AA?$CI?$AAo?$AAu?$AAt?$AAm?$AAs?$AAg?$AA?$CJ@ 10b58940     LIBCMTD:crt0msg.obj
 0002:000079ec       ??_C@_1BI@EAHMBMEC@?$AA_?$AAN?$AAM?$AAS?$AAG?$AA_?$AAW?$AAR?$AAI?$AAT?$AAE?$AA?$AA@ 10b589ec     LIBCMTD:crt0msg.obj
 0002:00007a08       ??_C@_1GC@HKOJBOFF@?$AAf?$AA?3?$AA?2?$AAd?$AAd?$AA?2?$AAv?$AAc?$AAt?$AAo?$AAo?$AAl?$AAs?$AA?2?$AAc?$AAr?$AAt?$AA_?$AAb?$AAl?$AAd?$AA?2?$AAs?$AAe?$AAl?$AAf?$AA_?$AAx?$AA8?$AA6?$AA?2?$AAc@ 10b58a08     LIBCMTD:crt0msg.obj
 0002:00007a70       __XcptActTab               10b58a70     LIBCMTD:winxfltr.obj
 0002:00007ae8       ??_C@_1GC@FIGJJMEN@?$AAf?$AA?3?$AA?2?$AAd?$AAd?$AA?2?$AAv?$AAc?$AAt?$AAo?$AAo?$AAl?$AAs?$AA?2?$AAc?$AAr?$AAt?$AA_?$AAb?$AAl?$AAd?$AA?2?$AAs?$AAe?$AAl?$AAf?$AA_?$AAx?$AA8?$AA6?$AA?2?$AAc@ 10b58ae8     LIBCMTD:dbgrptt.obj
 0002:00007b50       ??_C@_1HO@PJOFIKFE@?$AA_?$AAC?$AAr?$AAt?$AAD?$AAb?$AAg?$AAR?$AAe?$AAp?$AAo?$AAr?$AAt?$AA?3?$AA?5?$AAS?$AAt?$AAr?$AAi?$AAn?$AAg?$AA?5?$AAt?$AAo?$AAo?$AA?5?$AAl?$AAo?$AAn?$AAg?$AA?5?$AAo@ 10b58b50     LIBCMTD:dbgrptt.obj
 0002:00007bd0       ??_C@_1MC@IGEECMDB@?$AAw?$AAc?$AAs?$AAc?$AAp?$AAy?$AA_?$AAs?$AA?$CI?$AAs?$AAz?$AAO?$AAu?$AAt?$AAM?$AAe?$AAs?$AAs?$AAa?$AAg?$AAe?$AA2?$AA?0?$AA?5?$AA4?$AA0?$AA9?$AA6?$AA?0?$AA?5?$AAL?$AA?$CC@ 10b58bd0     LIBCMTD:dbgrptt.obj
 0002:00007c98       ??_C@_1IM@OOKIFKOH@?$AAe?$AA?5?$AA?$DN?$AA?5?$AAm?$AAb?$AAs?$AAt?$AAo?$AAw?$AAc?$AAs?$AA_?$AAs?$AA?$CI?$AA?$CG?$AAr?$AAe?$AAt?$AA?0?$AA?5?$AAs?$AAz?$AAO?$AAu?$AAt?$AAM?$AAe?$AAs?$AAs?$AAa?$AAg@ 10b58c98     LIBCMTD:dbgrptt.obj
 0002:00007d28       ??_C@_1FI@IBIOIHEG@?$AAs?$AAt?$AAr?$AAc?$AAp?$AAy?$AA_?$AAs?$AA?$CI?$AAs?$AAz?$AAO?$AAu?$AAt?$AAM?$AAe?$AAs?$AAs?$AAa?$AAg?$AAe?$AA?0?$AA?5?$AA4?$AA0?$AA9?$AA6?$AA?0?$AA?5?$AAs?$AAz?$AAL@ 10b58d28     LIBCMTD:dbgrptt.obj
 0002:00007d80       ??_C@_1JG@CPKCIOEE@?$AAs?$AAt?$AAr?$AAc?$AAp?$AAy?$AA_?$AAs?$AA?$CI?$AAs?$AAz?$AAO?$AAu?$AAt?$AAM?$AAe?$AAs?$AAs?$AAa?$AAg?$AAe?$AA?0?$AA?5?$AA4?$AA0?$AA9?$AA6?$AA?0?$AA?5?$AA?$CC?$AA_?$AAC@ 10b58d80     LIBCMTD:dbgrptt.obj
 0002:00007e18       ??_C@_0M@IPILFDFN@?$CFs?$CI?$CFd?$CJ?5?3?5?$CFs?$AA@ 10b58e18     LIBCMTD:dbgrptt.obj
 0002:00007e28       ??_C@_1EI@LDHJEDO@?$AAs?$AAt?$AAr?$AAc?$AAa?$AAt?$AA_?$AAs?$AA?$CI?$AAs?$AAz?$AAL?$AAi?$AAn?$AAe?$AAM?$AAe?$AAs?$AAs?$AAa?$AAg?$AAe?$AA?0?$AA?5?$AA4?$AA0?$AA9?$AA6?$AA?0?$AA?5?$AA?$CC?$AA?2@ 10b58e28     LIBCMTD:dbgrptt.obj
 0002:00007e70       ??_C@_01LIIJDEN@?$AN?$AA@  10b58e70     LIBCMTD:dbgrptt.obj
 0002:00007e78       ??_C@_1EI@CACDLAFK@?$AAs?$AAt?$AAr?$AAc?$AAa?$AAt?$AA_?$AAs?$AA?$CI?$AAs?$AAz?$AAL?$AAi?$AAn?$AAe?$AAM?$AAe?$AAs?$AAs?$AAa?$AAg?$AAe?$AA?0?$AA?5?$AA4?$AA0?$AA9?$AA6?$AA?0?$AA?5?$AA?$CC?$AA?2@ 10b58e78     LIBCMTD:dbgrptt.obj
 0002:00007ec0       ??_C@_1FK@NPGBPOFO@?$AAs?$AAt?$AAr?$AAc?$AAa?$AAt?$AA_?$AAs?$AA?$CI?$AAs?$AAz?$AAL?$AAi?$AAn?$AAe?$AAM?$AAe?$AAs?$AAs?$AAa?$AAg?$AAe?$AA?0?$AA?5?$AA4?$AA0?$AA9?$AA6?$AA?0?$AA?5?$AAs?$AAz@ 10b58ec0     LIBCMTD:dbgrptt.obj
 0002:00007f20       ??_C@_1KK@GIGAEDMO@?$AAs?$AAt?$AAr?$AAc?$AAp?$AAy?$AA_?$AAs?$AA?$CI?$AAs?$AAz?$AAL?$AAi?$AAn?$AAe?$AAM?$AAe?$AAs?$AAs?$AAa?$AAg?$AAe?$AA?0?$AA?5?$AA4?$AA0?$AA9?$AA6?$AA?0?$AA?5?$AAs?$AAz@ 10b58f20     LIBCMTD:dbgrptt.obj
 0002:00007fcc       ??_C@_0BC@LAIDCHCH@Assertion?5failed?$CB?$AA@ 10b58fcc     LIBCMTD:dbgrptt.obj
 0002:00007fe0       ??_C@_0BD@CAENFOHP@Assertion?5failed?3?5?$AA@ 10b58fe0     LIBCMTD:dbgrptt.obj
 0002:00007ff4       ??_C@_0CL@EACFGMNB@_CrtDbgReport?3?5String?5too?5long?5o@ 10b58ff4     LIBCMTD:dbgrptt.obj
 0002:00008020       ??_C@_1JI@GAALPGBM@?$AAs?$AAt?$AAr?$AAc?$AAp?$AAy?$AA_?$AAs?$AA?$CI?$AAs?$AAz?$AAU?$AAs?$AAe?$AAr?$AAM?$AAe?$AAs?$AAs?$AAa?$AAg?$AAe?$AA?0?$AA?5?$AA4?$AA0?$AA9?$AA6?$AA?0?$AA?5?$AA?$CC?$AA_@ 10b59020     LIBCMTD:dbgrptt.obj
 0002:000080b8       ??_C@_07BHGABMGB@?0?5Line?5?$AA@ 10b590b8     LIBCMTD:dbgrptt.obj
 0002:000080c0       ??_C@_0P@DFJNDPOP@?$DMfile?5unknown?$DO?$AA@ 10b590c0     LIBCMTD:dbgrptt.obj
 0002:000080d0       ??_C@_0CG@BNGLOCEO@Second?5Chance?5Assertion?5Failed?3?5@ 10b590d0     LIBCMTD:dbgrptt.obj
 0002:000080f8       ??_C@_1FA@JPHJBHEM@?$AA_?$AAi?$AAt?$AAo?$AAa?$AA_?$AAs?$AA?$CI?$AAn?$AAL?$AAi?$AAn?$AAe?$AA?0?$AA?5?$AAs?$AAz?$AAL?$AAi?$AAn?$AAe?$AAM?$AAe?$AAs?$AAs?$AAa?$AAg?$AAe?$AA?0?$AA?5?$AA4?$AA0@ 10b590f8     LIBCMTD:dbgrptt.obj
 0002:00008148       ??_C@_1CA@KHJHLKA@?$AA_?$AAV?$AAC?$AAr?$AAt?$AAD?$AAb?$AAg?$AAR?$AAe?$AAp?$AAo?$AAr?$AAt?$AAA?$AA?$AA@ 10b59148     LIBCMTD:dbgrptt.obj
 0002:00008168       ??_C@_1IE@CPGKIAGP@?$AAw?$AAc?$AAs?$AAt?$AAo?$AAm?$AAb?$AAs?$AA_?$AAs?$AA?$CI?$AA?$CG?$AAr?$AAe?$AAt?$AA?0?$AA?5?$AAs?$AAz?$AAa?$AAO?$AAu?$AAt?$AAM?$AAe?$AAs?$AAs?$AAa?$AAg?$AAe?$AA?0?$AA?5@ 10b59168     LIBCMTD:dbgrptt.obj
 0002:000081ec       ??_C@_0DP@GNPEPHJD@_CrtDbgReport?3?5String?5too?5long?5o@ 10b591ec     LIBCMTD:dbgrptt.obj
 0002:00008230       ??_C@_1MA@LBAMNNOB@?$AAs?$AAt?$AAr?$AAc?$AAp?$AAy?$AA_?$AAs?$AA?$CI?$AAs?$AAz?$AAO?$AAu?$AAt?$AAM?$AAe?$AAs?$AAs?$AAa?$AAg?$AAe?$AA2?$AA?0?$AA?5?$AA4?$AA0?$AA9?$AA6?$AA?0?$AA?5?$AA?$CC?$AA_@ 10b59230     LIBCMTD:dbgrptt.obj
 0002:000082f0       ??_C@_1JC@EOAPFDLN@?$AAw?$AAc?$AAs?$AAt?$AAo?$AAm?$AAb?$AAs?$AA_?$AAs?$AA?$CI?$AA?$CI?$AA?$CI?$AAv?$AAo?$AAi?$AAd?$AA?5?$AA?$CK?$AA?$CJ?$AA0?$AA?$CJ?$AA?0?$AA?5?$AAs?$AAz?$AAO?$AAu?$AAt?$AAM?$AAe?$AAs@ 10b592f0     LIBCMTD:dbgrptt.obj
 0002:00008388       ??_C@_1FI@DBAIJPJE@?$AAw?$AAc?$AAs?$AAc?$AAp?$AAy?$AA_?$AAs?$AA?$CI?$AAs?$AAz?$AAO?$AAu?$AAt?$AAM?$AAe?$AAs?$AAs?$AAa?$AAg?$AAe?$AA?0?$AA?5?$AA4?$AA0?$AA9?$AA6?$AA?0?$AA?5?$AAs?$AAz?$AAL@ 10b59388     LIBCMTD:dbgrptt.obj
 0002:000083e0       ??_C@_1BI@JIDBEPIG@?$AA?$CF?$AAs?$AA?$CI?$AA?$CF?$AAd?$AA?$CJ?$AA?5?$AA?3?$AA?5?$AA?$CF?$AAs?$AA?$AA@ 10b593e0     LIBCMTD:dbgrptt.obj
 0002:000083f8       ??_C@_1EK@PHCBEDKB@?$AAw?$AAc?$AAs?$AAc?$AAa?$AAt?$AA_?$AAs?$AA?$CI?$AAs?$AAz?$AAL?$AAi?$AAn?$AAe?$AAM?$AAe?$AAs?$AAs?$AAa?$AAg?$AAe?$AA?0?$AA?5?$AA4?$AA0?$AA9?$AA6?$AA?0?$AA?5?$AAL?$AA?$CC@ 10b593f8     LIBCMTD:dbgrptt.obj
 0002:00008444       ??_C@_13CMNBPIDO@?$AA?$AN?$AA?$AA@ 10b59444     LIBCMTD:dbgrptt.obj
 0002:00008448       ??_C@_1EK@NMDFGHMF@?$AAw?$AAc?$AAs?$AAc?$AAa?$AAt?$AA_?$AAs?$AA?$CI?$AAs?$AAz?$AAL?$AAi?$AAn?$AAe?$AAM?$AAe?$AAs?$AAs?$AAa?$AAg?$AAe?$AA?0?$AA?5?$AA4?$AA0?$AA9?$AA6?$AA?0?$AA?5?$AAL?$AA?$CC@ 10b59448     LIBCMTD:dbgrptt.obj
 0002:00008498       ??_C@_1FK@HPADHBBD@?$AAw?$AAc?$AAs?$AAc?$AAa?$AAt?$AA_?$AAs?$AA?$CI?$AAs?$AAz?$AAL?$AAi?$AAn?$AAe?$AAM?$AAe?$AAs?$AAs?$AAa?$AAg?$AAe?$AA?0?$AA?5?$AA4?$AA0?$AA9?$AA6?$AA?0?$AA?5?$AAs?$AAz@ 10b59498     LIBCMTD:dbgrptt.obj
 0002:000084f8       ??_C@_1KO@DGAHENCH@?$AAw?$AAc?$AAs?$AAc?$AAp?$AAy?$AA_?$AAs?$AA?$CI?$AAs?$AAz?$AAL?$AAi?$AAn?$AAe?$AAM?$AAe?$AAs?$AAs?$AAa?$AAg?$AAe?$AA?0?$AA?5?$AA4?$AA0?$AA9?$AA6?$AA?0?$AA?5?$AAs?$AAz@ 10b594f8     LIBCMTD:dbgrptt.obj
 0002:000085a8       ??_C@_1CE@OJBNHDMO@?$AAA?$AAs?$AAs?$AAe?$AAr?$AAt?$AAi?$AAo?$AAn?$AA?5?$AAf?$AAa?$AAi?$AAl?$AAe?$AAd?$AA?$CB?$AA?$AA@ 10b595a8     LIBCMTD:dbgrptt.obj
 0002:000085cc       ??_C@_1CG@FFFGGODN@?$AAA?$AAs?$AAs?$AAe?$AAr?$AAt?$AAi?$AAo?$AAn?$AA?5?$AAf?$AAa?$AAi?$AAl?$AAe?$AAd?$AA?3?$AA?5?$AA?$AA@ 10b595cc     LIBCMTD:dbgrptt.obj
 0002:000085f8       ??_C@_1JK@KHFABAEO@?$AAw?$AAc?$AAs?$AAc?$AAp?$AAy?$AA_?$AAs?$AA?$CI?$AAs?$AAz?$AAU?$AAs?$AAe?$AAr?$AAM?$AAe?$AAs?$AAs?$AAa?$AAg?$AAe?$AA?0?$AA?5?$AA4?$AA0?$AA9?$AA6?$AA?0?$AA?5?$AAL?$AA?$CC@ 10b595f8     LIBCMTD:dbgrptt.obj
 0002:00008694       ??_C@_13LBAGMAIH@?$AA?6?$AA?$AA@ 10b59694     LIBCMTD:dbgrptt.obj
 0002:00008698       ??_C@_1BA@ELMMDCFC@?$AA?0?$AA?5?$AAL?$AAi?$AAn?$AAe?$AA?5?$AA?$AA@ 10b59698     LIBCMTD:dbgrptt.obj
 0002:000086a8       ??_C@_1BO@OCHMLCAG@?$AA?$DM?$AAf?$AAi?$AAl?$AAe?$AA?5?$AAu?$AAn?$AAk?$AAn?$AAo?$AAw?$AAn?$AA?$DO?$AA?$AA@ 10b596a8     LIBCMTD:dbgrptt.obj
 0002:000086c8       ??_C@_1EM@MJFLEDMB@?$AAS?$AAe?$AAc?$AAo?$AAn?$AAd?$AA?5?$AAC?$AAh?$AAa?$AAn?$AAc?$AAe?$AA?5?$AAA?$AAs?$AAs?$AAe?$AAr?$AAt?$AAi?$AAo?$AAn?$AA?5?$AAF?$AAa?$AAi?$AAl?$AAe?$AAd?$AA?3?$AA?5@ 10b596c8     LIBCMTD:dbgrptt.obj
 0002:00008718       ??_C@_1FA@CNLLOMHI@?$AA_?$AAi?$AAt?$AAo?$AAw?$AA_?$AAs?$AA?$CI?$AAn?$AAL?$AAi?$AAn?$AAe?$AA?0?$AA?5?$AAs?$AAz?$AAL?$AAi?$AAn?$AAe?$AAM?$AAe?$AAs?$AAs?$AAa?$AAg?$AAe?$AA?0?$AA?5?$AA4?$AA0@ 10b59718     LIBCMTD:dbgrptt.obj
 0002:00008768       ??_C@_1CA@HPALHDOD@?$AA_?$AAV?$AAC?$AAr?$AAt?$AAD?$AAb?$AAg?$AAR?$AAe?$AAp?$AAo?$AAr?$AAt?$AAW?$AA?$AA@ 10b59768     LIBCMTD:dbgrptt.obj
 0002:00008788       ??_C@_1GA@DBECNFG@?$AAf?$AA?3?$AA?2?$AAd?$AAd?$AA?2?$AAv?$AAc?$AAt?$AAo?$AAo?$AAl?$AAs?$AA?2?$AAc?$AAr?$AAt?$AA_?$AAb?$AAl?$AAd?$AA?2?$AAs?$AAe?$AAl?$AAf?$AA_?$AAx?$AA8?$AA6?$AA?2?$AAc@ 10b59788     LIBCMTD:winsig.obj
 0002:000087e8       ??_C@_1DO@MLNEDKGB@?$AA?$CI?$AA?$CC?$AAI?$AAn?$AAv?$AAa?$AAl?$AAi?$AAd?$AA?5?$AAs?$AAi?$AAg?$AAn?$AAa?$AAl?$AA?5?$AAo?$AAr?$AA?5?$AAe?$AAr?$AAr?$AAo?$AAr?$AA?$CC?$AA?0?$AA?5?$AA0?$AA?$CJ?$AA?$AA@ 10b597e8     LIBCMTD:winsig.obj
 0002:00008828       ??_C@_1M@DMJEIKHL@?$AAr?$AAa?$AAi?$AAs?$AAe?$AA?$AA@ 10b59828     LIBCMTD:winsig.obj
 0002:00008834       ??_C@_0BI@DFKBFLJE@GetProcessWindowStation?$AA@ 10b59834     LIBCMTD:crtmboxw.obj
 0002:0000884c       ??_C@_0BK@DEKFELLI@GetUserObjectInformationW?$AA@ 10b5984c     LIBCMTD:crtmboxw.obj
 0002:00008868       ??_C@_0BD@HHGDFDBJ@GetLastActivePopup?$AA@ 10b59868     LIBCMTD:crtmboxw.obj
 0002:0000887c       ??_C@_0BA@HNOPNCHB@GetActiveWindow?$AA@ 10b5987c     LIBCMTD:crtmboxw.obj
 0002:0000888c       ??_C@_0M@DLDCCGNP@MessageBoxW?$AA@ 10b5988c     LIBCMTD:crtmboxw.obj
 0002:00008898       ??_C@_1BG@GOEBHBDC@?$AAU?$AAS?$AAE?$AAR?$AA3?$AA2?$AA?4?$AAD?$AAL?$AAL?$AA?$AA@ 10b59898     LIBCMTD:crtmboxw.obj
 0002:000088b0       ??_C@_1BC@KIONAFPO@?$AAw?$AAc?$AAs?$AAc?$AAp?$AAy?$AA_?$AAs?$AA?$AA@ 10b598b0     LIBCMTD:wcscpy_s.obj
 0002:000088c8       ??_C@_1FC@PFMLEHKI@?$AA?$CI?$AA?$CI?$AA_?$AAD?$AAs?$AAt?$AA?$CJ?$AA?$CJ?$AA?5?$AA?$CB?$AA?$DN?$AA?5?$AAN?$AAU?$AAL?$AAL?$AA?5?$AA?$CG?$AA?$CG?$AA?5?$AA?$CI?$AA?$CI?$AA_?$AAS?$AAi?$AAz?$AAe?$AAI?$AAn?$AAW?$AAo?$AAr@ 10b598c8     LIBCMTD:wcscpy_s.obj
 0002:00008920       ??_C@_1GE@KOCFNGPB@?$AA_?$AAc?$AAo?$AAn?$AAt?$AAr?$AAo?$AAl?$AAf?$AAp?$AA_?$AAs?$AA?$CI?$AA?$CI?$AA?$CI?$AAv?$AAo?$AAi?$AAd?$AA?5?$AA?$CK?$AA?$CJ?$AA0?$AA?$CJ?$AA?0?$AA?5?$AA0?$AAx?$AA0?$AA0?$AA0?$AA1@ 10b59920     LIBCMTD:fp8.obj
 0002:00008984       ??_C@_1CK@JMKHCBEI@?$AA_?$AAs?$AAe?$AAt?$AAd?$AAe?$AAf?$AAa?$AAu?$AAl?$AAt?$AAp?$AAr?$AAe?$AAc?$AAi?$AAs?$AAi?$AAo?$AAn?$AA?$AA@ 10b59984     LIBCMTD:fp8.obj
 0002:000089b0       ??_C@_1GG@PHGJJHBC@?$AAf?$AA?3?$AA?2?$AAd?$AAd?$AA?2?$AAv?$AAc?$AAt?$AAo?$AAo?$AAl?$AAs?$AA?2?$AAc?$AAr?$AAt?$AA_?$AAb?$AAl?$AAd?$AA?2?$AAs?$AAe?$AAl?$AAf?$AA_?$AAx?$AA8?$AA6?$AA?2?$AAc@ 10b599b0     LIBCMTD:fp8.obj
 0002:00008a18       __real@4150017ec0000000    10b59a18     LIBCMTD:_testfdiv_.obj
 0002:00008a20       __real@4147ffff80000000    10b59a20     LIBCMTD:_testfdiv_.obj
 0002:00008a28       ??_C@_0BK@NHEOCAHP@IsProcessorFeaturePresent?$AA@ 10b59a28     LIBCMTD:_testfdiv_.obj
 0002:00008a44       ??_C@_08CPNIBGIE@KERNEL32?$AA@ 10b59a44     LIBCMTD:_testfdiv_.obj
 0002:00008a50       ??_C@_1CA@CBMNPEO@?$AAs?$AAi?$AAz?$AAe?$AAI?$AAn?$AAB?$AAy?$AAt?$AAe?$AAs?$AA?5?$AA?$DO?$AA?5?$AA0?$AA?$AA@ 10b59a50     LIBCMTD:cvt.obj
 0002:00008a70       ??_C@_1BC@INKAPMHI@?$AA_?$AAc?$AAf?$AAt?$AAo?$AAe?$AA_?$AAl?$AA?$AA@ 10b59a70     LIBCMTD:cvt.obj
 0002:00008a88       ??_C@_1GO@NCCGBNKI@?$AAf?$AA?3?$AA?2?$AAd?$AAd?$AA?2?$AAv?$AAc?$AAt?$AAo?$AAo?$AAl?$AAs?$AA?2?$AAc?$AAr?$AAt?$AA_?$AAb?$AAl?$AAd?$AA?2?$AAs?$AAe?$AAl?$AAf?$AA_?$AAx?$AA8?$AA6?$AA?2?$AAc@ 10b59a88     LIBCMTD:cvt.obj
 0002:00008af8       ??_C@_1BI@ICGGMGLK@?$AAb?$AAu?$AAf?$AA?5?$AA?$CB?$AA?$DN?$AA?5?$AAN?$AAU?$AAL?$AAL?$AA?$AA@ 10b59af8     LIBCMTD:cvt.obj
 0002:00008b10       ??_C@_05KLBDPFGC@e?$CL000?$AA@ 10b59b10     LIBCMTD:cvt.obj
 0002:00008b18       ??_C@_1LE@EOIFGNCJ@?$AAs?$AAt?$AAr?$AAc?$AAp?$AAy?$AA_?$AAs?$AA?$CI?$AAp?$AA?0?$AA?5?$AA?$CI?$AAs?$AAi?$AAz?$AAe?$AAI?$AAn?$AAB?$AAy?$AAt?$AAe?$AAs?$AA?5?$AA?$DN?$AA?$DN?$AA?5?$AA?$CI?$AAs?$AAi?$AAz@ 10b59b18     LIBCMTD:cvt.obj
 0002:00008bd0       ??_C@_1HE@NACBNDPP@?$AAs?$AAi?$AAz?$AAe?$AAI?$AAn?$AAB?$AAy?$AAt?$AAe?$AAs?$AA?5?$AA?$DO?$AA?5?$AA?$CI?$AAs?$AAi?$AAz?$AAe?$AA_?$AAt?$AA?$CJ?$AA?$CI?$AA3?$AA?5?$AA?$CL?$AA?5?$AA?$CI?$AAn?$AAd?$AAe?$AAc@ 10b59bd0     LIBCMTD:cvt.obj
 0002:00008c44       ??_C@_1BE@OLBNEILL@?$AA_?$AAc?$AAf?$AAt?$AAo?$AAe?$AA2?$AA_?$AAl?$AA?$AA@ 10b59c44     LIBCMTD:cvt.obj
 0002:00008c58       ??_C@_1FC@IKIMAMJB@?$AAs?$AAi?$AAz?$AAe?$AAI?$AAn?$AAB?$AAy?$AAt?$AAe?$AAs?$AA?5?$AA?$DO?$AA?5?$AA?$CI?$AAs?$AAi?$AAz?$AAe?$AA_?$AAt?$AA?$CJ?$AA?$CI?$AA1?$AA?5?$AA?$CL?$AA?5?$AA4?$AA?5?$AA?$CL?$AA?5?$AAn@ 10b59c58     LIBCMTD:cvt.obj
 0002:00008cac       ??_C@_1BC@JOKPCIC@?$AA_?$AAc?$AAf?$AAt?$AAo?$AAa?$AA_?$AAl?$AA?$AA@ 10b59cac     LIBCMTD:cvt.obj
 0002:00008cc0       ??_C@_1BC@DCPPLJL@?$AA_?$AAc?$AAf?$AAt?$AAo?$AAf?$AA_?$AAl?$AA?$AA@ 10b59cc0     LIBCMTD:cvt.obj
 0002:00008cd4       ??_C@_1BE@CKPDLI@?$AA_?$AAc?$AAf?$AAt?$AAo?$AAf?$AA2?$AA_?$AAl?$AA?$AA@ 10b59cd4     LIBCMTD:cvt.obj
 0002:00008ce8       ??_C@_1BC@MPIFPLAF@?$AA_?$AAc?$AAf?$AAt?$AAo?$AAg?$AA_?$AAl?$AA?$AA@ 10b59ce8     LIBCMTD:cvt.obj
 0002:00008cfc       ??_C@_1BG@BBCDFOMA@?$AA_?$AAw?$AAo?$AAu?$AAt?$AAp?$AAu?$AAt?$AA_?$AAl?$AA?$AA@ 10b59cfc     LIBCMTD:woutput.obj
 0002:00008d14       ??_C@_13NOLLCAOD@?$AA?$AA?$AA?$AA@ 10b59d14     LIBCMTD:a_map.obj
 0002:00008d18       ??_C@_1GA@INJGGEBC@?$AAf?$AA?3?$AA?2?$AAd?$AAd?$AA?2?$AAv?$AAc?$AAt?$AAo?$AAo?$AAl?$AAs?$AA?2?$AAc?$AAr?$AAt?$AA_?$AAb?$AAl?$AAd?$AA?2?$AAs?$AAe?$AAl?$AAf?$AA_?$AAx?$AA8?$AA6?$AA?2?$AAc@ 10b59d18     LIBCMTD:a_map.obj
 0002:00008d78       ??_C@_1FE@KNPCCODH@?$AA?$CI?$AA?$CC?$AAC?$AAo?$AAr?$AAr?$AAu?$AAp?$AAt?$AAe?$AAd?$AA?5?$AAp?$AAo?$AAi?$AAn?$AAt?$AAe?$AAr?$AA?5?$AAp?$AAa?$AAs?$AAs?$AAe?$AAd?$AA?5?$AAt?$AAo?$AA?5?$AA_?$AAf@ 10b59d78     LIBCMTD:a_map.obj
 0002:00008dd0       ??_C@_1GC@CHGJNMHG@?$AAf?$AA?3?$AA?2?$AAd?$AAd?$AA?2?$AAv?$AAc?$AAt?$AAo?$AAo?$AAl?$AAs?$AA?2?$AAc?$AAr?$AAt?$AA_?$AAb?$AAl?$AAd?$AA?2?$AAs?$AAe?$AAl?$AAf?$AA_?$AAx?$AA8?$AA6?$AA?2?$AAc@ 10b59dd0     LIBCMTD:isctype.obj
 0002:00008e34       ??_C@_1DC@BPLPALML@?$AA?$CI?$AAu?$AAn?$AAs?$AAi?$AAg?$AAn?$AAe?$AAd?$AA?$CJ?$AA?$CI?$AAc?$AA?5?$AA?$CL?$AA?5?$AA1?$AA?$CJ?$AA?5?$AA?$DM?$AA?$DN?$AA?5?$AA2?$AA5?$AA6?$AA?$AA@ 10b59e34     LIBCMTD:isctype.obj
 0002:00008e68       ??_C@_1DE@MMOGFGHF@?$AAs?$AAt?$AAr?$AAc?$AAp?$AAy?$AA_?$AAs?$AA?$CI?$AA?$CK?$AAe?$AAn?$AAv?$AA?0?$AA?5?$AAc?$AAc?$AAh?$AAa?$AAr?$AAs?$AA?0?$AA?5?$AAp?$AA?$CJ?$AA?$AA@ 10b59e68     LIBCMTD:stdenvp.obj
 0002:00008e9c       ??_C@_1BC@GHMCNHHL@?$AA_?$AAs?$AAe?$AAt?$AAe?$AAn?$AAv?$AAp?$AA?$AA@ 10b59e9c     LIBCMTD:stdenvp.obj
 0002:00008eb0       ??_C@_1GC@DGBFLDBN@?$AAf?$AA?3?$AA?2?$AAd?$AAd?$AA?2?$AAv?$AAc?$AAt?$AAo?$AAo?$AAl?$AAs?$AA?2?$AAc?$AAr?$AAt?$AA_?$AAb?$AAl?$AAd?$AA?2?$AAs?$AAe?$AAl?$AAf?$AA_?$AAx?$AA8?$AA6?$AA?2?$AAc@ 10b59eb0     LIBCMTD:stdenvp.obj
 0002:00008f14       ??_C@_0DB@BMEBJJKP@f?3?2dd?2vctools?2crt_bld?2self_x86?2c@ 10b59f14     LIBCMTD:stdenvp.obj
 0002:00008f48       ??_C@_0DB@OEPBJOLC@f?3?2dd?2vctools?2crt_bld?2self_x86?2c@ 10b59f48     LIBCMTD:stdargv.obj
 0002:00008f7c       ??_C@_0CP@PPLBCJDN@f?3?2dd?2vctools?2crt_bld?2self_x86?2c@ 10b59f7c     LIBCMTD:a_env.obj
 0002:00008fac       ??_C@_1DG@LNNHNFHJ@?$AA?$CI?$AA_?$AAo?$AAs?$AAf?$AAi?$AAl?$AAe?$AA?$CI?$AAf?$AAi?$AAl?$AAe?$AAd?$AAe?$AAs?$AA?$CJ?$AA?5?$AA?$CG?$AA?5?$AAF?$AAO?$AAP?$AAE?$AAN?$AA?$CJ?$AA?$AA@ 10b59fac     LIBCMTD:commit.obj
 0002:00008fe4       ??_C@_1BA@FLNMBBIM@?$AA_?$AAc?$AAo?$AAm?$AAm?$AAi?$AAt?$AA?$AA@ 10b59fe4     LIBCMTD:commit.obj
 0002:00008ff8       ??_C@_1GA@BOPCOCFN@?$AAf?$AA?3?$AA?2?$AAd?$AAd?$AA?2?$AAv?$AAc?$AAt?$AAo?$AAo?$AAl?$AAs?$AA?2?$AAc?$AAr?$AAt?$AA_?$AAb?$AAl?$AAd?$AA?2?$AAs?$AAe?$AAl?$AAf?$AA_?$AAx?$AA8?$AA6?$AA?2?$AAc@ 10b59ff8     LIBCMTD:commit.obj
 0002:00009058       ??_C@_1HC@KFLBHHBC@?$AA?$CI?$AAf?$AAi?$AAl?$AAe?$AAd?$AAe?$AAs?$AA?5?$AA?$DO?$AA?$DN?$AA?5?$AA0?$AA?5?$AA?$CG?$AA?$CG?$AA?5?$AA?$CI?$AAu?$AAn?$AAs?$AAi?$AAg?$AAn?$AAe?$AAd?$AA?$CJ?$AAf?$AAi?$AAl?$AAe?$AAd@ 10b5a058     LIBCMTD:commit.obj
 0002:000090cc       ??_C@_1O@KOFKDHPL@?$AA_?$AAw?$AAr?$AAi?$AAt?$AAe?$AA?$AA@ 10b5a0cc     LIBCMTD:write.obj
 0002:000090e0       ??_C@_1FO@EPLDPDDL@?$AAf?$AA?3?$AA?2?$AAd?$AAd?$AA?2?$AAv?$AAc?$AAt?$AAo?$AAo?$AAl?$AAs?$AA?2?$AAc?$AAr?$AAt?$AA_?$AAb?$AAl?$AAd?$AA?2?$AAs?$AAe?$AAl?$AAf?$AA_?$AAx?$AA8?$AA6?$AA?2?$AAc@ 10b5a0e0     LIBCMTD:write.obj
 0002:00009140       ??_C@_1DI@CNMHHHLG@?$AAi?$AAs?$AAl?$AAe?$AAa?$AAd?$AAb?$AAy?$AAt?$AAe?$AA?$CI?$AA_?$AAd?$AAb?$AAc?$AAs?$AAB?$AAu?$AAf?$AAf?$AAe?$AAr?$AA?$CI?$AAf?$AAh?$AA?$CJ?$AA?$CJ?$AA?$AA@ 10b5a140     LIBCMTD:write.obj
 0002:00009178       ??_C@_1CC@EEOLPHGO@?$AA?$CI?$AA?$CI?$AAc?$AAn?$AAt?$AA?5?$AA?$CG?$AA?5?$AA1?$AA?$CJ?$AA?5?$AA?$DN?$AA?$DN?$AA?5?$AA0?$AA?$CJ?$AA?$AA@ 10b5a178     LIBCMTD:write.obj
 0002:0000919c       ??_C@_1BM@NCANHCIP@?$AA_?$AAw?$AAr?$AAi?$AAt?$AAe?$AA_?$AAn?$AAo?$AAl?$AAo?$AAc?$AAk?$AA?$AA@ 10b5a19c     LIBCMTD:write.obj
 0002:000091b8       ??_C@_1BM@KFJLMBPG@?$AA?$CI?$AAb?$AAu?$AAf?$AA?5?$AA?$CB?$AA?$DN?$AA?5?$AAN?$AAU?$AAL?$AAL?$AA?$CJ?$AA?$AA@ 10b5a1b8     LIBCMTD:write.obj
 0002:000091d4       ??_C@_0BB@NAGLCMLI@Assertion?5Failed?$AA@ 10b5a1d4     LIBCMTD:dbgrpt.obj
 0002:000091e8       ??_C@_05NAOIJFC@Error?$AA@ 10b5a1e8     LIBCMTD:dbgrpt.obj
 0002:000091f0       ??_C@_07KGMMFLDN@Warning?$AA@ 10b5a1f0     LIBCMTD:dbgrpt.obj
 0002:00009204       ??_C@_0CD@EBCGLDDL@Microsoft?5Visual?5C?$CL?$CL?5Debug?5Libra@ 10b5a204     LIBCMTD:dbgrpt.obj
 0002:00009228       ??_C@_0FF@CCONDJCB@Debug?5?$CFs?$CB?6?6Program?3?5?$CFs?$CFs?$CFs?$CFs?$CFs?$CFs@ 10b5a228     LIBCMTD:dbgrpt.obj
 0002:00009280       ??_C@_09OFBFHMBK@?6Module?3?5?$AA@ 10b5a280     LIBCMTD:dbgrpt.obj
 0002:0000928c       ??_C@_07OPHPPLBG@?6File?3?5?$AA@ 10b5a28c     LIBCMTD:dbgrpt.obj
 0002:00009294       ??_C@_07DBMPPHDI@?6Line?3?5?$AA@ 10b5a294     LIBCMTD:dbgrpt.obj
 0002:0000929c       ??_C@_0N@MEECIJGN@Expression?3?5?$AA@ 10b5a29c     LIBCMTD:dbgrpt.obj
 0002:000092b0       ??_C@_0HD@GNBNFCCL@?6?6For?5information?5on?5how?5your?5pr@ 10b5a2b0     LIBCMTD:dbgrpt.obj
 0002:00009328       ??_C@_1GG@DLDHOIGE@?$AAs?$AAt?$AAr?$AAc?$AAp?$AAy?$AA_?$AAs?$AA?$CI?$AAs?$AAz?$AAE?$AAx?$AAe?$AAN?$AAa?$AAm?$AAe?$AA?0?$AA?5?$AA2?$AA6?$AA0?$AA?0?$AA?5?$AA?$CC?$AA?$DM?$AAp?$AAr?$AAo?$AAg?$AAr@ 10b5a328     LIBCMTD:dbgrpt.obj
 0002:00009390       ??_C@_1CI@IDOKFLAJ@?$AA_?$AA_?$AAc?$AAr?$AAt?$AAM?$AAe?$AAs?$AAs?$AAa?$AAg?$AAe?$AAW?$AAi?$AAn?$AAd?$AAo?$AAw?$AAA?$AA?$AA@ 10b5a390     LIBCMTD:dbgrpt.obj
 0002:000093b8       ??_C@_1BK@JMCGJOCC@?$AA_?$AAe?$AAx?$AAp?$AAa?$AAn?$AAd?$AA_?$AAb?$AAa?$AAs?$AAe?$AA?$AA@ 10b5a3b8     LIBCMTD:expand.obj
 0002:000093d8       ??_C@_1GA@EBHFLDNH@?$AAf?$AA?3?$AA?2?$AAd?$AAd?$AA?2?$AAv?$AAc?$AAt?$AAo?$AAo?$AAl?$AAs?$AA?2?$AAc?$AAr?$AAt?$AA_?$AAb?$AAl?$AAd?$AA?2?$AAs?$AAe?$AAl?$AAf?$AA_?$AAx?$AA8?$AA6?$AA?2?$AAc@ 10b5a3d8     LIBCMTD:expand.obj
 0002:00009438       ??_C@_1BO@KFIJIAEA@?$AAp?$AAB?$AAl?$AAo?$AAc?$AAk?$AA?5?$AA?$CB?$AA?$DN?$AA?5?$AAN?$AAU?$AAL?$AAL?$AA?$AA@ 10b5a438     LIBCMTD:expand.obj
 0002:00009458       ??_C@_0BF@PEEJCKGM@HeapQueryInformation?$AA@ 10b5a458     LIBCMTD:expand.obj
 0002:00009470       ??_C@_1BK@MGMFAEKH@?$AAk?$AAe?$AAr?$AAn?$AAe?$AAl?$AA3?$AA2?$AA?4?$AAd?$AAl?$AAl?$AA?$AA@ 10b5a470     LIBCMTD:expand.obj
 0002:0000948c       ??_C@_1BE@KHFBJMNM@?$AA_?$AAl?$AAs?$AAe?$AAe?$AAk?$AAi?$AA6?$AA4?$AA?$AA@ 10b5a48c     LIBCMTD:lseeki64.obj
 0002:000094a0       ??_C@_1GE@MINKPNPH@?$AAf?$AA?3?$AA?2?$AAd?$AAd?$AA?2?$AAv?$AAc?$AAt?$AAo?$AAo?$AAl?$AAs?$AA?2?$AAc?$AAr?$AAt?$AA_?$AAb?$AAl?$AAd?$AA?2?$AAs?$AAe?$AAl?$AAf?$AA_?$AAx?$AA8?$AA6?$AA?2?$AAc@ 10b5a4a0     LIBCMTD:lseeki64.obj
 0002:00009504       ??_C@_0DB@JEHOCBEJ@f?3?2dd?2vctools?2crt_bld?2self_x86?2c@ 10b5a504     LIBCMTD:_getbuf.obj
 0002:00009538       ??_C@_1GC@DKMGNNCC@?$AAf?$AA?3?$AA?2?$AAd?$AAd?$AA?2?$AAv?$AAc?$AAt?$AAo?$AAo?$AAl?$AAs?$AA?2?$AAc?$AAr?$AAt?$AA_?$AAb?$AAl?$AAd?$AA?2?$AAs?$AAe?$AAl?$AAf?$AA_?$AAx?$AA8?$AA6?$AA?2?$AAc@ 10b5a538     LIBCMTD:_getbuf.obj
 0002:0000959c       ??_C@_1BA@LEBDGIHM@?$AA_?$AAi?$AAs?$AAa?$AAt?$AAt?$AAy?$AA?$AA@ 10b5a59c     LIBCMTD:isatty.obj
 0002:000095b0       ??_C@_1GA@LPGDJDEN@?$AAf?$AA?3?$AA?2?$AAd?$AAd?$AA?2?$AAv?$AAc?$AAt?$AAo?$AAo?$AAl?$AAs?$AA?2?$AAc?$AAr?$AAt?$AA_?$AAb?$AAl?$AAd?$AA?2?$AAs?$AAe?$AAl?$AAf?$AA_?$AAx?$AA8?$AA6?$AA?2?$AAc@ 10b5a5b0     LIBCMTD:isatty.obj
 0002:00009610       ??_C@_1BI@IEADNOHF@?$AA_?$AAw?$AAc?$AAt?$AAo?$AAm?$AAb?$AA_?$AAs?$AA_?$AAl?$AA?$AA@ 10b5a610     LIBCMTD:wctomb.obj
 0002:00009628       ??_C@_1GA@LDLHPOO@?$AAf?$AA?3?$AA?2?$AAd?$AAd?$AA?2?$AAv?$AAc?$AAt?$AAo?$AAo?$AAl?$AAs?$AA?2?$AAc?$AAr?$AAt?$AA_?$AAb?$AAl?$AAd?$AA?2?$AAs?$AAe?$AAl?$AAf?$AA_?$AAx?$AA8?$AA6?$AA?2?$AAc@ 10b5a628     LIBCMTD:wctomb.obj
 0002:00009688       ??_C@_1CO@HFMIILNF@?$AAs?$AAi?$AAz?$AAe?$AAI?$AAn?$AAB?$AAy?$AAt?$AAe?$AAs?$AA?5?$AA?$DM?$AA?$DN?$AA?5?$AAI?$AAN?$AAT?$AA_?$AAM?$AAA?$AAX?$AA?$AA@ 10b5a688     LIBCMTD:wctomb.obj
 0002:000096b8       ??_C@_0M@EKFFODEC@MSPDB80?4DLL?$AA@ 10b5a6b8     LIBCMTD:_pdblkup_.obj
 0002:000096c4       ??_C@_01KDCPPGHE@r?$AA@    10b5a6c4     LIBCMTD:_pdblkup_.obj
 0002:000096c8       ??_C@_0BB@KCIACLNC@PDBOpenValidate5?$AA@ 10b5a6c8     LIBCMTD:_pdblkup_.obj
 0002:000096dc       ??_C@_0BF@BMIHBHCA@EnvironmentDirectory?$AA@ 10b5a6dc     LIBCMTD:_pdblkup_.obj
 0002:000096f4       ??_C@_0CN@JNNIHDGH@SOFTWARE?2Microsoft?2VisualStudio?2@ 10b5a6f4     LIBCMTD:_pdblkup_.obj
 0002:00009724       ??_C@_0M@HLOHPNFA@RegCloseKey?$AA@ 10b5a724     LIBCMTD:_pdblkup_.obj
 0002:00009730       ??_C@_0BB@HHEIPGME@RegQueryValueExA?$AA@ 10b5a730     LIBCMTD:_pdblkup_.obj
 0002:00009744       ??_C@_0O@DCOGKJGG@RegOpenKeyExA?$AA@ 10b5a744     LIBCMTD:_pdblkup_.obj
 0002:00009754       ??_C@_0N@JJPEKNFO@ADVAPI32?4DLL?$AA@ 10b5a754     LIBCMTD:_pdblkup_.obj
 0002:00009764       ??_C@_0DB@KIKNCIEC@f?3?2dd?2vctools?2crt_bld?2self_x86?2c@ 10b5a764     LIBCMTD:osfinfo.obj
 0002:00009798       ??_C@_1BO@EMBOBGKE@?$AA_?$AAg?$AAe?$AAt?$AA_?$AAo?$AAs?$AAf?$AAh?$AAa?$AAn?$AAd?$AAl?$AAe?$AA?$AA@ 10b5a798     LIBCMTD:osfinfo.obj
 0002:000097b8       ??_C@_1GC@MLKLDJJG@?$AAf?$AA?3?$AA?2?$AAd?$AAd?$AA?2?$AAv?$AAc?$AAt?$AAo?$AAo?$AAl?$AAs?$AA?2?$AAc?$AAr?$AAt?$AA_?$AAb?$AAl?$AAd?$AA?2?$AAs?$AAe?$AAl?$AAf?$AA_?$AAx?$AA8?$AA6?$AA?2?$AAc@ 10b5a7b8     LIBCMTD:osfinfo.obj
 0002:00009820       ??_C@_1FM@LFKHNNH@?$AAf?$AA?3?$AA?2?$AAd?$AAd?$AA?2?$AAv?$AAc?$AAt?$AAo?$AAo?$AAl?$AAs?$AA?2?$AAc?$AAr?$AAt?$AA_?$AAb?$AAl?$AAd?$AA?2?$AAs?$AAe?$AAl?$AAf?$AA_?$AAx?$AA8?$AA6?$AA?2?$AAc@ 10b5a820     LIBCMTD:open.obj
 0002:0000987c       ??_C@_1BO@DPAOGEII@?$AA?$CI?$AAp?$AAa?$AAt?$AAh?$AA?5?$AA?$CB?$AA?$DN?$AA?5?$AAN?$AAU?$AAL?$AAL?$AA?$CJ?$AA?$AA@ 10b5a87c     LIBCMTD:open.obj
 0002:000098a0       ??_C@_1FG@NFINBJCM@?$AA?$CI?$AA?$CI?$AAp?$AAm?$AAo?$AAd?$AAe?$AA?5?$AA?$CG?$AA?5?$AA?$CI?$AA?$HO?$AA?$CI?$AA_?$AAS?$AA_?$AAI?$AAR?$AAE?$AAA?$AAD?$AA?5?$AA?$HM?$AA?5?$AA_?$AAS?$AA_?$AAI?$AAW?$AAR?$AAI?$AAT@ 10b5a8a0     LIBCMTD:open.obj
 0002:000098f8       ??_C@_1BM@IOBAMMHO@?$AA_?$AAs?$AAo?$AAp?$AAe?$AAn?$AA_?$AAh?$AAe?$AAl?$AAp?$AAe?$AAr?$AA?$AA@ 10b5a8f8     LIBCMTD:open.obj
 0002:00009914       ??_C@_1BM@PGEEHLHE@?$AA?$CI?$AAp?$AAf?$AAh?$AA?5?$AA?$CB?$AA?$DN?$AA?5?$AAN?$AAU?$AAL?$AAL?$AA?$CJ?$AA?$AA@ 10b5a914     LIBCMTD:open.obj
 0002:00009930       ??_C@_1IA@IENOJNJF@?$AA0?$AA?5?$AA?$CG?$AA?$CG?$AA?5?$AA?$CC?$AAO?$AAn?$AAl?$AAy?$AA?5?$AAU?$AAT?$AAF?$AA?9?$AA1?$AA6?$AA?5?$AAl?$AAi?$AAt?$AAt?$AAl?$AAe?$AA?5?$AAe?$AAn?$AAd?$AAi?$AAa?$AAn?$AA?5@ 10b5a930     LIBCMTD:open.obj
 0002:000099b0       ??_C@_1CM@IDLMKMPG@?$AA0?$AA?5?$AA?$CG?$AA?$CG?$AA?5?$AA?$CC?$AAI?$AAn?$AAt?$AAe?$AAr?$AAn?$AAa?$AAl?$AA?5?$AAE?$AAr?$AAr?$AAo?$AAr?$AA?$CC?$AA?$AA@ 10b5a9b0     LIBCMTD:open.obj
 0002:000099e0       ??_C@_1HM@GJANBLHJ@?$AA?$CI?$AAo?$AAf?$AAl?$AAa?$AAg?$AA?5?$AA?$CG?$AA?5?$AA?$CI?$AA_?$AAO?$AA_?$AAT?$AAE?$AAX?$AAT?$AA?5?$AA?$HM?$AA?5?$AA_?$AAO?$AA_?$AAW?$AAT?$AAE?$AAX?$AAT?$AA?5?$AA?$HM?$AA?5?$AA_@ 10b5a9e0     LIBCMTD:open.obj
 0002:00009a5c       ??_C@_1DO@PJLMOANO@?$AA?$CI?$AA?5?$AA?$CC?$AAI?$AAn?$AAv?$AAa?$AAl?$AAi?$AAd?$AA?5?$AAs?$AAh?$AAa?$AAr?$AAi?$AAn?$AAg?$AA?5?$AAf?$AAl?$AAa?$AAg?$AA?$CC?$AA?5?$AA?0?$AA?5?$AA0?$AA?5?$AA?$CJ?$AA?$AA@ 10b5aa5c     LIBCMTD:open.obj
 0002:00009a9c       ??_C@_1DI@DGKIFCCE@?$AA?$CI?$AA?5?$AA?$CC?$AAI?$AAn?$AAv?$AAa?$AAl?$AAi?$AAd?$AA?5?$AAo?$AAp?$AAe?$AAn?$AA?5?$AAf?$AAl?$AAa?$AAg?$AA?$CC?$AA?5?$AA?0?$AA?5?$AA0?$AA?5?$AA?$CJ?$AA?$AA@ 10b5aa9c     LIBCMTD:open.obj
 0002:00009ad4       ??_C@_1CG@ICBEBDJJ@?$AA_?$AAg?$AAe?$AAt?$AA_?$AAf?$AAm?$AAo?$AAd?$AAe?$AA?$CI?$AA?$CG?$AAf?$AAm?$AAo?$AAd?$AAe?$AA?$CJ?$AA?$AA@ 10b5aad4     LIBCMTD:open.obj
 0002:00009afc       ??_C@_1BO@JOPFMPGH@?$AA_?$AAt?$AAs?$AAo?$AAp?$AAe?$AAn?$AA_?$AAn?$AAo?$AAl?$AAo?$AAc?$AAk?$AA?$AA@ 10b5aafc     LIBCMTD:open.obj
 0002:00009b1c       ??_C@_1BG@GBJNMPFA@?$AAs?$AA2?$AA?5?$AA?$CB?$AA?$DN?$AA?5?$AAN?$AAU?$AAL?$AAL?$AA?$AA@ 10b5ab1c     LIBCMTD:mbsnbicm.obj
 0002:00009b34       ??_C@_1BK@GEJONGBG@?$AA_?$AAm?$AAb?$AAs?$AAn?$AAb?$AAi?$AAc?$AAm?$AAp?$AA_?$AAl?$AA?$AA@ 10b5ab34     LIBCMTD:mbsnbicm.obj
 0002:00009b50       ??_C@_1GE@JLFFJINF@?$AAf?$AA?3?$AA?2?$AAd?$AAd?$AA?2?$AAv?$AAc?$AAt?$AAo?$AAo?$AAl?$AAs?$AA?2?$AAc?$AAr?$AAt?$AA_?$AAb?$AAl?$AAd?$AA?2?$AAs?$AAe?$AAl?$AAf?$AA_?$AAx?$AA8?$AA6?$AA?2?$AAc@ 10b5ab50     LIBCMTD:mbsnbicm.obj
 0002:00009bb4       ??_C@_1BG@MODEICJK@?$AAs?$AA1?$AA?5?$AA?$CB?$AA?$DN?$AA?5?$AAN?$AAU?$AAL?$AAL?$AA?$AA@ 10b5abb4     LIBCMTD:mbsnbicm.obj
 0002:00009bcc       ??_C@_1BI@LPHOHGHI@?$AA_?$AAm?$AAb?$AAs?$AAn?$AAb?$AAc?$AAm?$AAp?$AA_?$AAl?$AA?$AA@ 10b5abcc     LIBCMTD:mbsnbcmp.obj
 0002:00009be8       ??_C@_1GE@IIBFGEPN@?$AAf?$AA?3?$AA?2?$AAd?$AAd?$AA?2?$AAv?$AAc?$AAt?$AAo?$AAo?$AAl?$AAs?$AA?2?$AAc?$AAr?$AAt?$AA_?$AAb?$AAl?$AAd?$AA?2?$AAs?$AAe?$AAl?$AAf?$AA_?$AAx?$AA8?$AA6?$AA?2?$AAc@ 10b5abe8     LIBCMTD:mbsnbcmp.obj
 0002:00009c4c       ??_C@_0BK@CFCOFLF@?5Complete?5Object?5Locator?8?$AA@ 10b5ac4c     LIBCMTD:undname.obj
 0002:00009c68       ??_C@_0BN@MECKDCOJ@?5Class?5Hierarchy?5Descriptor?8?$AA@ 10b5ac68     LIBCMTD:undname.obj
 0002:00009c88       ??_C@_0BD@LGICGFMM@?5Base?5Class?5Array?8?$AA@ 10b5ac88     LIBCMTD:undname.obj
 0002:00009c9c       ??_C@_0BM@LDKODKLH@?5Base?5Class?5Descriptor?5at?5?$CI?$AA@ 10b5ac9c     LIBCMTD:undname.obj
 0002:00009cb8       ??_C@_0BC@DAFEJGAK@?5Type?5Descriptor?8?$AA@ 10b5acb8     LIBCMTD:undname.obj
 0002:00009ccc       ??_C@_0BM@PMGGMLDN@?$GAlocal?5static?5thread?5guard?8?$AA@ 10b5accc     LIBCMTD:undname.obj
 0002:00009ce8       ??_C@_0CL@FGIJHLCE@?$GAmanaged?5vector?5copy?5constructor@ 10b5ace8     LIBCMTD:undname.obj
 0002:00009d14       ??_C@_0CJ@GJELGAMM@?$GAvector?5vbase?5copy?5constructor?5i@ 10b5ad14     LIBCMTD:undname.obj
 0002:00009d40       ??_C@_0CD@CGAJBKEJ@?$GAvector?5copy?5constructor?5iterato@ 10b5ad40     LIBCMTD:undname.obj
 0002:00009d64       ??_C@_0CB@PDBIFEP@?$GAdynamic?5atexit?5destructor?5for?5?8@ 10b5ad64     LIBCMTD:undname.obj
 0002:00009d88       ??_C@_0BL@CLIPGLGB@?$GAdynamic?5initializer?5for?5?8?$AA@ 10b5ad88     LIBCMTD:undname.obj
 0002:00009da4       ??_C@_0CM@FCBBDIGB@?$GAeh?5vector?5vbase?5copy?5constructo@ 10b5ada4     LIBCMTD:undname.obj
 0002:00009dd0       ??_C@_0CG@HLDDJMAG@?$GAeh?5vector?5copy?5constructor?5iter@ 10b5add0     LIBCMTD:undname.obj
 0002:00009df8       ??_C@_0CF@IMGKMJNO@?$GAmanaged?5vector?5destructor?5itera@ 10b5adf8     LIBCMTD:undname.obj
 0002:00009e20       ??_C@_0CG@CFDHKGGD@?$GAmanaged?5vector?5constructor?5iter@ 10b5ae20     LIBCMTD:undname.obj
 0002:00009e48       ??_C@_0BN@CKNJLHMB@?$GAplacement?5delete?$FL?$FN?5closure?8?$AA@ 10b5ae48     LIBCMTD:undname.obj
 0002:00009e68       ??_C@_0BL@CNOONJFP@?$GAplacement?5delete?5closure?8?$AA@ 10b5ae68     LIBCMTD:undname.obj
 0002:00009e84       ??_C@_0P@HJKNJFNN@?$GAomni?5callsig?8?$AA@ 10b5ae84     LIBCMTD:undname.obj
 0002:00009e94       ??_C@_09LBNFPBCA@?5delete?$FL?$FN?$AA@ 10b5ae94     LIBCMTD:undname.obj
 0002:00009ea0       ??_C@_06FHBGPFGH@?5new?$FL?$FN?$AA@ 10b5aea0     LIBCMTD:undname.obj
 0002:00009ea8       ??_C@_0CE@IIHCMGGL@?$GAlocal?5vftable?5constructor?5closu@ 10b5aea8     LIBCMTD:undname.obj
 0002:00009ecc       ??_C@_0BA@KKLDJDLB@?$GAlocal?5vftable?8?$AA@ 10b5aecc     LIBCMTD:undname.obj
 0002:00009edc       ??_C@_05KHLCHHI@?$GARTTI?$AA@ 10b5aedc     LIBCMTD:undname.obj
 0002:00009ee4       ??_C@_03KLGMFNMG@?$GAEH?$AA@ 10b5aee4     LIBCMTD:undname.obj
 0002:00009ee8       ??_C@_0BA@KBCDOMBN@?$GAudt?5returning?8?$AA@ 10b5aee8     LIBCMTD:undname.obj
 0002:00009ef8       ??_C@_0BL@LLKPOHJI@?$GAcopy?5constructor?5closure?8?$AA@ 10b5aef8     LIBCMTD:undname.obj
 0002:00009f14       ??_C@_0CH@OOJPLCPH@?$GAeh?5vector?5vbase?5constructor?5ite@ 10b5af14     LIBCMTD:undname.obj
 0002:00009f3c       ??_C@_0CA@GCEOPDGL@?$GAeh?5vector?5destructor?5iterator?8?$AA@ 10b5af3c     LIBCMTD:undname.obj
 0002:00009f5c       ??_C@_0CB@JONCMFFK@?$GAeh?5vector?5constructor?5iterator?8@ 10b5af5c     LIBCMTD:undname.obj
 0002:00009f80       ??_C@_0BL@NILFHHPC@?$GAvirtual?5displacement?5map?8?$AA@ 10b5af80     LIBCMTD:undname.obj
 0002:00009f9c       ??_C@_0CE@IKBNEHA@?$GAvector?5vbase?5constructor?5iterat@ 10b5af9c     LIBCMTD:undname.obj
 0002:00009fc0       ??_C@_0BN@LFPFMEDL@?$GAvector?5destructor?5iterator?8?$AA@ 10b5afc0     LIBCMTD:undname.obj
 0002:00009fe0       ??_C@_0BO@PFGOCPJJ@?$GAvector?5constructor?5iterator?8?$AA@ 10b5afe0     LIBCMTD:undname.obj
 0002:0000a000       ??_C@_0BN@IMDCHIKM@?$GAscalar?5deleting?5destructor?8?$AA@ 10b5b000     LIBCMTD:undname.obj
 0002:0000a020       ??_C@_0BO@OBMKPJIG@?$GAdefault?5constructor?5closure?8?$AA@ 10b5b020     LIBCMTD:undname.obj
 0002:0000a040       ??_C@_0BN@DEGPLNFK@?$GAvector?5deleting?5destructor?8?$AA@ 10b5b040     LIBCMTD:undname.obj
 0002:0000a060       ??_C@_0BD@JDLKDPAB@?$GAvbase?5destructor?8?$AA@ 10b5b060     LIBCMTD:undname.obj
 0002:0000a074       ??_C@_08OBABFOLI@?$GAstring?8?$AA@ 10b5b074     LIBCMTD:undname.obj
 0002:0000a080       ??_C@_0BF@KDPPACIK@?$GAlocal?5static?5guard?8?$AA@ 10b5b080     LIBCMTD:undname.obj
 0002:0000a098       ??_C@_08LLFFHHDJ@?$GAtypeof?8?$AA@ 10b5b098     LIBCMTD:undname.obj
 0002:0000a0a4       ??_C@_07FEEIOKP@?$GAvcall?8?$AA@ 10b5b0a4     LIBCMTD:undname.obj
 0002:0000a0ac       ??_C@_09BLBHBJP@?$GAvbtable?8?$AA@ 10b5b0ac     LIBCMTD:undname.obj
 0002:0000a0b8       ??_C@_09IFPLHPGF@?$GAvftable?8?$AA@ 10b5b0b8     LIBCMTD:undname.obj
 0002:0000a0c4       ??_C@_02MHEGNOJ@?$FO?$DN?$AA@ 10b5b0c4     LIBCMTD:undname.obj
 0002:0000a0c8       ??_C@_02DHLNPPGH@?$HM?$DN?$AA@ 10b5b0c8     LIBCMTD:undname.obj
 0002:0000a0cc       ??_C@_02FGJGFEAB@?$CG?$DN?$AA@ 10b5b0cc     LIBCMTD:undname.obj
 0002:0000a0d0       ??_C@_03CDNPDDLA@?$DM?$DM?$DN?$AA@ 10b5b0d0     LIBCMTD:undname.obj
 0002:0000a0d4       ??_C@_03IKFCCPFF@?$DO?$DO?$DN?$AA@ 10b5b0d4     LIBCMTD:undname.obj
 0002:0000a0d8       ??_C@_02FENAOKFI@?$CF?$DN?$AA@ 10b5b0d8     LIBCMTD:undname.obj
 0002:0000a0dc       ??_C@_02FJEHGPIO@?1?$DN?$AA@ 10b5b0dc     LIBCMTD:undname.obj
 0002:0000a0e0       ??_C@_02FKMDLLOA@?9?$DN?$AA@ 10b5b0e0     LIBCMTD:undname.obj
 0002:0000a0e4       ??_C@_02FOEOMHFC@?$CL?$DN?$AA@ 10b5b0e4     LIBCMTD:undname.obj
 0002:0000a0e8       ??_C@_02FPIMKNGF@?$CK?$DN?$AA@ 10b5b0e8     LIBCMTD:undname.obj
 0002:0000a0ec       ??_C@_02NONPIBCD@?$HM?$HM?$AA@ 10b5b0ec     LIBCMTD:undname.obj
 0002:0000a0f0       ??_C@_02PPKAJPJL@?$CG?$CG?$AA@ 10b5b0f0     LIBCMTD:undname.obj
 0002:0000a0f4       ??_C@_01DNKMNLPK@?$HM?$AA@ 10b5b0f4     LIBCMTD:undname.obj
 0002:0000a0f8       ??_C@_01JKBOJNNK@?$FO?$AA@ 10b5b0f8     LIBCMTD:undname.obj
 0002:0000a0fc       ??_C@_01PJKLJHI@?$HO?$AA@  10b5b0fc     LIBCMTD:undname.obj
 0002:0000a100       ??_C@_02HCKGKOFO@?$CI?$CJ?$AA@ 10b5b100     LIBCMTD:undname.obj
 0002:0000a104       ??_C@_01IHBHIGKO@?0?$AA@   10b5b104     LIBCMTD:undname.obj
 0002:0000a108       ??_C@_02EEKDKGMJ@?$DO?$DN?$AA@ 10b5b108     LIBCMTD:undname.obj
 0002:0000a10c       ??_C@_01PPODPGHN@?$DO?$AA@ 10b5b10c     LIBCMTD:undname.obj
 0002:0000a110       ??_C@_02EHCHHCKH@?$DM?$DN?$AA@ 10b5b110     LIBCMTD:undname.obj
 0002:0000a114       ??_C@_01MNNFJEPP@?$DM?$AA@ 10b5b114     LIBCMTD:undname.obj
 0002:0000a118       ??_C@_01FGNFDNOH@?$CF?$AA@ 10b5b118     LIBCMTD:undname.obj
 0002:0000a11c       ??_C@_01KMDKNFGN@?1?$AA@   10b5b11c     LIBCMTD:undname.obj
 0002:0000a120       ??_C@_03MNHNFDLC@?9?$DO?$CK?$AA@ 10b5b120     LIBCMTD:undname.obj
 0002:0000a124       ??_C@_01HNPIGOCE@?$CG?$AA@ 10b5b124     LIBCMTD:undname.obj
 0002:0000a128       ??_C@_01MIFGBAGJ@?$CL?$AA@ 10b5b128     LIBCMTD:undname.obj
 0002:0000a12c       ??_C@_01JOAMLHOP@?9?$AA@   10b5b12c     LIBCMTD:undname.obj
 0002:0000a130       ??_C@_02BAABKJLB@?9?9?$AA@ 10b5b130     LIBCMTD:undname.obj
 0002:0000a134       ??_C@_02ECNGHCIF@?$CL?$CL?$AA@ 10b5b134     LIBCMTD:undname.obj
 0002:0000a138       ??_C@_01NBENCBCI@?$CK?$AA@ 10b5b138     LIBCMTD:undname.obj
 0002:0000a13c       ??_C@_02HBOOOICD@?9?$DO?$AA@ 10b5b13c     LIBCMTD:undname.obj
 0002:0000a140       ??_C@_08LHJFAFGD@operator?$AA@ 10b5b140     LIBCMTD:undname.obj
 0002:0000a14c       ??_C@_02GPECMEKF@?$FL?$FN?$AA@ 10b5b14c     LIBCMTD:undname.obj
 0002:0000a150       ??_C@_02FDNJECIE@?$CB?$DN?$AA@ 10b5b150     LIBCMTD:undname.obj
 0002:0000a154       ??_C@_02EGOFBIJA@?$DN?$DN?$AA@ 10b5b154     LIBCMTD:undname.obj
 0002:0000a158       ??_C@_01DCLJPIOD@?$CB?$AA@ 10b5b158     LIBCMTD:undname.obj
 0002:0000a15c       ??_C@_02FODMEDOG@?$DM?$DM?$AA@ 10b5b15c     LIBCMTD:undname.obj
 0002:0000a160       ??_C@_02GPIOPFAK@?$DO?$DO?$AA@ 10b5b160     LIBCMTD:undname.obj
 0002:0000a164       ??_C@_07FPCDHGMM@?5delete?$AA@ 10b5b164     LIBCMTD:undname.obj
 0002:0000a16c       ??_C@_04NIHEBCM@?5new?$AA@ 10b5b16c     LIBCMTD:undname.obj
 0002:0000a174       ??_C@_0M@GFIIJFMG@__unaligned?$AA@ 10b5b174     LIBCMTD:undname.obj
 0002:0000a180       ??_C@_0L@PILCLIHE@__restrict?$AA@ 10b5b180     LIBCMTD:undname.obj
 0002:0000a18c       ??_C@_07JOMMBBKO@__ptr64?$AA@ 10b5b18c     LIBCMTD:undname.obj
 0002:0000a194       ??_C@_09HIJEGCPM@__clrcall?$AA@ 10b5b194     LIBCMTD:undname.obj
 0002:0000a1a0       ??_C@_0L@JMKHOMEK@__fastcall?$AA@ 10b5b1a0     LIBCMTD:undname.obj
 0002:0000a1ac       ??_C@_0L@NPHFGOKO@__thiscall?$AA@ 10b5b1ac     LIBCMTD:undname.obj
 0002:0000a1b8       ??_C@_09IFJBGAPI@__stdcall?$AA@ 10b5b1b8     LIBCMTD:undname.obj
 0002:0000a1c4       ??_C@_08GHMPAG@__pascal?$AA@ 10b5b1c4     LIBCMTD:undname.obj
 0002:0000a1d0       ??_C@_07KOLFKCDI@__cdecl?$AA@ 10b5b1d0     LIBCMTD:undname.obj
 0002:0000a1d8       ??_C@_08EHJDFFNH@__based?$CI?$AA@ 10b5b1d8     LIBCMTD:undname.obj
 0002:0000a368       ___newctype                10b5b368     LIBCMTD:ctype.obj
 0002:0000a668       __wctype                   10b5b668     LIBCMTD:ctype.obj
 0002:0000a870       ___newclmap                10b5b870     LIBCMTD:ctype.obj
 0002:0000a9f0       ___newcumap                10b5b9f0     LIBCMTD:ctype.obj
 0002:0000ab70       ??_C@_08JCCMCCIL@HH?3mm?3ss?$AA@ 10b5bb70     LIBCMTD:strftime.obj
 0002:0000ab7c       ??_C@_0BE@CKGJFCPC@dddd?0?5MMMM?5dd?0?5yyyy?$AA@ 10b5bb7c     LIBCMTD:strftime.obj
 0002:0000ab90       ??_C@_08BPBNCDIB@MM?1dd?1yy?$AA@ 10b5bb90     LIBCMTD:strftime.obj
 0002:0000ab9c       ??_C@_02CJNFDJBF@PM?$AA@   10b5bb9c     LIBCMTD:strftime.obj
 0002:0000aba0       ??_C@_02DEDBPAFC@AM?$AA@   10b5bba0     LIBCMTD:strftime.obj
 0002:0000aba4       ??_C@_08EDHMEBNP@December?$AA@ 10b5bba4     LIBCMTD:strftime.obj
 0002:0000abb0       ??_C@_08HCHEGEOA@November?$AA@ 10b5bbb0     LIBCMTD:strftime.obj
 0002:0000abbc       ??_C@_07JJNFCEND@October?$AA@ 10b5bbbc     LIBCMTD:strftime.obj
 0002:0000abc4       ??_C@_09BHHEALKD@September?$AA@ 10b5bbc4     LIBCMTD:strftime.obj
 0002:0000abd0       ??_C@_06LBBHFDDG@August?$AA@ 10b5bbd0     LIBCMTD:strftime.obj
 0002:0000abd8       ??_C@_04MIEPOIFP@July?$AA@ 10b5bbd8     LIBCMTD:strftime.obj
 0002:0000abe0       ??_C@_04CNLMGBGM@June?$AA@ 10b5bbe0     LIBCMTD:strftime.obj
 0002:0000abe8       ??_C@_05DMJDNLEJ@April?$AA@ 10b5bbe8     LIBCMTD:strftime.obj
 0002:0000abf0       ??_C@_05HPCKOFNC@March?$AA@ 10b5bbf0     LIBCMTD:strftime.obj
 0002:0000abf8       ??_C@_08GNJGEPFN@February?$AA@ 10b5bbf8     LIBCMTD:strftime.obj
 0002:0000ac04       ??_C@_07CGJPFGJA@January?$AA@ 10b5bc04     LIBCMTD:strftime.obj
 0002:0000ac0c       ??_C@_03MKABNOCG@Dec?$AA@  10b5bc0c     LIBCMTD:strftime.obj
 0002:0000ac10       ??_C@_03JPJOFNIA@Nov?$AA@  10b5bc10     LIBCMTD:strftime.obj
 0002:0000ac14       ??_C@_03BMAOKBAD@Oct?$AA@  10b5bc14     LIBCMTD:strftime.obj
 0002:0000ac18       ??_C@_03GGCAPAJC@Sep?$AA@  10b5bc18     LIBCMTD:strftime.obj
 0002:0000ac1c       ??_C@_03IFJFEIGA@Aug?$AA@  10b5bc1c     LIBCMTD:strftime.obj
 0002:0000ac20       ??_C@_03LBGABGKK@Jul?$AA@  10b5bc20     LIBCMTD:strftime.obj
 0002:0000ac24       ??_C@_03IDFGHECI@Jun?$AA@  10b5bc24     LIBCMTD:strftime.obj
 0002:0000ac28       ??_C@_03CNMDKL@May?$AA@    10b5bc28     LIBCMTD:strftime.obj
 0002:0000ac2c       ??_C@_03LEOLGMJP@Apr?$AA@  10b5bc2c     LIBCMTD:strftime.obj
 0002:0000ac30       ??_C@_03ODNJBKGA@Mar?$AA@  10b5bc30     LIBCMTD:strftime.obj
 0002:0000ac34       ??_C@_03HJBDCHOM@Feb?$AA@  10b5bc34     LIBCMTD:strftime.obj
 0002:0000ac38       ??_C@_03JIHJHPIE@Jan?$AA@  10b5bc38     LIBCMTD:strftime.obj
 0002:0000ac3c       ??_C@_08INBOOONO@Saturday?$AA@ 10b5bc3c     LIBCMTD:strftime.obj
 0002:0000ac48       ??_C@_06JECMNKMI@Friday?$AA@ 10b5bc48     LIBCMTD:strftime.obj
 0002:0000ac50       ??_C@_08HACCIKIA@Thursday?$AA@ 10b5bc50     LIBCMTD:strftime.obj
 0002:0000ac5c       ??_C@_09DLIGFAKA@Wednesday?$AA@ 10b5bc5c     LIBCMTD:strftime.obj
 0002:0000ac68       ??_C@_07BAAGCFCM@Tuesday?$AA@ 10b5bc68     LIBCMTD:strftime.obj
 0002:0000ac70       ??_C@_06JLEDEDGH@Monday?$AA@ 10b5bc70     LIBCMTD:strftime.obj
 0002:0000ac78       ??_C@_06OOPIFAJ@Sunday?$AA@ 10b5bc78     LIBCMTD:strftime.obj
 0002:0000ac80       ??_C@_03FEFJNEK@Sat?$AA@   10b5bc80     LIBCMTD:strftime.obj
 0002:0000ac84       ??_C@_03IDIOELNC@Fri?$AA@  10b5bc84     LIBCMTD:strftime.obj
 0002:0000ac88       ??_C@_03IOFIKPDN@Thu?$AA@  10b5bc88     LIBCMTD:strftime.obj
 0002:0000ac8c       ??_C@_03MHOMLAJA@Wed?$AA@  10b5bc8c     LIBCMTD:strftime.obj
 0002:0000ac90       ??_C@_03NAGEINEP@Tue?$AA@  10b5bc90     LIBCMTD:strftime.obj
 0002:0000ac94       ??_C@_03PDAGKDH@Mon?$AA@   10b5bc94     LIBCMTD:strftime.obj
 0002:0000ac98       ??_C@_03KOEHGMDN@Sun?$AA@  10b5bc98     LIBCMTD:strftime.obj
 0002:0000ac9c       ??_C@_1BE@NDMJHJJG@?$AAs?$AAt?$AAr?$AAn?$AAc?$AAp?$AAy?$AA_?$AAs?$AA?$AA@ 10b5bc9c     LIBCMTD:strncpy_s.obj
 0002:0000acb0       ??_C@_1GK@PAJJBKJF@?$AAf?$AA?3?$AA?2?$AAd?$AAd?$AA?2?$AAv?$AAc?$AAt?$AAo?$AAo?$AAl?$AAs?$AA?2?$AAc?$AAr?$AAt?$AA_?$AAb?$AAl?$AAd?$AA?2?$AAs?$AAe?$AAl?$AAf?$AA_?$AAx?$AA8?$AA6?$AA?2?$AAc@ 10b5bcb0     LIBCMTD:strncpy_s.obj
 0002:0000ad20       ??_C@_1FA@MJKDNFFB@?$AA?$CI?$AAL?$AA?$CC?$AAS?$AAt?$AAr?$AAi?$AAn?$AAg?$AA?5?$AAi?$AAs?$AA?5?$AAn?$AAo?$AAt?$AA?5?$AAn?$AAu?$AAl?$AAl?$AA?5?$AAt?$AAe?$AAr?$AAm?$AAi?$AAn?$AAa?$AAt?$AAe?$AAd@ 10b5bd20     LIBCMTD:strcat_s.obj
 0002:0000ad70       ??_C@_1DM@FHLMIEG@?$AAS?$AAt?$AAr?$AAi?$AAn?$AAg?$AA?5?$AAi?$AAs?$AA?5?$AAn?$AAo?$AAt?$AA?5?$AAn?$AAu?$AAl?$AAl?$AA?5?$AAt?$AAe?$AAr?$AAm?$AAi?$AAn?$AAa?$AAt?$AAe?$AAd?$AA?$AA@ 10b5bd70     LIBCMTD:strcat_s.obj
 0002:0000adac       ??_C@_1BC@HGPNAKGC@?$AAs?$AAt?$AAr?$AAc?$AAa?$AAt?$AA_?$AAs?$AA?$AA@ 10b5bdac     LIBCMTD:strcat_s.obj
 0002:0000adc0       ??_C@_1GI@NOKGIAGA@?$AAf?$AA?3?$AA?2?$AAd?$AAd?$AA?2?$AAv?$AAc?$AAt?$AAo?$AAo?$AAl?$AAs?$AA?2?$AAc?$AAr?$AAt?$AA_?$AAb?$AAl?$AAd?$AA?2?$AAs?$AAe?$AAl?$AAf?$AA_?$AAx?$AA8?$AA6?$AA?2?$AAc@ 10b5bdc0     LIBCMTD:strcat_s.obj
 0002:0000ae28       ??_C@_1CA@LFDHAMEM@?$AA_?$AAs?$AAe?$AAt?$AA_?$AAe?$AAr?$AAr?$AAo?$AAr?$AA_?$AAm?$AAo?$AAd?$AAe?$AA?$AA@ 10b5be28     LIBCMTD:errmode.obj
 0002:0000ae48       ??_C@_1GC@FGMGFCNB@?$AAf?$AA?3?$AA?2?$AAd?$AAd?$AA?2?$AAv?$AAc?$AAt?$AAo?$AAo?$AAl?$AAs?$AA?2?$AAc?$AAr?$AAt?$AA_?$AAb?$AAl?$AAd?$AA?2?$AAs?$AAe?$AAl?$AAf?$AA_?$AAx?$AA8?$AA6?$AA?2?$AAc@ 10b5be48     LIBCMTD:errmode.obj
 0002:0000aeac       ??_C@_1DE@BCNCAIK@?$AA?$CI?$AA?$CC?$AAI?$AAn?$AAv?$AAa?$AAl?$AAi?$AAd?$AA?5?$AAe?$AAr?$AAr?$AAo?$AAr?$AA_?$AAm?$AAo?$AAd?$AAe?$AA?$CC?$AA?0?$AA?5?$AA0?$AA?$CJ?$AA?$AA@ 10b5beac     LIBCMTD:errmode.obj
 0002:0000aee0       ??_C@_0BK@CIDNPOGP@GetUserObjectInformationA?$AA@ 10b5bee0     LIBCMTD:crtmbox.obj
 0002:0000aefc       ??_C@_0M@CHKKJDAI@MessageBoxA?$AA@ 10b5befc     LIBCMTD:crtmbox.obj
 0002:0000af08       ??_C@_0L@NDEGIDAG@USER32?4DLL?$AA@ 10b5bf08     LIBCMTD:crtmbox.obj
 0002:0000af14       ??_C@_1CG@JEHFHLNG@?$AA_?$AAm?$AAb?$AAs?$AAt?$AAo?$AAw?$AAc?$AAs?$AA_?$AAl?$AA_?$AAh?$AAe?$AAl?$AAp?$AAe?$AAr?$AA?$AA@ 10b5bf14     LIBCMTD:mbstowcs.obj
 0002:0000af40       ??_C@_1GE@LCCDHBMH@?$AAf?$AA?3?$AA?2?$AAd?$AAd?$AA?2?$AAv?$AAc?$AAt?$AAo?$AAo?$AAl?$AAs?$AA?2?$AAc?$AAr?$AAt?$AA_?$AAb?$AAl?$AAd?$AA?2?$AAs?$AAe?$AAl?$AAf?$AA_?$AAx?$AA8?$AA6?$AA?2?$AAc@ 10b5bf40     LIBCMTD:mbstowcs.obj
 0002:0000afa4       ??_C@_1BE@EEKACIGI@?$AAs?$AA?5?$AA?$CB?$AA?$DN?$AA?5?$AAN?$AAU?$AAL?$AAL?$AA?$AA@ 10b5bfa4     LIBCMTD:mbstowcs.obj
 0002:0000afb8       ??_C@_1CO@JNPEPJAL@?$AAr?$AAe?$AAt?$AAs?$AAi?$AAz?$AAe?$AA?5?$AA?$DM?$AA?$DN?$AA?5?$AAs?$AAi?$AAz?$AAe?$AAI?$AAn?$AAW?$AAo?$AAr?$AAd?$AAs?$AA?$AA@ 10b5bfb8     LIBCMTD:mbstowcs.obj
 0002:0000afe8       ??_C@_1CM@LLECFMFH@?$AAb?$AAu?$AAf?$AAf?$AAe?$AAr?$AAS?$AAi?$AAz?$AAe?$AA?5?$AA?$DM?$AA?$DN?$AA?5?$AAI?$AAN?$AAT?$AA_?$AAM?$AAA?$AAX?$AA?$AA@ 10b5bfe8     LIBCMTD:mbstowcs.obj
 0002:0000b014       ??_C@_1BM@PHENIGHD@?$AA_?$AAm?$AAb?$AAs?$AAt?$AAo?$AAw?$AAc?$AAs?$AA_?$AAs?$AA_?$AAl?$AA?$AA@ 10b5c014     LIBCMTD:mbstowcs.obj
 0002:0000b030       ??_C@_1JA@JKDFMOPO@?$AA?$CI?$AAp?$AAw?$AAc?$AAs?$AA?5?$AA?$DN?$AA?$DN?$AA?5?$AAN?$AAU?$AAL?$AAL?$AA?5?$AA?$CG?$AA?$CG?$AA?5?$AAs?$AAi?$AAz?$AAe?$AAI?$AAn?$AAW?$AAo?$AAr?$AAd?$AAs?$AA?5?$AA?$DN?$AA?$DN?$AA?5@ 10b5c030     LIBCMTD:mbstowcs.obj
 0002:0000b0c0       ??_C@_1CM@HABGDNLJ@?$AAl?$AAe?$AAn?$AAg?$AAt?$AAh?$AA?5?$AA?$DM?$AA?5?$AAs?$AAi?$AAz?$AAe?$AAI?$AAn?$AAT?$AAC?$AAh?$AAa?$AAr?$AAs?$AA?$AA@ 10b5c0c0     LIBCMTD:xtoas.obj
 0002:0000b0ec       ??_C@_1DE@PCJGDBBD@?$AA2?$AA?5?$AA?$DM?$AA?$DN?$AA?5?$AAr?$AAa?$AAd?$AAi?$AAx?$AA?5?$AA?$CG?$AA?$CG?$AA?5?$AAr?$AAa?$AAd?$AAi?$AAx?$AA?5?$AA?$DM?$AA?$DN?$AA?5?$AA3?$AA6?$AA?$AA@ 10b5c0ec     LIBCMTD:xtoas.obj
 0002:0000b120       ??_C@_1FA@MKGGAGEI@?$AAs?$AAi?$AAz?$AAe?$AAI?$AAn?$AAT?$AAC?$AAh?$AAa?$AAr?$AAs?$AA?5?$AA?$DO?$AA?5?$AA?$CI?$AAs?$AAi?$AAz?$AAe?$AA_?$AAt?$AA?$CJ?$AA?$CI?$AAi?$AAs?$AA_?$AAn?$AAe?$AAg?$AA?5?$AA?$DP@ 10b5c120     LIBCMTD:xtoas.obj
 0002:0000b170       ??_C@_1CC@JNJFIMGE@?$AAs?$AAi?$AAz?$AAe?$AAI?$AAn?$AAT?$AAC?$AAh?$AAa?$AAr?$AAs?$AA?5?$AA?$DO?$AA?5?$AA0?$AA?$AA@ 10b5c170     LIBCMTD:xtoas.obj
 0002:0000b194       ??_C@_1O@GIMBNLEI@?$AAx?$AAt?$AAo?$AAa?$AA_?$AAs?$AA?$AA@ 10b5c194     LIBCMTD:xtoas.obj
 0002:0000b1a8       ??_C@_1FM@MFCBFCGB@?$AAf?$AA?3?$AA?2?$AAd?$AAd?$AA?2?$AAv?$AAc?$AAt?$AAo?$AAo?$AAl?$AAs?$AA?2?$AAc?$AAr?$AAt?$AA_?$AAb?$AAl?$AAd?$AA?2?$AAs?$AAe?$AAl?$AAf?$AA_?$AAx?$AA8?$AA6?$AA?2?$AAc@ 10b5c1a8     LIBCMTD:xtoas.obj
 0002:0000b204       ??_C@_1CG@LLJCAOHF@?$AA_?$AAw?$AAc?$AAs?$AAt?$AAo?$AAm?$AAb?$AAs?$AA_?$AAl?$AA_?$AAh?$AAe?$AAl?$AAp?$AAe?$AAr?$AA?$AA@ 10b5c204     LIBCMTD:wcstombs.obj
 0002:0000b230       ??_C@_1GE@OAENIBOD@?$AAf?$AA?3?$AA?2?$AAd?$AAd?$AA?2?$AAv?$AAc?$AAt?$AAo?$AAo?$AAl?$AAs?$AA?2?$AAc?$AAr?$AAt?$AA_?$AAb?$AAl?$AAd?$AA?2?$AAs?$AAe?$AAl?$AAf?$AA_?$AAx?$AA8?$AA6?$AA?2?$AAc@ 10b5c230     LIBCMTD:wcstombs.obj
 0002:0000b294       ??_C@_1BK@OIBENBPM@?$AAp?$AAw?$AAc?$AAs?$AA?5?$AA?$CB?$AA?$DN?$AA?5?$AAN?$AAU?$AAL?$AAL?$AA?$AA@ 10b5c294     LIBCMTD:wcstombs.obj
 0002:0000b2b0       ??_C@_1CM@KEOGBFLI@?$AAs?$AAi?$AAz?$AAe?$AAI?$AAn?$AAB?$AAy?$AAt?$AAe?$AAs?$AA?5?$AA?$DO?$AA?5?$AAr?$AAe?$AAt?$AAs?$AAi?$AAz?$AAe?$AA?$AA@ 10b5c2b0     LIBCMTD:wcstombs.obj
 0002:0000b2dc       ??_C@_1BM@BDMCLLDL@?$AA_?$AAw?$AAc?$AAs?$AAt?$AAo?$AAm?$AAb?$AAs?$AA_?$AAs?$AA_?$AAl?$AA?$AA@ 10b5c2dc     LIBCMTD:wcstombs.obj
 0002:0000b2f8       ??_C@_1IM@MFGKHGBP@?$AA?$CI?$AAd?$AAs?$AAt?$AA?5?$AA?$CB?$AA?$DN?$AA?5?$AAN?$AAU?$AAL?$AAL?$AA?5?$AA?$CG?$AA?$CG?$AA?5?$AAs?$AAi?$AAz?$AAe?$AAI?$AAn?$AAB?$AAy?$AAt?$AAe?$AAs?$AA?5?$AA?$DO?$AA?5?$AA0?$AA?$CJ@ 10b5c2f8     LIBCMTD:wcstombs.obj
 0002:0000b384       ??_C@_1BC@PLIEPKPJ@?$AAw?$AAc?$AAs?$AAc?$AAa?$AAt?$AA_?$AAs?$AA?$AA@ 10b5c384     LIBCMTD:wcscat_s.obj
 0002:0000b398       ??_C@_1CE@IGKFIJFD@?$AA_?$AAv?$AAs?$AAw?$AAp?$AAr?$AAi?$AAn?$AAt?$AAf?$AA_?$AAh?$AAe?$AAl?$AAp?$AAe?$AAr?$AA?$AA@ 10b5c398     LIBCMTD:vswprnc.obj
 0002:0000b3c0       ??_C@_1EE@MPCHJFGP@?$AAs?$AAt?$AAr?$AAi?$AAn?$AAg?$AA?5?$AA?$CB?$AA?$DN?$AA?5?$AAN?$AAU?$AAL?$AAL?$AA?5?$AA?$CG?$AA?$CG?$AA?5?$AAs?$AAi?$AAz?$AAe?$AAI?$AAn?$AAW?$AAo?$AAr?$AAd?$AAs?$AA?5?$AA?$DO?$AA?5@ 10b5c3c0     LIBCMTD:vswprnc.obj
 0002:0000b404       ??_C@_1CA@BKFKMJFF@?$AA_?$AAv?$AAs?$AAn?$AAw?$AAp?$AAr?$AAi?$AAn?$AAt?$AAf?$AA_?$AAs?$AA_?$AAl?$AA?$AA@ 10b5c404     LIBCMTD:vswprnc.obj
 0002:0000b424       ??_C@_1O@NCBFODOE@?$AAx?$AAt?$AAo?$AAw?$AA_?$AAs?$AA?$AA@ 10b5c424     LIBCMTD:xtows.obj
 0002:0000b434       ??_C@_1BK@CDOALEA@?$AA_?$AAc?$AAo?$AAn?$AAt?$AAr?$AAo?$AAl?$AAf?$AAp?$AA_?$AAs?$AA?$AA@ 10b5c434     LIBCMTD:_contrlfp_.obj
 0002:0000b450       ??_C@_1HI@JIOCECAH@?$AAf?$AA?3?$AA?2?$AAd?$AAd?$AA?2?$AAv?$AAc?$AAt?$AAo?$AAo?$AAl?$AAs?$AA?2?$AAc?$AAr?$AAt?$AA_?$AAb?$AAl?$AAd?$AA?2?$AAs?$AAe?$AAl?$AAf?$AA_?$AAx?$AA8?$AA6?$AA?2?$AAc@ 10b5c450     LIBCMTD:_contrlfp_.obj
 0002:0000b4c8       ??_C@_1DG@JNDMIEJL@?$AA?$CI?$AA?$CC?$AAI?$AAn?$AAv?$AAa?$AAl?$AAi?$AAd?$AA?5?$AAi?$AAn?$AAp?$AAu?$AAt?$AA?5?$AAv?$AAa?$AAl?$AAu?$AAe?$AA?$CC?$AA?0?$AA?5?$AA0?$AA?$CJ?$AA?$AA@ 10b5c4c8     LIBCMTD:_contrlfp_.obj
 0002:0000b500       ??_C@_1BK@CLIEHFDF@?$AAp?$AAf?$AAl?$AAt?$AA?5?$AA?$CB?$AA?$DN?$AA?5?$AAN?$AAU?$AAL?$AAL?$AA?$AA@ 10b5c500     LIBCMTD:_fptostr.obj
 0002:0000b520       ??_C@_1GM@CEDLGDDI@?$AAs?$AAi?$AAz?$AAe?$AAI?$AAn?$AAB?$AAy?$AAt?$AAe?$AAs?$AA?5?$AA?$DO?$AA?5?$AA?$CI?$AAs?$AAi?$AAz?$AAe?$AA_?$AAt?$AA?$CJ?$AA?$CI?$AA?$CI?$AAd?$AAi?$AAg?$AAi?$AAt?$AAs?$AA?5?$AA?$DO@ 10b5c520     LIBCMTD:_fptostr.obj
 0002:0000b58c       ??_C@_1BC@OPALLEB@?$AA_?$AAf?$AAp?$AAt?$AAo?$AAs?$AAt?$AAr?$AA?$AA@ 10b5c58c     LIBCMTD:_fptostr.obj
 0002:0000b5a0       ??_C@_1GE@BDKOPHIO@?$AAf?$AA?3?$AA?2?$AAd?$AAd?$AA?2?$AAv?$AAc?$AAt?$AAo?$AAo?$AAl?$AAs?$AA?2?$AAc?$AAr?$AAt?$AA_?$AAb?$AAl?$AAd?$AA?2?$AAs?$AAe?$AAl?$AAf?$AA_?$AAx?$AA8?$AA6?$AA?2?$AAc@ 10b5c5a0     LIBCMTD:_fptostr.obj
 0002:0000b608       ??_C@_1FK@KODCOBKF@?$AAs?$AAt?$AAr?$AAc?$AAp?$AAy?$AA_?$AAs?$AA?$CI?$AAr?$AAe?$AAs?$AAu?$AAl?$AAt?$AAs?$AAt?$AAr?$AA?0?$AA?5?$AAr?$AAe?$AAs?$AAu?$AAl?$AAt?$AAs?$AAi?$AAz?$AAe?$AA?0?$AA?5@ 10b5c608     LIBCMTD:_cfout_.obj
 0002:0000b664       ??_C@_1BC@BPMMEHLK@?$AA_?$AAf?$AAl?$AAt?$AAo?$AAu?$AAt?$AA2?$AA?$AA@ 10b5c664     LIBCMTD:_cfout_.obj
 0002:0000b678       ??_C@_1HC@PKFDNKN@?$AAf?$AA?3?$AA?2?$AAd?$AAd?$AA?2?$AAv?$AAc?$AAt?$AAo?$AAo?$AAl?$AAs?$AA?2?$AAc?$AAr?$AAt?$AA_?$AAb?$AAl?$AAd?$AA?2?$AAs?$AAe?$AAl?$AAf?$AA_?$AAx?$AA8?$AA6?$AA?2?$AAc@ 10b5c678     LIBCMTD:_cfout_.obj
 0002:0000b6f0       ??_C@_1GA@GFFDGGFH@?$AAf?$AA?3?$AA?2?$AAd?$AAd?$AA?2?$AAv?$AAc?$AAt?$AAo?$AAo?$AAl?$AAs?$AA?2?$AAc?$AAr?$AAt?$AA_?$AAb?$AAl?$AAd?$AA?2?$AAs?$AAe?$AAl?$AAf?$AA_?$AAx?$AA8?$AA6?$AA?2?$AAc@ 10b5c6f0     LIBCMTD:mbtowc.obj
 0002:0000b750       ??_C@_1NC@EINCOKCO@?$AA_?$AAl?$AAo?$AAc?$AA_?$AAu?$AAp?$AAd?$AAa?$AAt?$AAe?$AA?4?$AAG?$AAe?$AAt?$AAL?$AAo?$AAc?$AAa?$AAl?$AAe?$AAT?$AA?$CI?$AA?$CJ?$AA?9?$AA?$DO?$AAl?$AAo?$AAc?$AAi?$AAn?$AAf@ 10b5c750     LIBCMTD:mbtowc.obj
 0002:0000b824       ??_C@_0DC@IHGBBJOH@f?3?2dd?2vctools?2crt_bld?2self_x86?2c@ 10b5c824     LIBCMTD:convrtcp.obj
 0002:0000b858       ??_C@_1CC@HBLPFNKH@?$AA?$CI?$AAc?$AAn?$AAt?$AA?5?$AA?$DM?$AA?$DN?$AA?5?$AAI?$AAN?$AAT?$AA_?$AAM?$AAA?$AAX?$AA?$CJ?$AA?$AA@ 10b5c858     LIBCMTD:read.obj
 0002:0000b880       ??_C@_1FM@NGICBHLO@?$AAf?$AA?3?$AA?2?$AAd?$AAd?$AA?2?$AAv?$AAc?$AAt?$AAo?$AAo?$AAl?$AAs?$AA?2?$AAc?$AAr?$AAt?$AA_?$AAb?$AAl?$AAd?$AA?2?$AAs?$AAe?$AAl?$AAf?$AA_?$AAx?$AA8?$AA6?$AA?2?$AAc@ 10b5c880     LIBCMTD:read.obj
 0002:0000b8dc       ??_C@_0CO@CEGKNHEH@f?3?2dd?2vctools?2crt_bld?2self_x86?2c@ 10b5c8dc     LIBCMTD:read.obj
 0002:0000b90c       ??_C@_1CG@OHLJHGGK@?$AA?$CI?$AAi?$AAn?$AAp?$AAu?$AAt?$AAb?$AAu?$AAf?$AA?5?$AA?$CB?$AA?$DN?$AA?5?$AAN?$AAU?$AAL?$AAL?$AA?$CJ?$AA?$AA@ 10b5c90c     LIBCMTD:read.obj
 0002:0000b934       ??_C@_1BK@JJBHNDKJ@?$AA_?$AAr?$AAe?$AAa?$AAd?$AA_?$AAn?$AAo?$AAl?$AAo?$AAc?$AAk?$AA?$AA@ 10b5c934     LIBCMTD:read.obj
 0002:0000b950       ??_C@_1FO@LGKMLCAL@?$AAf?$AA?3?$AA?2?$AAd?$AAd?$AA?2?$AAv?$AAc?$AAt?$AAo?$AAo?$AAl?$AAs?$AA?2?$AAc?$AAr?$AAt?$AA_?$AAb?$AAl?$AAd?$AA?2?$AAs?$AAe?$AAl?$AAf?$AA_?$AAx?$AA8?$AA6?$AA?2?$AAc@ 10b5c950     LIBCMTD:lseek.obj
 0002:0000b9b0       ??_C@_1DM@LMLOLGJ@?$AA?$CI?$AA?$CC?$AAI?$AAn?$AAv?$AAa?$AAl?$AAi?$AAd?$AA?5?$AAf?$AAi?$AAl?$AAe?$AA?5?$AAd?$AAe?$AAs?$AAc?$AAr?$AAi?$AAp?$AAt?$AAo?$AAr?$AA?$CC?$AA?0?$AA0?$AA?$CJ?$AA?$AA@ 10b5c9b0     LIBCMTD:lseek.obj
 0002:0000b9f0       ??_C@_1GC@KODPFLLJ@?$AAf?$AA?3?$AA?2?$AAd?$AAd?$AA?2?$AAv?$AAc?$AAt?$AAo?$AAo?$AAl?$AAs?$AA?2?$AAc?$AAr?$AAt?$AA_?$AAb?$AAl?$AAd?$AA?2?$AAs?$AAe?$AAl?$AAf?$AA_?$AAx?$AA8?$AA6?$AA?2?$AAc@ 10b5c9f0     LIBCMTD:setmode.obj
 0002:0000ba54       ??_C@_1BG@CKGMPOFH@?$AA_?$AAg?$AAe?$AAt?$AA_?$AAf?$AAm?$AAo?$AAd?$AAe?$AA?$AA@ 10b5ca54     LIBCMTD:setmode.obj
 0002:0000ba6c       ??_C@_1CA@GPIGPPFN@?$AA?$CI?$AAp?$AAM?$AAo?$AAd?$AAe?$AA?5?$AA?$CB?$AA?$DN?$AA?5?$AAN?$AAU?$AAL?$AAL?$AA?$CJ?$AA?$AA@ 10b5ca6c     LIBCMTD:setmode.obj
 0002:0000ba8c       ??_C@_1CC@JLPHKJPH@?$AAc?$AAo?$AAu?$AAn?$AAt?$AA?5?$AA?$DM?$AA?$DN?$AA?5?$AAI?$AAN?$AAT?$AA_?$AAM?$AAA?$AAX?$AA?$AA@ 10b5ca8c     LIBCMTD:strnicmp.obj
 0002:0000bab0       ??_C@_1BI@BJLEPLEF@?$AA_?$AAs?$AAt?$AAr?$AAn?$AAi?$AAc?$AAm?$AAp?$AA_?$AAl?$AA?$AA@ 10b5cab0     LIBCMTD:strnicmp.obj
 0002:0000bac8       ??_C@_1GE@CONPOJMA@?$AAf?$AA?3?$AA?2?$AAd?$AAd?$AA?2?$AAv?$AAc?$AAt?$AAo?$AAo?$AAl?$AAs?$AA?2?$AAc?$AAr?$AAt?$AA_?$AAb?$AAl?$AAd?$AA?2?$AAs?$AAe?$AAl?$AAf?$AA_?$AAx?$AA8?$AA6?$AA?2?$AAc@ 10b5cac8     LIBCMTD:strnicmp.obj
 0002:0000bb2c       ??_C@_1BE@BHJDFFNA@?$AA_?$AAs?$AAt?$AAr?$AAn?$AAi?$AAc?$AAm?$AAp?$AA?$AA@ 10b5cb2c     LIBCMTD:strnicmp.obj
 0002:0000bb40       ___dnames                  10b5cb40     LIBCMTD:timeset.obj
 0002:0000bb58       ___mnames                  10b5cb58     LIBCMTD:timeset.obj
 0002:0000bb80       ??_C@_1BK@ONMFGLDB@?$AA_?$AAw?$AAo?$AAu?$AAt?$AAp?$AAu?$AAt?$AA_?$AAs?$AA_?$AAl?$AA?$AA@ 10b5cb80     LIBCMTD:woutputs.obj
 0002:0000bb9c       ?commonFlags@?1??_control87@@9@9 10b5cb9c     LIBCMTD:_ieee87_.obj
 0002:0000bba0       ??_C@_1BO@IHLJHOPI@?$AA_?$AA_?$AAs?$AAt?$AAr?$AAg?$AAt?$AAo?$AAl?$AAd?$AA1?$AA2?$AA_?$AAl?$AA?$AA@ 10b5cba0     LIBCMTD:_strgtold_.obj
 0002:0000bbc0       ??_C@_1IG@IGKPPFIM@?$AAf?$AA?3?$AA?2?$AAd?$AAd?$AA?2?$AAv?$AAc?$AAt?$AAo?$AAo?$AAl?$AAs?$AA?2?$AAc?$AAr?$AAt?$AA_?$AAb?$AAl?$AAd?$AA?2?$AAs?$AAe?$AAl?$AAf?$AA_?$AAx?$AA8?$AA6?$AA?2?$AAc@ 10b5cbc0     LIBCMTD:_strgtold_.obj
 0002:0000bc48       ??_C@_1CA@MBDBOHIB@?$AA_?$AAL?$AAo?$AAc?$AAa?$AAl?$AAe?$AA?5?$AA?$CB?$AA?$DN?$AA?5?$AAN?$AAU?$AAL?$AAL?$AA?$AA@ 10b5cc48     LIBCMTD:_strgtold_.obj
 0002:0000bc68       ??_C@_06IMKFLFPG@1?$CDQNAN?$AA@ 10b5cc68     LIBCMTD:_x10fout_.obj
 0002:0000bc70       ??_C@_1EG@MCFPJJEM@?$AAs?$AAt?$AAr?$AAc?$AAp?$AAy?$AA_?$AAs?$AA?$CI?$AAf?$AAo?$AAs?$AA?9?$AA?$DO?$AAm?$AAa?$AAn?$AA?0?$AA?5?$AA2?$AA1?$AA?$CL?$AA1?$AA?0?$AA?5?$AA?$CC?$AA1?$AA?$CD?$AAQ?$AAN?$AAA?$AAN@ 10b5cc70     LIBCMTD:_x10fout_.obj
 0002:0000bcb8       ??_C@_05DNEBIAHO@1?$CDINF?$AA@ 10b5ccb8     LIBCMTD:_x10fout_.obj
 0002:0000bcc0       ??_C@_1EE@ICBBBPAI@?$AAs?$AAt?$AAr?$AAc?$AAp?$AAy?$AA_?$AAs?$AA?$CI?$AAf?$AAo?$AAs?$AA?9?$AA?$DO?$AAm?$AAa?$AAn?$AA?0?$AA?5?$AA2?$AA1?$AA?$CL?$AA1?$AA?0?$AA?5?$AA?$CC?$AA1?$AA?$CD?$AAI?$AAN?$AAF?$AA?$CC@ 10b5ccc0     LIBCMTD:_x10fout_.obj
 0002:0000bd04       ??_C@_05PHHOCPM@1?$CDIND?$AA@ 10b5cd04     LIBCMTD:_x10fout_.obj
 0002:0000bd10       ??_C@_1EE@MADEBIHF@?$AAs?$AAt?$AAr?$AAc?$AAp?$AAy?$AA_?$AAs?$AA?$CI?$AAf?$AAo?$AAs?$AA?9?$AA?$DO?$AAm?$AAa?$AAn?$AA?0?$AA?5?$AA2?$AA1?$AA?$CL?$AA1?$AA?0?$AA?5?$AA?$CC?$AA1?$AA?$CD?$AAI?$AAN?$AAD?$AA?$CC@ 10b5cd10     LIBCMTD:_x10fout_.obj
 0002:0000bd54       ??_C@_06PGGFOGJG@1?$CDSNAN?$AA@ 10b5cd54     LIBCMTD:_x10fout_.obj
 0002:0000bd60       ??_C@_1EG@CDDBFNOB@?$AAs?$AAt?$AAr?$AAc?$AAp?$AAy?$AA_?$AAs?$AA?$CI?$AAf?$AAo?$AAs?$AA?9?$AA?$DO?$AAm?$AAa?$AAn?$AA?0?$AA?5?$AA2?$AA1?$AA?$CL?$AA1?$AA?0?$AA?5?$AA?$CC?$AA1?$AA?$CD?$AAS?$AAN?$AAA?$AAN@ 10b5cd60     LIBCMTD:_x10fout_.obj
 0002:0000bda8       ??_C@_1BI@ELMAAFLN@?$AA$?$AAI?$AA1?$AA0?$AA_?$AAO?$AAU?$AAT?$AAP?$AAU?$AAT?$AA?$AA@ 10b5cda8     LIBCMTD:_x10fout_.obj
 0002:0000bdc0       ??_C@_1HG@HFJMHCFK@?$AAf?$AA?3?$AA?2?$AAd?$AAd?$AA?2?$AAv?$AAc?$AAt?$AAo?$AAo?$AAl?$AAs?$AA?2?$AAc?$AAr?$AAt?$AA_?$AAb?$AAl?$AAd?$AA?2?$AAs?$AAe?$AAl?$AAf?$AA_?$AAx?$AA8?$AA6?$AA?2?$AAc@ 10b5cdc0     LIBCMTD:_x10fout_.obj
 0002:0000be38       ??_C@_07GPDNMNG@CONOUT$?$AA@ 10b5ce38     LIBCMTD:initcon.obj
 0002:0000be40       __load_config_used         10b5ce40     LIBCMTD:loadcfg.obj
 0002:0000bee8       ??_R4bad_alloc@std@@6B@    10b5cee8     ErrorLog.obj
 0002:0000befc       ??_R3bad_alloc@std@@8      10b5cefc     ErrorLog.obj
 0002:0000bf0c       ??_R2bad_alloc@std@@8      10b5cf0c     ErrorLog.obj
 0002:0000bf18       ??_R1A@?0A@EA@bad_alloc@std@@8 10b5cf18     ErrorLog.obj
 0002:0000bf34       ??_R1A@?0A@EA@exception@std@@8 10b5cf34     ErrorLog.obj
 0002:0000bf50       ??_R3exception@std@@8      10b5cf50     ErrorLog.obj
 0002:0000bf60       ??_R2exception@std@@8      10b5cf60     ErrorLog.obj
 0002:0000bf68       ??_R4CLinkManager@@6B@     10b5cf68     LinkManager.obj
 0002:0000bf7c       ??_R3CLinkManager@@8       10b5cf7c     LinkManager.obj
 0002:0000bf8c       ??_R2CLinkManager@@8       10b5cf8c     LinkManager.obj
 0002:0000bfb0       ??_R1A@?0A@EA@CLinkManager@@8 10b5cfb0     LinkManager.obj
 0002:0000bfcc       ??_R1A@?0A@EA@?$AdlSocketSingleT@VGSocketHandler@@VGBufSocket@@VPayloadGS@@@@8 10b5cfcc     LinkManager.obj
 0002:0000bfe8       ??_R3?$AdlSocketSingleT@VGSocketHandler@@VGBufSocket@@VPayloadGS@@@@8 10b5cfe8     LinkManager.obj
 0002:0000bff8       ??_R2?$AdlSocketSingleT@VGSocketHandler@@VGBufSocket@@VPayloadGS@@@@8 10b5cff8     LinkManager.obj
 0002:0000c018       ??_R1A@?0A@EA@?$AdlSocketDispatcherImplT@V?$BufSocketSingleT@VGSocketHandler@@VGBufSocket@@@@VPayloadGS@@@@8 10b5d018     LinkManager.obj
 0002:0000c034       ??_R3?$AdlSocketDispatcherImplT@V?$BufSocketSingleT@VGSocketHandler@@VGBufSocket@@@@VPayloadGS@@@@8 10b5d034     LinkManager.obj
 0002:0000c044       ??_R2?$AdlSocketDispatcherImplT@V?$BufSocketSingleT@VGSocketHandler@@VGBufSocket@@@@VPayloadGS@@@@8 10b5d044     LinkManager.obj
 0002:0000c060       ??_R1A@?0A@EA@?$BufSocketSingleT@VGSocketHandler@@VGBufSocket@@@@8 10b5d060     LinkManager.obj
 0002:0000c07c       ??_R3?$BufSocketSingleT@VGSocketHandler@@VGBufSocket@@@@8 10b5d07c     LinkManager.obj
 0002:0000c08c       ??_R2?$BufSocketSingleT@VGSocketHandler@@VGBufSocket@@@@8 10b5d08c     LinkManager.obj
 0002:0000c0a4       ??_R1A@?0A@EA@?$BufSocketDispatcherImplT@V?$SocketSingleT@VGSocketHandler@@VGBufSocket@@@@@@8 10b5d0a4     LinkManager.obj
 0002:0000c0c0       ??_R3?$BufSocketDispatcherImplT@V?$SocketSingleT@VGSocketHandler@@VGBufSocket@@@@@@8 10b5d0c0     LinkManager.obj
 0002:0000c0d0       ??_R2?$BufSocketDispatcherImplT@V?$SocketSingleT@VGSocketHandler@@VGBufSocket@@@@@@8 10b5d0d0     LinkManager.obj
 0002:0000c0e4       ??_R1A@?0A@EA@?$SocketSingleT@VGSocketHandler@@VGBufSocket@@@@8 10b5d0e4     LinkManager.obj
 0002:0000c100       ??_R3?$SocketSingleT@VGSocketHandler@@VGBufSocket@@@@8 10b5d100     LinkManager.obj
 0002:0000c110       ??_R2?$SocketSingleT@VGSocketHandler@@VGBufSocket@@@@8 10b5d110     LinkManager.obj
 0002:0000c120       ??_R1A@?0A@EA@?$SocketDispatcherT@VGSocketHandler@@VGBufSocket@@@@8 10b5d120     LinkManager.obj
 0002:0000c13c       ??_R3?$SocketDispatcherT@VGSocketHandler@@VGBufSocket@@@@8 10b5d13c     LinkManager.obj
 0002:0000c14c       ??_R2?$SocketDispatcherT@VGSocketHandler@@VGBufSocket@@@@8 10b5d14c     LinkManager.obj
 0002:0000c158       ??_R1A@?0A@EA@GSocketHandler@@8 10b5d158     LinkManager.obj
 0002:0000c174       ??_R3GSocketHandler@@8     10b5d174     LinkManager.obj
 0002:0000c184       ??_R2GSocketHandler@@8     10b5d184     LinkManager.obj
 0002:0000c18c       ??_R4?$AdlSocketSingleT@VGSocketHandler@@VGBufSocket@@VPayloadGS@@@@6B@ 10b5d18c     LinkManager.obj
 0002:0000c1a0       ??_R4GSafeBufQ@@6B@        10b5d1a0     LinkManager.obj
 0002:0000c1b4       ??_R3GSafeBufQ@@8          10b5d1b4     LinkManager.obj
 0002:0000c1c4       ??_R2GSafeBufQ@@8          10b5d1c4     LinkManager.obj
 0002:0000c1cc       ??_R1A@?0A@EA@GSafeBufQ@@8 10b5d1cc     LinkManager.obj
 0002:0000c1e8       ??_R4?$AdlSocketDispatcherImplT@V?$BufSocketSingleT@VGSocketHandler@@VGBufSocket@@@@VPayloadGS@@@@6B@ 10b5d1e8     LinkManager.obj
 0002:0000c1fc       ??_R4?$BufSocketSingleT@VGSocketHandler@@VGBufSocket@@@@6B@ 10b5d1fc     LinkManager.obj
 0002:0000c210       ??_R4?$BufSocketDispatcherImplT@V?$SocketSingleT@VGSocketHandler@@VGBufSocket@@@@@@6B@ 10b5d210     LinkManager.obj
 0002:0000c224       ??_R4?$SocketSingleT@VGSocketHandler@@VGBufSocket@@@@6B@ 10b5d224     LinkManager.obj
 0002:0000c238       ??_R4?$SocketDispatcherT@VGSocketHandler@@VGBufSocket@@@@6B@ 10b5d238     LinkManager.obj
 0002:0000c24c       ??_R4GSocketHandler@@6B@   10b5d24c     LinkManager.obj
 0002:0000c260       ??_R4PMSUnitID@@6B@        10b5d260     LinkManager.obj
 0002:0000c274       ??_R3PMSUnitID@@8          10b5d274     LinkManager.obj
 0002:0000c284       ??_R2PMSUnitID@@8          10b5d284     LinkManager.obj
 0002:0000c28c       ??_R1A@?0A@EA@PMSUnitID@@8 10b5d28c     LinkManager.obj
 0002:0000c2a8       ??_R4length_error@std@@6B@ 10b5d2a8     LinkManager.obj
 0002:0000c2bc       ??_R3length_error@std@@8   10b5d2bc     LinkManager.obj
 0002:0000c2cc       ??_R2length_error@std@@8   10b5d2cc     LinkManager.obj
 0002:0000c2dc       ??_R1A@?0A@EA@length_error@std@@8 10b5d2dc     LinkManager.obj
 0002:0000c2f8       ??_R1A@?0A@EA@logic_error@std@@8 10b5d2f8     LinkManager.obj
 0002:0000c314       ??_R3logic_error@std@@8    10b5d314     LinkManager.obj
 0002:0000c324       ??_R2logic_error@std@@8    10b5d324     LinkManager.obj
 0002:0000c330       ??_R4logic_error@std@@6B@  10b5d330     LinkManager.obj
 0002:0000c344       ??_R4PMSRegionInfo@@6B@    10b5d344     LinkManagerMsg.obj
 0002:0000c358       ??_R3PMSRegionInfo@@8      10b5d358     LinkManagerMsg.obj
 0002:0000c368       ??_R2PMSRegionInfo@@8      10b5d368     LinkManagerMsg.obj
 0002:0000c370       ??_R1A@?0A@EA@PMSRegionInfo@@8 10b5d370     LinkManagerMsg.obj
 0002:0000c38c       ??_R4PMSStatBase@@6B@      10b5d38c     LinkManagerMsg.obj
 0002:0000c3a0       ??_R3PMSStatBase@@8        10b5d3a0     LinkManagerMsg.obj
 0002:0000c3b0       ??_R2PMSStatBase@@8        10b5d3b0     LinkManagerMsg.obj
 0002:0000c3b8       ??_R1A@?0A@EA@PMSStatBase@@8 10b5d3b8     LinkManagerMsg.obj
 0002:0000c3d4       ??_R4CPMSPerformanceInfo@@6B@ 10b5d3d4     LinkManagerMsg.obj
 0002:0000c3e8       ??_R3CPMSPerformanceInfo@@8 10b5d3e8     LinkManagerMsg.obj
 0002:0000c3f8       ??_R2CPMSPerformanceInfo@@8 10b5d3f8     LinkManagerMsg.obj
 0002:0000c404       ??_R1A@?0A@EA@CPMSPerformanceInfo@@8 10b5d404     LinkManagerMsg.obj
 0002:0000c420       ??_R1A@?0A@EA@IPMSPerformanceInfo@@8 10b5d420     LinkManagerMsg.obj
 0002:0000c43c       ??_R3IPMSPerformanceInfo@@8 10b5d43c     LinkManagerMsg.obj
 0002:0000c44c       ??_R2IPMSPerformanceInfo@@8 10b5d44c     LinkManagerMsg.obj
 0002:0000c454       ??_R4IPMSPerformanceInfo@@6B@ 10b5d454     LinkManagerMsg.obj
 0002:0000c468       ??_R4CPMSRegionInfoList@@6B@ 10b5d468     LinkManagerMsg.obj
 0002:0000c47c       ??_R3CPMSRegionInfoList@@8 10b5d47c     LinkManagerMsg.obj
 0002:0000c48c       ??_R2CPMSRegionInfoList@@8 10b5d48c     LinkManagerMsg.obj
 0002:0000c498       ??_R1A@?0A@EA@CPMSRegionInfoList@@8 10b5d498     LinkManagerMsg.obj
 0002:0000c4b4       ??_R1A@?0A@EA@IPMSRegionInfoList@@8 10b5d4b4     LinkManagerMsg.obj
 0002:0000c4d0       ??_R3IPMSRegionInfoList@@8 10b5d4d0     LinkManagerMsg.obj
 0002:0000c4e0       ??_R2IPMSRegionInfoList@@8 10b5d4e0     LinkManagerMsg.obj
 0002:0000c4e8       ??_R4IPMSRegionInfoList@@6B@ 10b5d4e8     LinkManagerMsg.obj
 0002:0000c4fc       ??_R4CPMSStatInfoList@@6B@ 10b5d4fc     LinkManagerMsg.obj
 0002:0000c510       ??_R3CPMSStatInfoList@@8   10b5d510     LinkManagerMsg.obj
 0002:0000c520       ??_R2CPMSStatInfoList@@8   10b5d520     LinkManagerMsg.obj
 0002:0000c52c       ??_R1A@?0A@EA@CPMSStatInfoList@@8 10b5d52c     LinkManagerMsg.obj
 0002:0000c548       ??_R1A@?0A@EA@IPMSStatInfoList@@8 10b5d548     LinkManagerMsg.obj
 0002:0000c564       ??_R3IPMSStatInfoList@@8   10b5d564     LinkManagerMsg.obj
 0002:0000c574       ??_R2IPMSStatInfoList@@8   10b5d574     LinkManagerMsg.obj
 0002:0000c57c       ??_R4IPMSStatInfoList@@6B@ 10b5d57c     LinkManagerMsg.obj
 0002:0000c590       ??_R4CPMSRegionInfoListPC@@6B@ 10b5d590     LinkManagerMsg.obj
 0002:0000c5a4       ??_R3CPMSRegionInfoListPC@@8 10b5d5a4     LinkManagerMsg.obj
 0002:0000c5b4       ??_R2CPMSRegionInfoListPC@@8 10b5d5b4     LinkManagerMsg.obj
 0002:0000c5c0       ??_R1A@?0A@EA@CPMSRegionInfoListPC@@8 10b5d5c0     LinkManagerMsg.obj
 0002:0000c5dc       ??_R1A@?0A@EA@IPMSRegionInfoListPC@@8 10b5d5dc     LinkManagerMsg.obj
 0002:0000c5f8       ??_R3IPMSRegionInfoListPC@@8 10b5d5f8     LinkManagerMsg.obj
 0002:0000c608       ??_R2IPMSRegionInfoListPC@@8 10b5d608     LinkManagerMsg.obj
 0002:0000c610       ??_R4IPMSRegionInfoListPC@@6B@ 10b5d610     LinkManagerMsg.obj
 0002:0000c624       ??_R4CPMSStatInfoListPC@@6B@ 10b5d624     LinkManagerMsg.obj
 0002:0000c638       ??_R3CPMSStatInfoListPC@@8 10b5d638     LinkManagerMsg.obj
 0002:0000c648       ??_R2CPMSStatInfoListPC@@8 10b5d648     LinkManagerMsg.obj
 0002:0000c654       ??_R1A@?0A@EA@CPMSStatInfoListPC@@8 10b5d654     LinkManagerMsg.obj
 0002:0000c670       ??_R1A@?0A@EA@IPMSStatInfoListPC@@8 10b5d670     LinkManagerMsg.obj
 0002:0000c68c       ??_R3IPMSStatInfoListPC@@8 10b5d68c     LinkManagerMsg.obj
 0002:0000c69c       ??_R2IPMSStatInfoListPC@@8 10b5d69c     LinkManagerMsg.obj
 0002:0000c6a4       ??_R4IPMSStatInfoListPC@@6B@ 10b5d6a4     LinkManagerMsg.obj
 0002:0000c6b8       ??_R4GKernelObj@@6B@       10b5d6b8     GKernelObj.obj
 0002:0000c6cc       ??_R3GKernelObj@@8         10b5d6cc     GKernelObj.obj
 0002:0000c6dc       ??_R2GKernelObj@@8         10b5d6dc     GKernelObj.obj
 0002:0000c6e8       ??_R1A@?0A@EA@GKernelObj@@8 10b5d6e8     GKernelObj.obj
 0002:0000c704       ??_R1A@?0A@EA@GWaitableObj@@8 10b5d704     GKernelObj.obj
 0002:0000c720       ??_R3GWaitableObj@@8       10b5d720     GKernelObj.obj
 0002:0000c730       ??_R2GWaitableObj@@8       10b5d730     GKernelObj.obj
 0002:0000c738       ??_R4GWaitableObj@@6B@     10b5d738     GKernelObj.obj
 0002:0000c74c       ??_R4GSyncObj@@6B@         10b5d74c     GKernelObj.obj
 0002:0000c760       ??_R3GSyncObj@@8           10b5d760     GKernelObj.obj
 0002:0000c770       ??_R2GSyncObj@@8           10b5d770     GKernelObj.obj
 0002:0000c780       ??_R1A@?0A@EA@GSyncObj@@8  10b5d780     GKernelObj.obj
 0002:0000c79c       ??_R4GSemaphore@@6B@       10b5d79c     GKernelObj.obj
 0002:0000c7b0       ??_R3GSemaphore@@8         10b5d7b0     GKernelObj.obj
 0002:0000c7c0       ??_R2GSemaphore@@8         10b5d7c0     GKernelObj.obj
 0002:0000c7d4       ??_R1A@?0A@EA@GSemaphore@@8 10b5d7d4     GKernelObj.obj
 0002:0000c7f0       ??_R4GMutex@@6B@           10b5d7f0     GKernelObj.obj
 0002:0000c804       ??_R3GMutex@@8             10b5d804     GKernelObj.obj
 0002:0000c814       ??_R2GMutex@@8             10b5d814     GKernelObj.obj
 0002:0000c828       ??_R1A@?0A@EA@GMutex@@8    10b5d828     GKernelObj.obj
 0002:0000c844       ??_R4GEvent@@6B@           10b5d844     GKernelObj.obj
 0002:0000c858       ??_R3GEvent@@8             10b5d858     GKernelObj.obj
 0002:0000c868       ??_R2GEvent@@8             10b5d868     GKernelObj.obj
 0002:0000c87c       ??_R1A@?0A@EA@GEvent@@8    10b5d87c     GKernelObj.obj
 0002:0000c898       ??_R4GSelector@@6B@        10b5d898     GKernelObj.obj
 0002:0000c8ac       ??_R3GSelector@@8          10b5d8ac     GKernelObj.obj
 0002:0000c8bc       ??_R2GSelector@@8          10b5d8bc     GKernelObj.obj
 0002:0000c8c4       ??_R1A@?0A@EA@GSelector@@8 10b5d8c4     GKernelObj.obj
 0002:0000c8e0       ??_R4?$pvector@VGSyncObj@@@@6B@ 10b5d8e0     GKernelObj.obj
 0002:0000c8f4       ??_R3?$pvector@VGSyncObj@@@@8 10b5d8f4     GKernelObj.obj
 0002:0000c904       ??_R2?$pvector@VGSyncObj@@@@8 10b5d904     GKernelObj.obj
 0002:0000c91c       ??_R1A@?0A@EA@?$pvector@VGSyncObj@@@@8 10b5d91c     GKernelObj.obj
 0002:0000c938       ??_R13?0A@EA@?$vector@PAVGSyncObj@@V?$allocator@PAVGSyncObj@@@std@@@std@@8 10b5d938     GKernelObj.obj
 0002:0000c954       ??_R3?$vector@PAVGSyncObj@@V?$allocator@PAVGSyncObj@@@std@@@std@@8 10b5d954     GKernelObj.obj
 0002:0000c964       ??_R2?$vector@PAVGSyncObj@@V?$allocator@PAVGSyncObj@@@std@@@std@@8 10b5d964     GKernelObj.obj
 0002:0000c978       ??_R1A@?0A@EA@?$vector@PAVGSyncObj@@V?$allocator@PAVGSyncObj@@@std@@@std@@8 10b5d978     GKernelObj.obj
 0002:0000c994       ??_R1A@?0A@EA@?$_Vector_val@PAVGSyncObj@@V?$allocator@PAVGSyncObj@@@std@@@std@@8 10b5d994     GKernelObj.obj
 0002:0000c9b0       ??_R3?$_Vector_val@PAVGSyncObj@@V?$allocator@PAVGSyncObj@@@std@@@std@@8 10b5d9b0     GKernelObj.obj
 0002:0000c9c0       ??_R2?$_Vector_val@PAVGSyncObj@@V?$allocator@PAVGSyncObj@@@std@@@std@@8 10b5d9c0     GKernelObj.obj
 0002:0000c9d0       ??_R1A@?0A@EA@?$_Container_base_aux_alloc_empty@V?$allocator@PAVGSyncObj@@@std@@@std@@8 10b5d9d0     GKernelObj.obj
 0002:0000c9ec       ??_R3?$_Container_base_aux_alloc_empty@V?$allocator@PAVGSyncObj@@@std@@@std@@8 10b5d9ec     GKernelObj.obj
 0002:0000c9fc       ??_R2?$_Container_base_aux_alloc_empty@V?$allocator@PAVGSyncObj@@@std@@@std@@8 10b5d9fc     GKernelObj.obj
 0002:0000ca08       ??_R1A@?0A@EA@_Container_base_secure@std@@8 10b5da08     GKernelObj.obj
 0002:0000ca24       ??_R3_Container_base_secure@std@@8 10b5da24     GKernelObj.obj
 0002:0000ca34       ??_R2_Container_base_secure@std@@8 10b5da34     GKernelObj.obj
 0002:0000ca3c       ??_R13?0A@EA@?$_Vector_val@PAVGSyncObj@@V?$allocator@PAVGSyncObj@@@std@@@std@@8 10b5da3c     GKernelObj.obj
 0002:0000ca58       ??_R13?0A@EA@?$_Container_base_aux_alloc_empty@V?$allocator@PAVGSyncObj@@@std@@@std@@8 10b5da58     GKernelObj.obj
 0002:0000ca74       ??_R13?0A@EA@_Container_base_secure@std@@8 10b5da74     GKernelObj.obj
 0002:0000ca90       ??_R4GSocketEvent@@6B@     10b5da90     GSocket.obj
 0002:0000caa4       ??_R3GSocketEvent@@8       10b5daa4     GSocket.obj
 0002:0000cab4       ??_R2GSocketEvent@@8       10b5dab4     GSocket.obj
 0002:0000cac8       ??_R1A@?0A@EA@GSocketEvent@@8 10b5dac8     GSocket.obj
 0002:0000cae4       ??_R4GSocket@@6B@          10b5dae4     GSocket.obj
 0002:0000caf8       ??_R3GSocket@@8            10b5daf8     GSocket.obj
 0002:0000cb08       ??_R2GSocket@@8            10b5db08     GSocket.obj
 0002:0000cb10       ??_R1A@?0A@EA@GSocket@@8   10b5db10     GSocket.obj
 0002:0000cb2c       ??_R4GTxtSocket@@6B@       10b5db2c     GSocketUtl.obj
 0002:0000cb40       ??_R3GTxtSocket@@8         10b5db40     GSocketUtl.obj
 0002:0000cb50       ??_R2GTxtSocket@@8         10b5db50     GSocketUtl.obj
 0002:0000cb5c       ??_R1A@?0A@EA@GTxtSocket@@8 10b5db5c     GSocketUtl.obj
 0002:0000cb78       ??_R4GBufSocket@@6B@       10b5db78     GSocketUtl.obj
 0002:0000cb8c       ??_R3GBufSocket@@8         10b5db8c     GSocketUtl.obj
 0002:0000cb9c       ??_R2GBufSocket@@8         10b5db9c     GSocketUtl.obj
 0002:0000cba8       ??_R1A@?0A@EA@GBufSocket@@8 10b5dba8     GSocketUtl.obj
 0002:0000cbc4       ??_R4out_of_range@std@@6B@ 10b5dbc4     libcpmtd:string.obj
 0002:0000cbd8       ??_R3out_of_range@std@@8   10b5dbd8     libcpmtd:string.obj
 0002:0000cbe8       ??_R2out_of_range@std@@8   10b5dbe8     libcpmtd:string.obj
 0002:0000cbf8       ??_R1A@?0A@EA@out_of_range@std@@8 10b5dbf8     libcpmtd:string.obj
 0002:0000cc14       ??_R4type_info@@6B@        10b5dc14     LIBCMTD:typinfo.obj
 0002:0000cc28       ??_R3type_info@@8          10b5dc28     LIBCMTD:typinfo.obj
 0002:0000cc38       ??_R2type_info@@8          10b5dc38     LIBCMTD:typinfo.obj
 0002:0000cc40       ??_R1A@?0A@EA@type_info@@8 10b5dc40     LIBCMTD:typinfo.obj
 0002:0000cc5c       ??_R4exception@std@@6B@    10b5dc5c     LIBCMTD:stdexcpt.obj
 0002:0000cc70       ??_R4bad_exception@std@@6B@ 10b5dc70     LIBCMTD:frame.obj
 0002:0000cc84       ??_R3bad_exception@std@@8  10b5dc84     LIBCMTD:frame.obj
 0002:0000cc94       ??_R2bad_exception@std@@8  10b5dc94     LIBCMTD:frame.obj
 0002:0000cca0       ??_R1A@?0A@EA@bad_exception@std@@8 10b5dca0     LIBCMTD:frame.obj
 0002:0000ccc0       ___safe_se_handler_table   10b5dcc0     <linker-defined>
 0002:0000cf74       ___rtc_iaa                 10b5df74     LIBCMTD:_initsect_.obj
 0002:0000cf78       ___rtc_izz                 10b5df78     LIBCMTD:_initsect_.obj
 0002:0000cf7c       ___rtc_taa                 10b5df7c     LIBCMTD:_initsect_.obj
 0002:0000cf80       ___rtc_tzz                 10b5df80     LIBCMTD:_initsect_.obj
 0002:0000d050       __TI2?AVbad_alloc@std@@    10b5e050     ErrorLog.obj
 0002:0000d060       __CTA2?AVbad_alloc@std@@   10b5e060     ErrorLog.obj
 0002:0000d06c       __CT??_R0?AVbad_alloc@std@@@8??0bad_alloc@std@@QAE@ABV01@@Z12 10b5e06c     ErrorLog.obj
 0002:0000d088       __CT??_R0?AVexception@std@@@8??0exception@std@@QAE@ABV01@@Z12 10b5e088     ErrorLog.obj
 0002:0000d640       __TI3?AVlength_error@std@@ 10b5e640     LinkManager.obj
 0002:0000d67c       __CTA3?AVlength_error@std@@ 10b5e67c     LinkManager.obj
 0002:0000d68c       __CT??_R0?AVlength_error@std@@@8??0length_error@std@@QAE@ABV01@@Z44 10b5e68c     LinkManager.obj
 0002:0000d6a8       __CT??_R0?AVlogic_error@std@@@8??0logic_error@std@@QAE@ABV01@@Z44 10b5e6a8     LinkManager.obj
 0002:0000f564       __TI3?AVout_of_range@std@@ 10b60564     libcpmtd:string.obj
 0002:0000f574       __CTA3?AVout_of_range@std@@ 10b60574     libcpmtd:string.obj
 0002:0000f584       __CT??_R0?AVout_of_range@std@@@8??0out_of_range@std@@QAE@ABV01@@Z44 10b60584     libcpmtd:string.obj
 0002:0000f7e4       __TI2?AVbad_exception@std@@ 10b607e4     LIBCMTD:frame.obj
 0002:0000f7f4       __CTA2?AVbad_exception@std@@ 10b607f4     LIBCMTD:frame.obj
 0002:0000f800       __CT??_R0?AVbad_exception@std@@@8??0bad_exception@std@@QAE@ABV01@@Z12 10b60800     LIBCMTD:frame.obj
 0002:0000fe04       __IMPORT_DESCRIPTOR_KERNEL32 10b60e04     kernel32:KERNEL32.dll
 0002:0000fe18       __IMPORT_DESCRIPTOR_USER32 10b60e18     user32:USER32.dll
 0002:0000fe2c       __IMPORT_DESCRIPTOR_OLEAUT32 10b60e2c     oleaut32:OLEAUT32.dll
 0002:0000fe40       __IMPORT_DESCRIPTOR_WS2_32 10b60e40     ws2_32:WS2_32.dll
 0002:0000fe54       __IMPORT_DESCRIPTOR_BMBD   10b60e54     BMBD:BMBD.dll
 0002:0000fe68       __NULL_IMPORT_DESCRIPTOR   10b60e68     kernel32:KERNEL32.dll
 0003:00000000       ??_R0?AVbad_alloc@std@@@8  10b62000     ErrorLog.obj
 0003:0000001c       ??_R0?AVexception@std@@@8  10b6201c     ErrorLog.obj
 0003:00000038       ??_R0?AVCLinkManager@@@8   10b62038     LinkManager.obj
 0003:00000058       ??_R0?AV?$AdlSocketSingleT@VGSocketHandler@@VGBufSocket@@VPayloadGS@@@@@8 10b62058     LinkManager.obj
 0003:000000a8       ??_R0?AV?$AdlSocketDispatcherImplT@V?$BufSocketSingleT@VGSocketHandler@@VGBufSocket@@@@VPayloadGS@@@@@8 10b620a8     LinkManager.obj
 0003:00000118       ??_R0?AV?$BufSocketSingleT@VGSocketHandler@@VGBufSocket@@@@@8 10b62118     LinkManager.obj
 0003:00000158       ??_R0?AV?$BufSocketDispatcherImplT@V?$SocketSingleT@VGSocketHandler@@VGBufSocket@@@@@@@8 10b62158     LinkManager.obj
 0003:000001b4       ??_R0?AV?$SocketSingleT@VGSocketHandler@@VGBufSocket@@@@@8 10b621b4     LinkManager.obj
 0003:000001f8       ??_R0?AV?$SocketDispatcherT@VGSocketHandler@@VGBufSocket@@@@@8 10b621f8     LinkManager.obj
 0003:0000023c       ??_R0?AVGSocketHandler@@@8 10b6223c     LinkManager.obj
 0003:0000025c       ??_R0?AVGSafeBufQ@@@8      10b6225c     LinkManager.obj
 0003:00000274       ??_R0?AVPMSUnitID@@@8      10b62274     LinkManager.obj
 0003:0000028c       ??_R0?AVlength_error@std@@@8 10b6228c     LinkManager.obj
 0003:000002ac       ??_R0?AVlogic_error@std@@@8 10b622ac     LinkManager.obj
 0003:000002cc       ??_R0?AVPMSRegionInfo@@@8  10b622cc     LinkManagerMsg.obj
 0003:000002e8       ??_R0?AVPMSStatBase@@@8    10b622e8     LinkManagerMsg.obj
 0003:00000304       ??_R0?AVCPMSPerformanceInfo@@@8 10b62304     LinkManagerMsg.obj
 0003:00000328       ??_R0?AUIPMSPerformanceInfo@@@8 10b62328     LinkManagerMsg.obj
 0003:0000034c       ??_R0?AVCPMSRegionInfoList@@@8 10b6234c     LinkManagerMsg.obj
 0003:00000370       ??_R0?AUIPMSRegionInfoList@@@8 10b62370     LinkManagerMsg.obj
 0003:00000394       ??_R0?AVCPMSStatInfoList@@@8 10b62394     LinkManagerMsg.obj
 0003:000003b4       ??_R0?AUIPMSStatInfoList@@@8 10b623b4     LinkManagerMsg.obj
 0003:000003d4       ??_R0?AVCPMSRegionInfoListPC@@@8 10b623d4     LinkManagerMsg.obj
 0003:000003f8       ??_R0?AUIPMSRegionInfoListPC@@@8 10b623f8     LinkManagerMsg.obj
 0003:0000041c       ??_R0?AVCPMSStatInfoListPC@@@8 10b6241c     LinkManagerMsg.obj
 0003:00000440       ??_R0?AUIPMSStatInfoListPC@@@8 10b62440     LinkManagerMsg.obj
 0003:00000468       ??_R0?AVGKernelObj@@@8     10b62468     GKernelObj.obj
 0003:00000484       ??_R0?AVGWaitableObj@@@8   10b62484     GKernelObj.obj
 0003:000004a0       ??_R0?AVGSyncObj@@@8       10b624a0     GKernelObj.obj
 0003:000004b8       ??_R0?AVGSemaphore@@@8     10b624b8     GKernelObj.obj
 0003:000004d4       ??_R0?AVGMutex@@@8         10b624d4     GKernelObj.obj
 0003:000004ec       ??_R0?AVGEvent@@@8         10b624ec     GKernelObj.obj
 0003:00000504       ??_R0?AVGSelector@@@8      10b62504     GKernelObj.obj
 0003:0000051c       ??_R0?AV?$pvector@VGSyncObj@@@@@8 10b6251c     GKernelObj.obj
 0003:00000540       ??_R0?AV?$vector@PAVGSyncObj@@V?$allocator@PAVGSyncObj@@@std@@@std@@@8 10b62540     GKernelObj.obj
 0003:00000590       ??_R0?AV?$_Vector_val@PAVGSyncObj@@V?$allocator@PAVGSyncObj@@@std@@@std@@@8 10b62590     GKernelObj.obj
 0003:000005e0       ??_R0?AV?$_Container_base_aux_alloc_empty@V?$allocator@PAVGSyncObj@@@std@@@std@@@8 10b625e0     GKernelObj.obj
 0003:00000638       ??_R0?AV_Container_base_secure@std@@@8 10b62638     GKernelObj.obj
 0003:00000664       ??_R0?AVGSocketEvent@@@8   10b62664     GSocket.obj
 0003:00000680       ??_R0?AVGSocket@@@8        10b62680     GSocket.obj
 0003:00000698       ??_R0?AVGTxtSocket@@@8     10b62698     GSocketUtl.obj
 0003:000006b4       ??_R0?AVGBufSocket@@@8     10b626b4     GSocketUtl.obj
 0003:000006d8       ??_R0?AVout_of_range@std@@@8 10b626d8     libcpmtd:string.obj
 0003:00000710       ___security_cookie         10b62710     LIBCMTD:gs_cookie.obj
 0003:00000714       ___security_cookie_complement 10b62714     LIBCMTD:gs_cookie.obj
 0003:00000728       ??_R0?AVtype_info@@@8      10b62728     LIBCMTD:typinfo.obj
 0003:00000760       __fltused                  10b62760     LIBCMTD:_fpinit_.obj
 0003:00000764       __ldused                   10b62764     LIBCMTD:_fpinit_.obj
 0003:00000770       ___abort_behavior          10b62770     LIBCMTD:abort.obj
 0003:00000778       __iob                      10b62778     LIBCMTD:_file.obj
 0003:000009f8       __crtDbgFlag               10b629f8     LIBCMTD:dbgheap.obj
 0003:000009fc       ___crtDebugFillThreshold   10b629fc     LIBCMTD:dbgheap.obj
 0003:00000a04       __crtBreakAlloc            10b62a04     LIBCMTD:dbgheap.obj
 0003:00000a0c       ___nullstring              10b62a0c     LIBCMTD:output.obj
 0003:00000a10       ___wnullstring             10b62a10     LIBCMTD:output.obj
 0003:00000b8c       ??_R0?AVbad_exception@std@@@8 10b62b8c     LIBCMTD:frame.obj
 0003:00000bb0       ___flsindex                10b62bb0     LIBCMTD:tidtable.obj
 0003:00000bb4       ___getvalueindex           10b62bb4     LIBCMTD:tidtable.obj
 0003:00000bb8       ?_RTC_ErrorLevels@@3PAHA   10b62bb8     LIBCMTD:_error_.obj
 0003:00000bd0       ___badioinfo               10b62bd0     LIBCMTD:ioinit.obj
 0003:00000d40       __aexit_rtn                10b62d40     LIBCMTD:crt0dat.obj
 0003:00000d50       ___initialmbcinfo          10b62d50     LIBCMTD:mbctype.obj
 0003:00000f70       __mbctype                  10b62f70     LIBCMTD:mbctype.obj
 0003:00001078       __mbcasemap                10b63078     LIBCMTD:mbctype.obj
 0003:00001178       ___ptmbcinfo               10b63178     LIBCMTD:mbctype.obj
 0003:00001274       ___globallocalestatus      10b63274     LIBCMTD:glstatus.obj
 0003:00001278       ___clocalestr              10b63278     LIBCMTD:nlsdata2.obj
 0003:00001280       ___initiallocinfo          10b63280     LIBCMTD:nlsdata2.obj
 0003:00001358       ___ptlocinfo               10b63358     LIBCMTD:nlsdata2.obj
 0003:0000135c       ___lc_clike                10b6335c     LIBCMTD:nlsdata2.obj
 0003:00001360       ___initiallocalestructinfo 10b63360     LIBCMTD:nlsdata2.obj
 0003:00001420       __First_FPE_Indx           10b63420     LIBCMTD:winxfltr.obj
 0003:00001424       __Num_FPE                  10b63424     LIBCMTD:winxfltr.obj
 0003:00001428       __XcptActTabSize           10b63428     LIBCMTD:winxfltr.obj
 0003:0000142c       __XcptActTabCount          10b6342c     LIBCMTD:winxfltr.obj
 0003:00001430       __pfnAllocHook             10b63430     LIBCMTD:dbghook.obj
 0003:00001434       __crtAssertBusy            10b63434     LIBCMTD:dbgrptt.obj
 0003:00001438       __CrtDbgMode               10b63438     LIBCMTD:dbgrptt.obj
 0003:00001444       __CrtDbgFile               10b63444     LIBCMTD:dbgrptt.obj
 0003:00001450       __cfltcvt_tab              10b63450     LIBCMTD:cmiscdat.obj
 0003:00001478       __amblksiz                 10b63478     LIBCMTD:heapinit.obj
 0003:00001490       __NLG_Destination          10b63490     LIBCMTD:exsup.obj
 0003:000014b0       __pctype                   10b634b0     LIBCMTD:ctype.obj
 0003:000014b4       __pwctype                  10b634b4     LIBCMTD:ctype.obj
 0003:000014b8       ___lc_time_c               10b634b8     LIBCMTD:strftime.obj
 0003:00001570       ___lc_time_curr            10b63570     LIBCMTD:strftime.obj
 0003:00001574       ___lconv_static_decimal    10b63574     LIBCMTD:lconv.obj
 0003:00001578       ___lconv_c                 10b63578     LIBCMTD:lconv.obj
 0003:000015a8       ___lconv                   10b635a8     LIBCMTD:lconv.obj
 0003:000015ac       ___mb_cur_max              10b635ac     LIBCMTD:nlsdata1.obj
 0003:000015b0       ___decimal_point           10b635b0     LIBCMTD:nlsdata1.obj
 0003:000015b4       ___decimal_point_length    10b635b4     LIBCMTD:nlsdata1.obj
 0003:000015c8       __lookuptrailbytes         10b635c8     LIBCMTD:read.obj
 0003:000016c8       __timezone                 10b636c8     LIBCMTD:timeset.obj
 0003:000016cc       __daylight                 10b636cc     LIBCMTD:timeset.obj
 0003:000016d0       __dstbias                  10b636d0     LIBCMTD:timeset.obj
 0003:00001758       __tzname                   10b63758     LIBCMTD:timeset.obj
 0003:000017a8       __coninpfh                 10b637a8     LIBCMTD:initcon.obj
 0003:000017ac       __confh                    10b637ac     LIBCMTD:initcon.obj
 0003:000017b0       __lpdays                   10b637b0     LIBCMTD:days.obj
 0003:000017e4       __days                     10b637e4     LIBCMTD:days.obj
 0003:00001838       __pow10pos                 10b63838     LIBCMTD:_constpow_.obj
 0003:00001998       __pow10neg                 10b63998     LIBCMTD:_constpow_.obj
 0003:00001b00       ?theErr@@3VCErrorLog@@A    10b63b00     ErrorLog.obj
 0003:00001c88       ?g_linkMgr@@3VCLinkManager@@A 10b63c88     LinkManager.obj
 0003:00001dc8       ___pInvalidArgHandler      10b63dc8     LIBCMTD:invarg.obj
 0003:00001dcc       ___fastflag                10b63dcc     LIBCMTD:_fpinit_.obj
 0003:00001dd0       __adjust_fdiv              10b63dd0     LIBCMTD:_fpinit_.obj
 0003:00001dd8       __aenvptr                  10b63dd8     LIBCMTD:dllcrt0.obj
 0003:00001ddc       __wenvptr                  10b63ddc     LIBCMTD:dllcrt0.obj
 0003:00001de0       ___error_mode              10b63de0     LIBCMTD:dllcrt0.obj
 0003:00001de4       ___app_type                10b63de4     LIBCMTD:dllcrt0.obj
 0003:00001de8       __cflush                   10b63de8     LIBCMTD:_file.obj
 0003:00001e00       ?_pfnDumpClient@@3P6AXPAXI@ZA 10b63e00     LIBCMTD:dbgheap.obj
 0003:00001e08       ___crtDebugCheckCount      10b63e08     LIBCMTD:dbgheap.obj
 0003:00001e10       _gpFlsAlloc                10b63e10     LIBCMTD:tidtable.obj
 0003:00001e14       _gpFlsGetValue             10b63e14     LIBCMTD:tidtable.obj
 0003:00001e18       _gpFlsSetValue             10b63e18     LIBCMTD:tidtable.obj
 0003:00001e1c       _gpFlsFree                 10b63e1c     LIBCMTD:tidtable.obj
 0003:00001e20       ?__pInconsistency@@3P6AXXZA 10b63e20     LIBCMTD:hooks.obj
 0003:0000214c       ?wsprintffp@@3P6AHPADPBDZZA 10b6414c     LIBCMTD:_error_.obj
 0003:00002158       __stdbuf                   10b64158     LIBCMTD:_sftbuf.obj
 0003:000022c8       ?_pnhHeap@@3P6AHI@ZA       10b642c8     LIBCMTD:handler.obj
 0003:000022d4       __umaskval                 10b642d4     LIBCMTD:crt0dat.obj
 0003:000022d8       ___argc                    10b642d8     LIBCMTD:crt0dat.obj
 0003:000022dc       ___argv                    10b642dc     LIBCMTD:crt0dat.obj
 0003:000022e0       ___wargv                   10b642e0     LIBCMTD:crt0dat.obj
 0003:000022e4       __environ                  10b642e4     LIBCMTD:crt0dat.obj
 0003:000022e8       ___initenv                 10b642e8     LIBCMTD:crt0dat.obj
 0003:000022ec       __wenviron                 10b642ec     LIBCMTD:crt0dat.obj
 0003:000022f0       ___winitenv                10b642f0     LIBCMTD:crt0dat.obj
 0003:000022f4       __pgmptr                   10b642f4     LIBCMTD:crt0dat.obj
 0003:000022f8       __wpgmptr                  10b642f8     LIBCMTD:crt0dat.obj
 0003:000022fc       __exitflag                 10b642fc     LIBCMTD:crt0dat.obj
 0003:00002300       __C_Termination_Done       10b64300     LIBCMTD:crt0dat.obj
 0003:00002304       __C_Exit_Done              10b64304     LIBCMTD:crt0dat.obj
 0003:00002310       ___mbulinfo                10b64310     LIBCMTD:mbctype.obj
 0003:0000231c       ___mbcodepage              10b6431c     LIBCMTD:mbctype.obj
 0003:00002320       ___ismbcodepage            10b64320     LIBCMTD:mbctype.obj
 0003:00002324       ___mblcid                  10b64324     LIBCMTD:mbctype.obj
 0003:00002328       ___locale_changed          10b64328     LIBCMTD:setlocal.obj
 0003:0000232c       ___lc_handle               10b6432c     LIBCMTD:nlsdata2.obj
 0003:00002344       ___lc_codepage             10b64344     LIBCMTD:nlsdata2.obj
 0003:00002348       ___lc_collate_cp           10b64348     LIBCMTD:nlsdata2.obj
 0003:0000266c       ___pPurecall               10b6466c     LIBCMTD:inithelp.obj
 0003:00002698       __newmode                  10b64698     LIBCMTD:_newmode.obj
 0003:000027ac       __crtheap                  10b647ac     LIBCMTD:heapinit.obj
 0003:000027b8       ___sbh_pHeaderDefer        10b647b8     LIBCMTD:sbheap.obj
 0003:000027cc       __commode                  10b647cc     LIBCMTD:ncommode.obj
 0003:000027e4       ?pArgList@UnDecorator@@0PAVReplicator@@A 10b647e4     LIBCMTD:undname.obj
 0003:000027e8       ?pZNameList@UnDecorator@@0PAVReplicator@@A 10b647e8     LIBCMTD:undname.obj
 0003:000027ec       ?pTemplateArgList@UnDecorator@@0PAVReplicator@@A 10b647ec     LIBCMTD:undname.obj
 0003:000027f0       ?gName@UnDecorator@@0PBDB  10b647f0     LIBCMTD:undname.obj
 0003:000027f4       ?name@UnDecorator@@0PBDB   10b647f4     LIBCMTD:undname.obj
 0003:000027f8       ?outputString@UnDecorator@@0PADA 10b647f8     LIBCMTD:undname.obj
 0003:000027fc       ?maxStringLength@UnDecorator@@0HA 10b647fc     LIBCMTD:undname.obj
 0003:00002800       ?disableFlags@UnDecorator@@0KA 10b64800     LIBCMTD:undname.obj
 0003:00002804       ?m_pGetParameter@UnDecorator@@0P6APADJ@ZA 10b64804     LIBCMTD:undname.obj
 0003:00002808       ?fExplicitTemplateParams@UnDecorator@@0_NA 10b64808     LIBCMTD:undname.obj
 0003:00002809       ?fGetTemplateArgumentList@UnDecorator@@0_NA 10b64809     LIBCMTD:undname.obj
 0003:00002814       ___lconv_static_null       10b64814     LIBCMTD:lconv.obj
 0003:0000282c       __outputformat             10b6482c     LIBCMTD:outputformat.obj
 0003:000028e8       __fmode                    10b648e8     LIBCMTD:txtmode.obj
 0003:000028ec       ___sbh_cntHeaderList       10b648ec     <common>
 0003:000028f0       ___sbh_pHeaderList         10b648f0     <common>
 0003:000028f4       ___sbh_threshold           10b648f4     <common>
 0003:000028f8       ___sbh_pHeaderScan         10b648f8     <common>
 0003:000028fc       ___sbh_sizeHeaderList      10b648fc     <common>
 0003:00002900       ___sbh_indGroupDefer       10b64900     <common>
 0003:00002904       ___active_heap             10b64904     <common>
 0003:00002908       __pfnReportHook            10b64908     <common>
 0003:0000290c       __pReportHookListW         10b6490c     <common>
 0003:00002910       __pReportHookList          10b64910     <common>
 0003:00002914       __debugger_hook_dummy      10b64914     <common>
 0003:00002918       ___env_initialized         10b64918     <common>
 0003:0000291c       ___onexitend               10b6491c     <common>
 0003:00002920       ___onexitbegin             10b64920     <common>
 0003:00002924       ___mbctype_initialized     10b64924     <common>
 0003:00002928       ___dyn_tls_init_callback   10b64928     <common>
 0003:0000292c       __nhandle                  10b6492c     <common>
 0003:00002940       ___pioinfo                 10b64940     <common>
 0003:00002a40       ___sse2_available          10b64a40     <common>
 0003:00002a44       ___piob                    10b64a44     <common>
 0003:00002a60       __bufin                    10b64a60     <common>
 0003:00003a60       __nstream                  10b65a60     <common>
 0003:00003a64       __acmdln                   10b65a64     <common>

 entry point at        0001:0002ad30

 Static symbols

 0001:0000119f       __catch$?_Copy@?$basic_string@DU?$char_traits@D@std@@V?$allocator@D@2@@std@@IAEXII@Z$0 10b0219f f i ErrorLog.obj
 0001:000011c9       __catch$?_Copy@?$basic_string@DU?$char_traits@D@std@@V?$allocator@D@2@@std@@IAEXII@Z$1 10b021c9 f i ErrorLog.obj
 0001:00006666       __catch$?_Insert_n@?$vector@VPMSNSAP@@V?$allocator@VPMSNSAP@@@std@@@std@@IAEXV?$_Vector_const_iterator@VPMSNSAP@@V?$allocator@VPMSNSAP@@@std@@@2@IABVPMSNSAP@@@Z$0 10b07666 f i LinkManager.obj
 0001:000067c6       __catch$?_Insert_n@?$vector@VPMSNSAP@@V?$allocator@VPMSNSAP@@@std@@@std@@IAEXV?$_Vector_const_iterator@VPMSNSAP@@V?$allocator@VPMSNSAP@@@std@@@2@IABVPMSNSAP@@@Z$2 10b077c6 f i LinkManager.obj
 0001:0000ae3c       __catch$??$_Uninit_fill_n@PAVPMSNSAP@@IV1@V?$allocator@VPMSNSAP@@@std@@@std@@YAXPAVPMSNSAP@@IABV1@AAV?$allocator@VPMSNSAP@@@0@U_Nonscalar_ptr_iterator_tag@0@U_Range_checked_iterator_tag@0@@Z$0 10b0be3c f i LinkManager.obj
 0001:0000b558       __catch$??$_Uninit_copy@PAVPMSNSAP@@PAV1@V?$allocator@VPMSNSAP@@@std@@@std@@YAPAVPMSNSAP@@PAV1@00AAV?$allocator@VPMSNSAP@@@0@U_Nonscalar_ptr_iterator_tag@0@U_Range_checked_iterator_tag@0@@Z$0 10b0c558 f i LinkManager.obj
 0001:0000bd06       __catch$?_Buynode@?$list@VGBuf@@V?$allocator@VGBuf@@@std@@@std@@IAEPAU_Node@?$_List_nod@VGBuf@@V?$allocator@VGBuf@@@std@@@2@XZ$0 10b0cd06 f i LinkManager.obj
 0001:0000fcbd       __catch$?_Insert_n@?$vector@VPMSStatBase@@V?$allocator@VPMSStatBase@@@std@@@std@@IAEXV?$_Vector_const_iterator@VPMSStatBase@@V?$allocator@VPMSStatBase@@@std@@@2@IABVPMSStatBase@@@Z$0 10b10cbd f i LinkManagerMsg.obj
 0001:0000fe32       __catch$?_Insert_n@?$vector@VPMSStatBase@@V?$allocator@VPMSStatBase@@@std@@@std@@IAEXV?$_Vector_const_iterator@VPMSStatBase@@V?$allocator@VPMSStatBase@@@std@@@2@IABVPMSStatBase@@@Z$2 10b10e32 f i LinkManagerMsg.obj
 0001:00010357       __catch$?_Insert_n@?$vector@VPMSRegionInfo@@V?$allocator@VPMSRegionInfo@@@std@@@std@@IAEXV?$_Vector_const_iterator@VPMSRegionInfo@@V?$allocator@VPMSRegionInfo@@@std@@@2@IABVPMSRegionInfo@@@Z$0 10b11357 f i LinkManagerMsg.obj
 0001:000104cc       __catch$?_Insert_n@?$vector@VPMSRegionInfo@@V?$allocator@VPMSRegionInfo@@@std@@@std@@IAEXV?$_Vector_const_iterator@VPMSRegionInfo@@V?$allocator@VPMSRegionInfo@@@std@@@2@IABVPMSRegionInfo@@@Z$2 10b114cc f i LinkManagerMsg.obj
 0001:00011c96       __catch$?_Insert_n@?$vector@PAVGSyncObj@@V?$allocator@PAVGSyncObj@@@std@@@std@@IAEXV?$_Vector_const_iterator@PAVGSyncObj@@V?$allocator@PAVGSyncObj@@@std@@@2@IABQAVGSyncObj@@@Z$0 10b12c96 f i LinkManagerMsg.obj
 0001:00011c96       __catch$?_Insert_n@?$vector@JV?$allocator@J@std@@@std@@IAEXV?$_Vector_const_iterator@JV?$allocator@J@std@@@2@IABJ@Z$0 10b12c96 f i LinkManagerMsg.obj
 0001:00011c96       __catch$?_Insert_n@?$vector@PAXV?$allocator@PAX@std@@@std@@IAEXV?$_Vector_const_iterator@PAXV?$allocator@PAX@std@@@2@IABQAX@Z$0 10b12c96 f i LinkManagerMsg.obj
 0001:00011df2       __catch$?_Insert_n@?$vector@JV?$allocator@J@std@@@std@@IAEXV?$_Vector_const_iterator@JV?$allocator@J@std@@@2@IABJ@Z$2 10b12df2 f i LinkManagerMsg.obj
 0001:00011df2       __catch$?_Insert_n@?$vector@PAVGSyncObj@@V?$allocator@PAVGSyncObj@@@std@@@std@@IAEXV?$_Vector_const_iterator@PAVGSyncObj@@V?$allocator@PAVGSyncObj@@@std@@@2@IABQAVGSyncObj@@@Z$2 10b12df2 f i LinkManagerMsg.obj
 0001:00011df2       __catch$?_Insert_n@?$vector@PAXV?$allocator@PAX@std@@@std@@IAEXV?$_Vector_const_iterator@PAXV?$allocator@PAX@std@@@2@IABQAX@Z$2 10b12df2 f i LinkManagerMsg.obj
 0001:000125fc       __catch$??$_Uninit_fill_n@PAVPMSStatBase@@IV1@V?$allocator@VPMSStatBase@@@std@@@std@@YAXPAVPMSStatBase@@IABV1@AAV?$allocator@VPMSStatBase@@@0@U_Nonscalar_ptr_iterator_tag@0@U_Range_checked_iterator_tag@0@@Z$0 10b135fc f i LinkManagerMsg.obj
 0001:000126cc       __catch$??$_Uninit_fill_n@PAVPMSRegionInfo@@IV1@V?$allocator@VPMSRegionInfo@@@std@@@std@@YAXPAVPMSRegionInfo@@IABV1@AAV?$allocator@VPMSRegionInfo@@@0@U_Nonscalar_ptr_iterator_tag@0@U_Range_checked_iterator_tag@0@@Z$0 10b136cc f i LinkManagerMsg.obj
 0001:000133c9       __catch$??$_Insert@V?$_Vector_iterator@JV?$allocator@J@std@@@std@@@?$vector@JV?$allocator@J@std@@@std@@QAEXV?$_Vector_const_iterator@JV?$allocator@J@std@@@1@V?$_Vector_iterator@JV?$allocator@J@std@@@1@1Uforward_iterator_tag@1@@Z$0 10b143c9 f i LinkManagerMsg.obj
 0001:0001377c       __catch$??$_Insert@PAJ@?$vector@JV?$allocator@J@std@@@std@@QAEXV?$_Vector_const_iterator@JV?$allocator@J@std@@@1@PAJ1Uforward_iterator_tag@1@@Z$0 10b1477c f i LinkManagerMsg.obj
 0001:00014028       __catch$??$_Uninit_copy@PAVPMSStatBase@@PAV1@V?$allocator@VPMSStatBase@@@std@@@std@@YAPAVPMSStatBase@@PAV1@00AAV?$allocator@VPMSStatBase@@@0@U_Nonscalar_ptr_iterator_tag@0@U_Range_checked_iterator_tag@0@@Z$0 10b15028 f i LinkManagerMsg.obj
 0001:00014158       __catch$??$_Uninit_copy@PAVPMSRegionInfo@@PAV1@V?$allocator@VPMSRegionInfo@@@std@@@std@@YAPAVPMSRegionInfo@@PAV1@00AAV?$allocator@VPMSRegionInfo@@@0@U_Nonscalar_ptr_iterator_tag@0@U_Range_checked_iterator_tag@0@@Z$0 10b15158 f i LinkManagerMsg.obj
 0001:0001489e       __catch$?_Buynode@?$list@VGBuf@@V?$allocator@VGBuf@@@std@@@std@@IAEPAU_Node@?$_List_nod@VGBuf@@V?$allocator@VGBuf@@@std@@@2@PAU342@0ABVGBuf@@@Z$0 10b1589e f i LinkManagerMsg.obj
 0001:0001818f       __catch$?_Copy@?$basic_string@_WU?$char_traits@_W@std@@V?$allocator@_W@2@@std@@IAEXII@Z$0 10b1918f f i GAdlUtl.obj
 0001:000181b9       __catch$?_Copy@?$basic_string@_WU?$char_traits@_W@std@@V?$allocator@_W@2@@std@@IAEXII@Z$1 10b191b9 f i GAdlUtl.obj
 0001:00025be0       ?CatchGuardHandler@@YA?AW4_EXCEPTION_DISPOSITION@@PAUEHExceptionRecord@@PAUCatchGuardRN@@PAX2@Z 10b26be0 f   LIBCMTD:_trnsctrl_.obj
 0001:00025d20       ?TranslatorGuardHandler@@YA?AW4_EXCEPTION_DISPOSITION@@PAUEHExceptionRecord@@PAUTranslatorGuardRN@@PAX2@Z 10b26d20 f   LIBCMTD:_trnsctrl_.obj
 0001:00027240       _cmpBYTE                   10b28240 f   LIBCMTD:memcmp.obj
 0001:00027270       _cmpResult                 10b28270 f   LIBCMTD:memcmp.obj
 0001:00027290       _unaligned_memcmp          10b28290 f   LIBCMTD:memcmp.obj
 0001:000279a0       _cmpWORD                   10b289a0 f   LIBCMTD:memcmp.obj
 0001:00027a20       _cmpDWORD                  10b28a20 f   LIBCMTD:memcmp.obj
 0001:00028370       __onexit_nolock            10b29370 f   LIBCMTD:onexit.obj
 0001:00028e90       __threadstartex@4          10b29e90 f   LIBCMTD:threadex.obj
 0001:00028f40       __callthreadstartex        10b29f40 f   LIBCMTD:threadex.obj
 0001:0002ad60       ___DllMainCRTStartup       10b2bd60 f   LIBCMTD:dllcrt0.obj
 0001:0002b4a0       _flsall                    10b2c4a0 f   LIBCMTD:fflush.obj
 0001:0002b6e0       __nh_malloc_dbg_impl       10b2c6e0 f   LIBCMTD:dbgheap.obj
 0001:0002b750       __heap_alloc_dbg_impl      10b2c750 f   LIBCMTD:dbgheap.obj
 0001:0002bcd0       _realloc_help              10b2ccd0 f   LIBCMTD:dbgheap.obj
 0001:0002ca20       _CheckBytes                10b2da20 f   LIBCMTD:dbgheap.obj
 0001:0002d330       ?_CrtMemDumpAllObjectsSince_stat@@YAXPBU_CrtMemState@@PAUlocaleinfo_struct@@@Z 10b2e330 f   LIBCMTD:dbgheap.obj
 0001:0002d640       __printMemBlockData        10b2e640 f   LIBCMTD:dbgheap.obj
 0001:0002ee00       _write_char                10b2fe00 f   LIBCMTD:output.obj
 0001:0002ee00       _write_char                10b2fe00 f   LIBCMTD:output.obj
 0001:0002eea0       _write_multi_char          10b2fea0 f   LIBCMTD:output.obj
 0001:0002eea0       _write_multi_char          10b2fea0 f   LIBCMTD:output.obj
 0001:0002eee0       _write_string              10b2fee0 f   LIBCMTD:output.obj
 0001:0002eee0       _write_string              10b2fee0 f   LIBCMTD:output.obj
 0001:0002f170       _fastzero_I                10b30170 f   LIBCMTD:p4_memset.obj
 0001:0002f250       _has_osfxsr_set            10b30250 f   LIBCMTD:cpu_disp.obj
 0001:0002f480       ?FindHandler@@YAXPAUEHExceptionRecord@@PAUEHRegistrationNode@@PAU_CONTEXT@@PAXPBU_s_FuncInfo@@EH1@Z 10b30480 f   LIBCMTD:frame.obj
 0001:0002f9d0       ?FindHandlerForForeignException@@YAXPAUEHExceptionRecord@@PAUEHRegistrationNode@@PAU_CONTEXT@@PAXPBU_s_FuncInfo@@HH1@Z 10b309d0 f   LIBCMTD:frame.obj
 0001:0002fe00       ?CatchIt@@YAXPAUEHExceptionRecord@@PAUEHRegistrationNode@@PAU_CONTEXT@@PAXPBU_s_FuncInfo@@PBU_s_HandlerType@@PBU_s_CatchableType@@PBU_s_TryBlockMapEntry@@H1E@Z 10b30e00 f   LIBCMTD:frame.obj
 0001:0002fec0       ?CallCatchBlock@@YAPAXPAUEHExceptionRecord@@PAUEHRegistrationNode@@PAU_CONTEXT@@PBU_s_FuncInfo@@PAXHK@Z 10b30ec0 f   LIBCMTD:frame.obj
 0001:00030150       ?ExFilterRethrow@@YAHPAU_EXCEPTION_POINTERS@@@Z 10b31150 f   LIBCMTD:frame.obj
 0001:00030640       ?IsInExceptionSpec@@YAEPAUEHExceptionRecord@@PBU_s_ESTypeList@@@Z 10b31640 f   LIBCMTD:frame.obj
 0001:00030700       ?CallUnexpected@@YAXPBU_s_ESTypeList@@@Z 10b31700 f   LIBCMTD:frame.obj
 0001:0003074e       __catch$?CallUnexpected@@YAXPBU_s_ESTypeList@@@Z$0 10b3174e f   LIBCMTD:frame.obj
 0001:00030790       ?Is_bad_exception_allowed@@YAEPBU_s_ESTypeList@@@Z 10b31790 f   LIBCMTD:frame.obj
 0001:00031470       ?DebuggerProbe@@YAHK@Z     10b32470 f   LIBCMTD:_error_.obj
 0001:00031560       ?failwithmessage@@YAXPAXHHPBD@Z 10b32560 f   LIBCMTD:_error_.obj
 0001:00031770       ?DebuggerRuntime@@YAHKHPAXPB_W@Z 10b32770 f   LIBCMTD:_error_.obj
 0001:00031a50       ?_getMemBlockDataString@@YAXPAD00I@Z 10b32a50 f   LIBCMTD:_error_.obj
 0001:00031ca0       _ValidateLocalCookies      10b32ca0 f   LIBCMTD:chandler4.obj
 0001:000332d0       __unwind_handler4          10b342d0 f   LIBCMTD:exsup4.obj
 0001:00034810       ?strtoxl@@YAKPAUlocaleinfo_struct@@PBDPAPBDHH@Z 10b35810 f   LIBCMTD:strtol.obj
 0001:00035790       _doexit                    10b36790 f   LIBCMTD:crt0dat.obj
 0001:00035ac0       __initterm                 10b36ac0 f   LIBCMTD:crt0dat.obj
 0001:00035f70       ?getSystemCP@@YAHH@Z       10b36f70 f   LIBCMTD:mbctype.obj
 0001:000363d0       ?CPtoLCID@@YAHH@Z          10b373d0 f   LIBCMTD:mbctype.obj
 0001:00036450       ?setSBCS@@YAXPAUthreadmbcinfostruct@@@Z 10b37450 f   LIBCMTD:mbctype.obj
 0001:00036530       ?setSBUpLow@@YAXPAUthreadmbcinfostruct@@@Z 10b37530 f   LIBCMTD:mbctype.obj
 0001:00036ea0       __updatetlocinfoEx_nolock  10b37ea0 f   LIBCMTD:setlocal.obj
 0001:000376d0       _xcptlookup                10b386d0 f   LIBCMTD:winxfltr.obj
 0001:00038c10       _siglookup                 10b39c10 f   LIBCMTD:winsig.obj
 0001:000392e0       _fastcopy_I                10b3a2e0 f   LIBCMTD:p4_memcpy.obj
 0001:000398d0       __cftoe2_l                 10b3a8d0 f   LIBCMTD:cvt.obj
 0001:0003a640       __cftof2_l                 10b3b640 f   LIBCMTD:cvt.obj
 0001:0003abc0       __shift                    10b3bbc0 f   LIBCMTD:cvt.obj
 0001:0003bce0       _write_string              10b3cce0 f   LIBCMTD:woutput.obj
 0001:0003bce0       _write_string              10b3cce0 f   LIBCMTD:woutput.obj
 0001:0003bdd0       ?__crtLCMapStringA_stat@@YAHPAUlocaleinfo_struct@@KKPBDHPADHHH@Z 10b3cdd0 f   LIBCMTD:a_map.obj
 0001:0003c370       ?strncnt@@YAHPBDH@Z        10b3d370 f   LIBCMTD:a_map.obj
 0001:0003c6b0       ?__crtLCMapStringW_stat@@YAHPAUlocaleinfo_struct@@KKPB_WHPA_WHH@Z 10b3d6b0 f   LIBCMTD:w_map.obj
 0001:0003c6f0       ?wcsncnt@@YAHPB_WH@Z       10b3d6f0 f   LIBCMTD:w_map.obj
 0001:0003cac0       _parse_cmdline             10b3dac0 f   LIBCMTD:stdargv.obj
 0001:0003ec00       __is_LFH_enabled           10b3fc00 f   LIBCMTD:expand.obj
 0001:00041564       __unwind_handler           10b42564 f   LIBCMTD:exsup.obj
 0001:00041940       ?GetPdbDll@@YAPAUHINSTANCE__@@XZ 10b42940 f   LIBCMTD:_pdblkup_.obj
 0001:00042540       __tsopen_nolock            10b43540 f   LIBCMTD:open.obj
 0001:00043ec0       ?__crtGetStringTypeA_stat@@YAHPAUlocaleinfo_struct@@KPBDHPAGHHH@Z 10b44ec0 f   LIBCMTD:a_str.obj
 0001:00045800       _xtoa_s@20                 10b46800 f   LIBCMTD:xtoas.obj
 0001:00046000       ?wcsncnt@@YAIPB_WI@Z       10b47000 f   LIBCMTD:wcstombs.obj
 0001:00046e20       _xtow_s@20                 10b47e20 f   LIBCMTD:xtows.obj
 0001:00048390       ?__crtGetStringTypeW_stat@@YAHPAUlocaleinfo_struct@@KPB_WHPAGHH@Z 10b49390 f   LIBCMTD:w_str.obj
 0001:000483e0       ?x_ismbbtype_l@@YAHPAUlocaleinfo_struct@@IHH@Z 10b493e0 f   LIBCMTD:ismbbyte.obj
 0001:0004b140       _write_char                10b4c140 f   LIBCMTD:woutputs.obj
 0001:0004b140       _write_char                10b4c140 f   LIBCMTD:woutputs.obj
 0001:0004b1a0       _write_multi_char          10b4c1a0 f   LIBCMTD:woutputs.obj
 0001:0004b1a0       _write_multi_char          10b4c1a0 f   LIBCMTD:woutputs.obj
 0001:0004b290       __abstract_cw              10b4c290 f   LIBCMTD:_ieee87_.obj
 0001:0004b3e0       __hw_cw                    10b4c3e0 f   LIBCMTD:_ieee87_.obj
 0001:0004b540       ___control87_sse2          10b4c540 f   LIBCMTD:_ieee87_.obj
 0001:0004b5c0       ___abstract_cw_sse2        10b4c5c0 f   LIBCMTD:_ieee87_.obj
 0001:0004b710       ___hw_cw_sse2              10b4c710 f   LIBCMTD:_ieee87_.obj
 0001:0004dbf0       __unwindfunclet$??0CErrorLog@@QAE@XZ$0 10b4ebf0 f   ErrorLog.obj
 0001:0004dbfe       __unwindfunclet$??0CErrorLog@@QAE@XZ$1 10b4ebfe f   ErrorLog.obj
 0001:0004dc06       __unwindfunclet$??0CErrorLog@@QAE@XZ$2 10b4ec06 f   ErrorLog.obj
 0001:0004dc0e       __ehhandler$??0CErrorLog@@QAE@XZ 10b4ec0e f   ErrorLog.obj
 0001:0004dc40       __ehhandler$?_Copy@?$basic_string@DU?$char_traits@D@std@@V?$allocator@D@2@@std@@IAEXII@Z 10b4ec40 f   ErrorLog.obj
 0001:0004dc60       __unwindfunclet$?GetExecuteFileName@@YAXPAD@Z$0 10b4ec60 f   LinkManager.obj
 0001:0004dc6b       __unwindfunclet$?GetExecuteFileName@@YAXPAD@Z$1 10b4ec6b f   LinkManager.obj
 0001:0004dc76       __ehhandler$?GetExecuteFileName@@YAXPAD@Z 10b4ec76 f   LinkManager.obj
 0001:0004dc9e       __unwindfunclet$??0CLinkManager@@QAE@XZ$0 10b4ec9e f   LinkManager.obj
 0001:0004dca6       __unwindfunclet$??0CLinkManager@@QAE@XZ$1 10b4eca6 f   LinkManager.obj
 0001:0004dcb1       __unwindfunclet$??0CLinkManager@@QAE@XZ$2 10b4ecb1 f   LinkManager.obj
 0001:0004dcbc       __ehhandler$??0CLinkManager@@QAE@XZ 10b4ecbc f   LinkManager.obj
 0001:0004dcd7       __unwindfunclet$??1CLinkManager@@UAE@XZ$0 10b4ecd7 f   LinkManager.obj
 0001:0004dcdf       __unwindfunclet$??1CLinkManager@@UAE@XZ$1 10b4ecdf f   LinkManager.obj
 0001:0004dcea       __unwindfunclet$??1CLinkManager@@UAE@XZ$2 10b4ecea f   LinkManager.obj
 0001:0004dcf5       __ehhandler$??1CLinkManager@@UAE@XZ 10b4ecf5 f   LinkManager.obj
 0001:0004dd10       __unwindfunclet$?Stop@CLinkManager@@QAEXXZ$1 10b4ed10 f   LinkManager.obj
 0001:0004dd18       __ehhandler$?Stop@CLinkManager@@QAEXXZ 10b4ed18 f   LinkManager.obj
 0001:0004dd33       __unwindfunclet$?Init@CLinkManager@@QAEKHQAPAD@Z$0 10b4ed33 f   LinkManager.obj
 0001:0004dd3b       __ehhandler$?Init@CLinkManager@@QAEKHQAPAD@Z 10b4ed3b f   LinkManager.obj
 0001:0004dd56       __unwindfunclet$?TryConnectToHA@CLinkManager@@AAEXXZ$1 10b4ed56 f   LinkManager.obj
 0001:0004dd64       __unwindfunclet$?TryConnectToHA@CLinkManager@@AAEXXZ$2 10b4ed64 f   LinkManager.obj
 0001:0004dd6c       __unwindfunclet$?TryConnectToHA@CLinkManager@@AAEXXZ$4 10b4ed6c f   LinkManager.obj
 0001:0004dd74       __unwindfunclet$?TryConnectToHA@CLinkManager@@AAEXXZ$5 10b4ed74 f   LinkManager.obj
 0001:0004dd7f       __unwindfunclet$?TryConnectToHA@CLinkManager@@AAEXXZ$6 10b4ed7f f   LinkManager.obj
 0001:0004dd8a       __ehhandler$?TryConnectToHA@CLinkManager@@AAEXXZ 10b4ed8a f   LinkManager.obj
 0001:0004ddb2       __unwindfunclet$?Main@CLinkManager@@QAEKXZ$0 10b4edb2 f   LinkManager.obj
 0001:0004ddba       __ehhandler$?Main@CLinkManager@@QAEKXZ 10b4edba f   LinkManager.obj
 0001:0004ddd5       __unwindfunclet$?Run@CLinkManager@@QAEKPAUIPMSObject@@@Z$0 10b4edd5 f   LinkManager.obj
 0001:0004dddd       __ehhandler$?Run@CLinkManager@@QAEKPAUIPMSObject@@@Z 10b4eddd f   LinkManager.obj
 0001:0004de00       __unwindfunclet$??1_PMSConfig@@QAE@XZ$0 10b4ee00 f   LinkManager.obj
 0001:0004de00       __unwindfunclet$??0_PMSConfig@@QAE@XZ$0 10b4ee00 f   LinkManager.obj
 0001:0004de0b       __ehhandler$??1_PMSConfig@@QAE@XZ 10b4ee0b f   LinkManager.obj
 0001:0004de0b       __ehhandler$??0_PMSConfig@@QAE@XZ 10b4ee0b f   LinkManager.obj
 0001:0004de30       __unwindfunclet$??0?$SocketSingleT@VGSocketHandler@@VGBufSocket@@@@QAE@XZ$0 10b4ee30 f   LinkManager.obj
 0001:0004de30       __unwindfunclet$??1?$SocketSingleT@VGSocketHandler@@VGBufSocket@@@@QAE@XZ$0 10b4ee30 f   LinkManager.obj
 0001:0004de38       __ehhandler$??0?$SocketSingleT@VGSocketHandler@@VGBufSocket@@@@QAE@XZ 10b4ee38 f   LinkManager.obj
 0001:0004de38       __ehhandler$??1?$SocketSingleT@VGSocketHandler@@VGBufSocket@@@@QAE@XZ 10b4ee38 f   LinkManager.obj
 0001:0004de60       __unwindfunclet$??0GSafeBufQ@@QAE@XZ$0 10b4ee60 f   LinkManager.obj
 0001:0004de60       __unwindfunclet$??1GSafeBufQ@@QAE@XZ$0 10b4ee60 f   LinkManager.obj
 0001:0004de6b       __ehhandler$??1GSafeBufQ@@QAE@XZ 10b4ee6b f   LinkManager.obj
 0001:0004de6b       __ehhandler$??0GSafeBufQ@@QAE@XZ 10b4ee6b f   LinkManager.obj
 0001:0004de90       __unwindfunclet$??0PayloadHA@@QAE@I@Z$0 10b4ee90 f   LinkManager.obj
 0001:0004de9b       __unwindfunclet$??0PayloadHA@@QAE@I@Z$1 10b4ee9b f   LinkManager.obj
 0001:0004dea6       __unwindfunclet$??0PayloadHA@@QAE@I@Z$2 10b4eea6 f   LinkManager.obj
 0001:0004deb1       __unwindfunclet$??0PayloadHA@@QAE@I@Z$3 10b4eeb1 f   LinkManager.obj
 0001:0004debc       __unwindfunclet$??0PayloadHA@@QAE@I@Z$4 10b4eebc f   LinkManager.obj
 0001:0004dec7       __unwindfunclet$??0PayloadHA@@QAE@I@Z$5 10b4eec7 f   LinkManager.obj
 0001:0004ded2       __unwindfunclet$??0PayloadHA@@QAE@I@Z$6 10b4eed2 f   LinkManager.obj
 0001:0004dedd       __unwindfunclet$??0PayloadHA@@QAE@I@Z$7 10b4eedd f   LinkManager.obj
 0001:0004dee8       __unwindfunclet$??0PayloadHA@@QAE@I@Z$8 10b4eee8 f   LinkManager.obj
 0001:0004def3       __unwindfunclet$??0PayloadHA@@QAE@I@Z$9 10b4eef3 f   LinkManager.obj
 0001:0004defe       __unwindfunclet$??0PayloadHA@@QAE@I@Z$10 10b4eefe f   LinkManager.obj
 0001:0004df09       __ehhandler$??0PayloadHA@@QAE@I@Z 10b4ef09 f   LinkManager.obj
 0001:0004df30       __unwindfunclet$??0PMSAGSInitNtf@@QAE@XZ$0 10b4ef30 f   LinkManager.obj
 0001:0004df3b       __unwindfunclet$??0PMSAGSInitNtf@@QAE@XZ$1 10b4ef3b f   LinkManager.obj
 0001:0004df46       __ehhandler$??0PMSAGSInitNtf@@QAE@XZ 10b4ef46 f   LinkManager.obj
 0001:0004df70       __unwindfunclet$??0PMSAOrderAns@@QAE@XZ$0 10b4ef70 f   LinkManager.obj
 0001:0004df78       __unwindfunclet$??0PMSAOrderAns@@QAE@XZ$1 10b4ef78 f   LinkManager.obj
 0001:0004df83       __unwindfunclet$??0PMSAOrderAns@@QAE@XZ$2 10b4ef83 f   LinkManager.obj
 0001:0004df8e       __unwindfunclet$??0PMSAOrderAns@@QAE@XZ$3 10b4ef8e f   LinkManager.obj
 0001:0004df99       __ehhandler$??0PMSAOrderAns@@QAE@XZ 10b4ef99 f   LinkManager.obj
 0001:0004dfc0       __unwindfunclet$??0PMSAWarningNtf@@QAE@XZ$0 10b4efc0 f   LinkManager.obj
 0001:0004dfcb       __unwindfunclet$??0PMSAWarningNtf@@QAE@XZ$1 10b4efcb f   LinkManager.obj
 0001:0004dfd6       __ehhandler$??0PMSAWarningNtf@@QAE@XZ 10b4efd6 f   LinkManager.obj
 0001:0004e000       __unwindfunclet$??1PMSAGSInitNtf@@QAE@XZ$0 10b4f000 f   LinkManager.obj
 0001:0004e00b       __ehhandler$??1PMSAGSInitNtf@@QAE@XZ 10b4f00b f   LinkManager.obj
 0001:0004e030       __unwindfunclet$??1PMSAOrderAns@@QAE@XZ$0 10b4f030 f   LinkManager.obj
 0001:0004e038       __unwindfunclet$??1PMSAOrderAns@@QAE@XZ$1 10b4f038 f   LinkManager.obj
 0001:0004e043       __unwindfunclet$??1PMSAOrderAns@@QAE@XZ$2 10b4f043 f   LinkManager.obj
 0001:0004e04e       __ehhandler$??1PMSAOrderAns@@QAE@XZ 10b4f04e f   LinkManager.obj
 0001:0004e070       __unwindfunclet$??1PMSAWarningNtf@@QAE@XZ$0 10b4f070 f   LinkManager.obj
 0001:0004e07b       __ehhandler$??1PMSAWarningNtf@@QAE@XZ 10b4f07b f   LinkManager.obj
 0001:0004e0a0       __unwindfunclet$??1?$basic_string@DU?$char_traits@D@std@@V?$allocator@D@2@@std@@QAE@XZ$0 10b4f0a0 f   LinkManager.obj
 0001:0004e0a0       __unwindfunclet$??1?$basic_string@_WU?$char_traits@_W@std@@V?$allocator@_W@2@@std@@QAE@XZ$0 10b4f0a0 f   LinkManager.obj
 0001:0004e0a0       __unwindfunclet$??1?$vector@VPMSStatBase@@V?$allocator@VPMSStatBase@@@std@@@std@@QAE@XZ$0 10b4f0a0 f   LinkManager.obj
 0001:0004e0a0       __unwindfunclet$??0?$basic_string@DU?$char_traits@D@std@@V?$allocator@D@2@@std@@QAE@ABV01@@Z$0 10b4f0a0 f   LinkManager.obj
 0001:0004e0a0       __unwindfunclet$??1?$vector@JV?$allocator@J@std@@@std@@QAE@XZ$0 10b4f0a0 f   LinkManager.obj
 0001:0004e0a0       __unwindfunclet$??1?$vector@VPMSNSAP@@V?$allocator@VPMSNSAP@@@std@@@std@@QAE@XZ$0 10b4f0a0 f   LinkManager.obj
 0001:0004e0a0       __unwindfunclet$??0?$basic_string@_WU?$char_traits@_W@std@@V?$allocator@_W@2@@std@@QAE@ABV01@@Z$0 10b4f0a0 f   LinkManager.obj
 0001:0004e0a0       __unwindfunclet$??1?$vector@PAVGSyncObj@@V?$allocator@PAVGSyncObj@@@std@@@std@@QAE@XZ$0 10b4f0a0 f   LinkManager.obj
 0001:0004e0a0       __unwindfunclet$??1?$vector@VPMSRegionInfo@@V?$allocator@VPMSRegionInfo@@@std@@@std@@QAE@XZ$0 10b4f0a0 f   LinkManager.obj
 0001:0004e0a8       __ehhandler$??0?$basic_string@_WU?$char_traits@_W@std@@V?$allocator@_W@2@@std@@QAE@ABV01@@Z 10b4f0a8 f   LinkManager.obj
 0001:0004e0a8       __ehhandler$??1?$vector@VPMSStatBase@@V?$allocator@VPMSStatBase@@@std@@@std@@QAE@XZ 10b4f0a8 f   LinkManager.obj
 0001:0004e0a8       __ehhandler$??1?$vector@VPMSNSAP@@V?$allocator@VPMSNSAP@@@std@@@std@@QAE@XZ 10b4f0a8 f   LinkManager.obj
 0001:0004e0a8       __ehhandler$??1?$basic_string@DU?$char_traits@D@std@@V?$allocator@D@2@@std@@QAE@XZ 10b4f0a8 f   LinkManager.obj
 0001:0004e0a8       __ehhandler$??1?$vector@VPMSRegionInfo@@V?$allocator@VPMSRegionInfo@@@std@@@std@@QAE@XZ 10b4f0a8 f   LinkManager.obj
 0001:0004e0a8       __ehhandler$??1?$basic_string@_WU?$char_traits@_W@std@@V?$allocator@_W@2@@std@@QAE@XZ 10b4f0a8 f   LinkManager.obj
 0001:0004e0a8       __ehhandler$??0?$basic_string@DU?$char_traits@D@std@@V?$allocator@D@2@@std@@QAE@ABV01@@Z 10b4f0a8 f   LinkManager.obj
 0001:0004e0a8       __ehhandler$??1?$vector@JV?$allocator@J@std@@@std@@QAE@XZ 10b4f0a8 f   LinkManager.obj
 0001:0004e0a8       __ehhandler$??1?$vector@PAVGSyncObj@@V?$allocator@PAVGSyncObj@@@std@@@std@@QAE@XZ 10b4f0a8 f   LinkManager.obj
 0001:0004e0d0       __unwindfunclet$?push_back@?$vector@VPMSNSAP@@V?$allocator@VPMSNSAP@@@std@@@std@@QAEXABVPMSNSAP@@@Z$0 10b4f0d0 f   LinkManager.obj
 0001:0004e0d0       __unwindfunclet$?push_back@?$vector@JV?$allocator@J@std@@@std@@QAEXABJ@Z$0 10b4f0d0 f   LinkManager.obj
 0001:0004e0d0       __unwindfunclet$?push_back@?$vector@VPMSStatBase@@V?$allocator@VPMSStatBase@@@std@@@std@@QAEXABVPMSStatBase@@@Z$0 10b4f0d0 f   LinkManager.obj
 0001:0004e0d0       __unwindfunclet$?push_back@?$vector@VPMSRegionInfo@@V?$allocator@VPMSRegionInfo@@@std@@@std@@QAEXABVPMSRegionInfo@@@Z$0 10b4f0d0 f   LinkManager.obj
 0001:0004e0d0       __unwindfunclet$?push_back@?$vector@PAVGSyncObj@@V?$allocator@PAVGSyncObj@@@std@@@std@@QAEXABQAVGSyncObj@@@Z$0 10b4f0d0 f   LinkManager.obj
 0001:0004e0d0       __unwindfunclet$?push_back@?$vector@PAXV?$allocator@PAX@std@@@std@@QAEXABQAX@Z$0 10b4f0d0 f   LinkManager.obj
 0001:0004e0d8       __ehhandler$?push_back@?$vector@VPMSNSAP@@V?$allocator@VPMSNSAP@@@std@@@std@@QAEXABVPMSNSAP@@@Z 10b4f0d8 f   LinkManager.obj
 0001:0004e0d8       __ehhandler$?push_back@?$vector@VPMSRegionInfo@@V?$allocator@VPMSRegionInfo@@@std@@@std@@QAEXABVPMSRegionInfo@@@Z 10b4f0d8 f   LinkManager.obj
 0001:0004e0d8       __ehhandler$?push_back@?$vector@JV?$allocator@J@std@@@std@@QAEXABJ@Z 10b4f0d8 f   LinkManager.obj
 0001:0004e0d8       __ehhandler$?push_back@?$vector@PAVGSyncObj@@V?$allocator@PAVGSyncObj@@@std@@@std@@QAEXABQAVGSyncObj@@@Z 10b4f0d8 f   LinkManager.obj
 0001:0004e0d8       __ehhandler$?push_back@?$vector@VPMSStatBase@@V?$allocator@VPMSStatBase@@@std@@@std@@QAEXABVPMSStatBase@@@Z 10b4f0d8 f   LinkManager.obj
 0001:0004e0d8       __ehhandler$?push_back@?$vector@PAXV?$allocator@PAX@std@@@std@@QAEXABQAX@Z 10b4f0d8 f   LinkManager.obj
 0001:0004e100       __unwindfunclet$?clear@?$vector@JV?$allocator@J@std@@@std@@QAEXXZ$0 10b4f100 f   LinkManager.obj
 0001:0004e100       __unwindfunclet$?clear@?$vector@VPMSNSAP@@V?$allocator@VPMSNSAP@@@std@@@std@@QAEXXZ$0 10b4f100 f   LinkManager.obj
 0001:0004e100       __unwindfunclet$?clear@?$vector@PAVGSyncObj@@V?$allocator@PAVGSyncObj@@@std@@@std@@QAEXXZ$0 10b4f100 f   LinkManager.obj
 0001:0004e108       __unwindfunclet$?clear@?$vector@VPMSNSAP@@V?$allocator@VPMSNSAP@@@std@@@std@@QAEXXZ$1 10b4f108 f   LinkManager.obj
 0001:0004e108       __unwindfunclet$?clear@?$vector@JV?$allocator@J@std@@@std@@QAEXXZ$1 10b4f108 f   LinkManager.obj
 0001:0004e108       __unwindfunclet$?clear@?$vector@PAVGSyncObj@@V?$allocator@PAVGSyncObj@@@std@@@std@@QAEXXZ$1 10b4f108 f   LinkManager.obj
 0001:0004e110       __unwindfunclet$?clear@?$vector@VPMSNSAP@@V?$allocator@VPMSNSAP@@@std@@@std@@QAEXXZ$2 10b4f110 f   LinkManager.obj
 0001:0004e110       __unwindfunclet$?clear@?$vector@JV?$allocator@J@std@@@std@@QAEXXZ$2 10b4f110 f   LinkManager.obj
 0001:0004e110       __unwindfunclet$?clear@?$vector@PAVGSyncObj@@V?$allocator@PAVGSyncObj@@@std@@@std@@QAEXXZ$2 10b4f110 f   LinkManager.obj
 0001:0004e118       __ehhandler$?clear@?$vector@VPMSNSAP@@V?$allocator@VPMSNSAP@@@std@@@std@@QAEXXZ 10b4f118 f   LinkManager.obj
 0001:0004e118       __ehhandler$?clear@?$vector@PAVGSyncObj@@V?$allocator@PAVGSyncObj@@@std@@@std@@QAEXXZ 10b4f118 f   LinkManager.obj
 0001:0004e118       __ehhandler$?clear@?$vector@JV?$allocator@J@std@@@std@@QAEXXZ 10b4f118 f   LinkManager.obj
 0001:0004e140       __unwindfunclet$?OnReceive@?$AdlSocketDispatcherImplT@V?$BufSocketSingleT@VGSocketHandler@@VGBufSocket@@@@VPayloadGS@@@@MAEHPAVGBufSocket@@H@Z$0 10b4f140 f   LinkManager.obj
 0001:0004e148       __ehhandler$?OnReceive@?$AdlSocketDispatcherImplT@V?$BufSocketSingleT@VGSocketHandler@@VGBufSocket@@@@VPayloadGS@@@@MAEHPAVGBufSocket@@H@Z 10b4f148 f   LinkManager.obj
 0001:0004e170       __unwindfunclet$??1_Iterator_base@std@@QAE@XZ$0 10b4f170 f   LinkManager.obj
 0001:0004e170       __unwindfunclet$?_Adopt@_Iterator_base@std@@QAEXPBV_Container_base_secure@2@@Z$0 10b4f170 f   LinkManager.obj
 0001:0004e170       __unwindfunclet$??4_Iterator_base@std@@QAEAAV01@ABV01@@Z$0 10b4f170 f   LinkManager.obj
 0001:0004e178       __ehhandler$?_Adopt@_Iterator_base@std@@QAEXPBV_Container_base_secure@2@@Z 10b4f178 f   LinkManager.obj
 0001:0004e178       __ehhandler$??4_Iterator_base@std@@QAEAAV01@ABV01@@Z 10b4f178 f   LinkManager.obj
 0001:0004e178       __ehhandler$??1_Iterator_base@std@@QAE@XZ 10b4f178 f   LinkManager.obj
 0001:0004e1a0       __unwindfunclet$??0?$basic_string@_WU?$char_traits@_W@std@@V?$allocator@_W@2@@std@@QAE@PB_W@Z$0 10b4f1a0 f   LinkManager.obj
 0001:0004e1a0       __unwindfunclet$??0?$basic_string@DU?$char_traits@D@std@@V?$allocator@D@2@@std@@QAE@ABV01@IIABV?$allocator@D@1@@Z$0 10b4f1a0 f   LinkManager.obj
 0001:0004e1a0       __unwindfunclet$??0?$basic_string@DU?$char_traits@D@std@@V?$allocator@D@2@@std@@QAE@PBDI@Z$0 10b4f1a0 f   LinkManager.obj
 0001:0004e1a0       __unwindfunclet$??0?$vector@PAVGSyncObj@@V?$allocator@PAVGSyncObj@@@std@@@std@@QAE@XZ$0 10b4f1a0 f   LinkManager.obj
 0001:0004e1a0       __unwindfunclet$??0?$vector@JV?$allocator@J@std@@@std@@QAE@XZ$0 10b4f1a0 f   LinkManager.obj
 0001:0004e1a0       __unwindfunclet$??0?$basic_string@DU?$char_traits@D@std@@V?$allocator@D@2@@std@@QAE@XZ$0 10b4f1a0 f   LinkManager.obj
 0001:0004e1a0       __unwindfunclet$??0?$vector@VPMSNSAP@@V?$allocator@VPMSNSAP@@@std@@@std@@QAE@XZ$0 10b4f1a0 f   LinkManager.obj
 0001:0004e1a0       __unwindfunclet$??0?$basic_string@_WU?$char_traits@_W@std@@V?$allocator@_W@2@@std@@QAE@ABV01@IIABV?$allocator@_W@1@@Z$0 10b4f1a0 f   LinkManager.obj
 0001:0004e1a0       __unwindfunclet$??0?$basic_string@_WU?$char_traits@_W@std@@V?$allocator@_W@2@@std@@QAE@PB_WI@Z$0 10b4f1a0 f   LinkManager.obj
 0001:0004e1a0       __unwindfunclet$??0?$vector@VPMSRegionInfo@@V?$allocator@VPMSRegionInfo@@@std@@@std@@QAE@XZ$0 10b4f1a0 f   LinkManager.obj
 0001:0004e1a0       __unwindfunclet$??0?$basic_string@DU?$char_traits@D@std@@V?$allocator@D@2@@std@@QAE@PBD@Z$0 10b4f1a0 f   LinkManager.obj
 0001:0004e1a0       __unwindfunclet$??0?$vector@VPMSStatBase@@V?$allocator@VPMSStatBase@@@std@@@std@@QAE@XZ$0 10b4f1a0 f   LinkManager.obj
 0001:0004e1a8       __ehhandler$??0?$basic_string@_WU?$char_traits@_W@std@@V?$allocator@_W@2@@std@@QAE@ABV01@IIABV?$allocator@_W@1@@Z 10b4f1a8 f   LinkManager.obj
 0001:0004e1a8       __ehhandler$??0?$vector@VPMSStatBase@@V?$allocator@VPMSStatBase@@@std@@@std@@QAE@XZ 10b4f1a8 f   LinkManager.obj
 0001:0004e1a8       __ehhandler$??0?$vector@VPMSRegionInfo@@V?$allocator@VPMSRegionInfo@@@std@@@std@@QAE@XZ 10b4f1a8 f   LinkManager.obj
 0001:0004e1a8       __ehhandler$??0?$vector@PAVGSyncObj@@V?$allocator@PAVGSyncObj@@@std@@@std@@QAE@XZ 10b4f1a8 f   LinkManager.obj
 0001:0004e1a8       __ehhandler$??0?$basic_string@DU?$char_traits@D@std@@V?$allocator@D@2@@std@@QAE@PBD@Z 10b4f1a8 f   LinkManager.obj
 0001:0004e1a8       __ehhandler$??0?$basic_string@DU?$char_traits@D@std@@V?$allocator@D@2@@std@@QAE@PBDI@Z 10b4f1a8 f   LinkManager.obj
 0001:0004e1a8       __ehhandler$??0?$basic_string@_WU?$char_traits@_W@std@@V?$allocator@_W@2@@std@@QAE@PB_WI@Z 10b4f1a8 f   LinkManager.obj
 0001:0004e1a8       __ehhandler$??0?$vector@VPMSNSAP@@V?$allocator@VPMSNSAP@@@std@@@std@@QAE@XZ 10b4f1a8 f   LinkManager.obj
 0001:0004e1a8       __ehhandler$??0?$basic_string@_WU?$char_traits@_W@std@@V?$allocator@_W@2@@std@@QAE@PB_W@Z 10b4f1a8 f   LinkManager.obj
 0001:0004e1a8       __ehhandler$??0?$vector@JV?$allocator@J@std@@@std@@QAE@XZ 10b4f1a8 f   LinkManager.obj
 0001:0004e1a8       __ehhandler$??0?$basic_string@DU?$char_traits@D@std@@V?$allocator@D@2@@std@@QAE@ABV01@IIABV?$allocator@D@1@@Z 10b4f1a8 f   LinkManager.obj
 0001:0004e1a8       __ehhandler$??0?$basic_string@DU?$char_traits@D@std@@V?$allocator@D@2@@std@@QAE@XZ 10b4f1a8 f   LinkManager.obj
 0001:0004e1d0       __unwindfunclet$?_Insert_n@?$vector@VPMSNSAP@@V?$allocator@VPMSNSAP@@@std@@@std@@IAEXV?$_Vector_const_iterator@VPMSNSAP@@V?$allocator@VPMSNSAP@@@std@@@2@IABVPMSNSAP@@@Z$4 10b4f1d0 f   LinkManager.obj
 0001:0004e1d8       __ehhandler$?_Insert_n@?$vector@VPMSNSAP@@V?$allocator@VPMSNSAP@@@std@@@std@@IAEXV?$_Vector_const_iterator@VPMSNSAP@@V?$allocator@VPMSNSAP@@@std@@@2@IABVPMSNSAP@@@Z 10b4f1d8 f   LinkManager.obj
 0001:0004e200       __unwindfunclet$?_Xlen@?$vector@JV?$allocator@J@std@@@std@@KAXXZ$0 10b4f200 f   LinkManager.obj
 0001:0004e200       __unwindfunclet$?_Xlen@?$vector@PAXV?$allocator@PAX@std@@@std@@KAXXZ$0 10b4f200 f   LinkManager.obj
 0001:0004e200       __unwindfunclet$?_Xlen@?$vector@VPMSRegionInfo@@V?$allocator@VPMSRegionInfo@@@std@@@std@@KAXXZ$0 10b4f200 f   LinkManager.obj
 0001:0004e200       __unwindfunclet$?_Xlen@?$vector@PAVGSyncObj@@V?$allocator@PAVGSyncObj@@@std@@@std@@KAXXZ$0 10b4f200 f   LinkManager.obj
 0001:0004e200       __unwindfunclet$?_Xlen@?$vector@VPMSNSAP@@V?$allocator@VPMSNSAP@@@std@@@std@@KAXXZ$0 10b4f200 f   LinkManager.obj
 0001:0004e200       __unwindfunclet$?_Xlen@?$vector@VPMSStatBase@@V?$allocator@VPMSStatBase@@@std@@@std@@KAXXZ$0 10b4f200 f   LinkManager.obj
 0001:0004e208       __ehhandler$?_Xlen@?$vector@VPMSNSAP@@V?$allocator@VPMSNSAP@@@std@@@std@@KAXXZ 10b4f208 f   LinkManager.obj
 0001:0004e208       __ehhandler$?_Xlen@?$vector@PAVGSyncObj@@V?$allocator@PAVGSyncObj@@@std@@@std@@KAXXZ 10b4f208 f   LinkManager.obj
 0001:0004e208       __ehhandler$?_Xlen@?$vector@VPMSRegionInfo@@V?$allocator@VPMSRegionInfo@@@std@@@std@@KAXXZ 10b4f208 f   LinkManager.obj
 0001:0004e208       __ehhandler$?_Xlen@?$vector@JV?$allocator@J@std@@@std@@KAXXZ 10b4f208 f   LinkManager.obj
 0001:0004e208       __ehhandler$?_Xlen@?$vector@VPMSStatBase@@V?$allocator@VPMSStatBase@@@std@@@std@@KAXXZ 10b4f208 f   LinkManager.obj
 0001:0004e208       __ehhandler$?_Xlen@?$vector@PAXV?$allocator@PAX@std@@@std@@KAXXZ 10b4f208 f   LinkManager.obj
 0001:0004e230       __unwindfunclet$??0logic_error@std@@QAE@ABV?$basic_string@DU?$char_traits@D@std@@V?$allocator@D@2@@1@@Z$0 10b4f230 f   LinkManager.obj
 0001:0004e230       __unwindfunclet$??0logic_error@std@@QAE@ABV01@@Z$0 10b4f230 f   LinkManager.obj
 0001:0004e238       __ehhandler$??0logic_error@std@@QAE@ABV?$basic_string@DU?$char_traits@D@std@@V?$allocator@D@2@@1@@Z 10b4f238 f   LinkManager.obj
 0001:0004e238       __ehhandler$??0logic_error@std@@QAE@ABV01@@Z 10b4f238 f   LinkManager.obj
 0001:0004e260       __unwindfunclet$?BLoad@PayloadGS@@QAEHPAUIXBuf@@@Z$0 10b4f260 f   LinkManager.obj
 0001:0004e26b       __unwindfunclet$?BLoad@PayloadGS@@QAEHPAUIXBuf@@@Z$1 10b4f26b f   LinkManager.obj
 0001:0004e276       __unwindfunclet$?BLoad@PayloadGS@@QAEHPAUIXBuf@@@Z$2 10b4f276 f   LinkManager.obj
 0001:0004e281       __unwindfunclet$?BLoad@PayloadGS@@QAEHPAUIXBuf@@@Z$3 10b4f281 f   LinkManager.obj
 0001:0004e28c       __unwindfunclet$?BLoad@PayloadGS@@QAEHPAUIXBuf@@@Z$4 10b4f28c f   LinkManager.obj
 0001:0004e297       __unwindfunclet$?BLoad@PayloadGS@@QAEHPAUIXBuf@@@Z$5 10b4f297 f   LinkManager.obj
 0001:0004e2a2       __ehhandler$?BLoad@PayloadGS@@QAEHPAUIXBuf@@@Z 10b4f2a2 f   LinkManager.obj
 0001:0004e2c0       __unwindfunclet$??0PMSAAnnounceReq@@QAE@XZ$0 10b4f2c0 f   LinkManager.obj
 0001:0004e2cb       __ehhandler$??0PMSAAnnounceReq@@QAE@XZ 10b4f2cb f   LinkManager.obj
 0001:0004e2f0       __unwindfunclet$??1PMSAOrderReq@@QAE@XZ$0 10b4f2f0 f   LinkManager.obj
 0001:0004e2f0       __unwindfunclet$??0PMSAOrderReq@@QAE@XZ$0 10b4f2f0 f   LinkManager.obj
 0001:0004e2fb       __unwindfunclet$??1PMSAOrderReq@@QAE@XZ$1 10b4f2fb f   LinkManager.obj
 0001:0004e2fb       __unwindfunclet$??0PMSAOrderReq@@QAE@XZ$1 10b4f2fb f   LinkManager.obj
 0001:0004e306       __ehhandler$??1PMSAOrderReq@@QAE@XZ 10b4f306 f   LinkManager.obj
 0001:0004e306       __ehhandler$??0PMSAOrderReq@@QAE@XZ 10b4f306 f   LinkManager.obj
 0001:0004e330       __unwindfunclet$?BStore@?$ArcVectorT@J@@QBEHPAUIXBuf@@@Z$0 10b4f330 f   LinkManager.obj
 0001:0004e330       __unwindfunclet$?BStore@?$ArcVectorT@VPMSRegionInfo@@@@QBEHPAUIXBuf@@@Z$0 10b4f330 f   LinkManager.obj
 0001:0004e330       __unwindfunclet$?BStore@?$ArcVectorT@VPMSNSAP@@@@QBEHPAUIXBuf@@@Z$0 10b4f330 f   LinkManager.obj
 0001:0004e330       __unwindfunclet$?BStore@?$ArcVectorT@VPMSStatBase@@@@QBEHPAUIXBuf@@@Z$0 10b4f330 f   LinkManager.obj
 0001:0004e338       __unwindfunclet$?BStore@?$ArcVectorT@VPMSRegionInfo@@@@QBEHPAUIXBuf@@@Z$1 10b4f338 f   LinkManager.obj
 0001:0004e338       __unwindfunclet$?BStore@?$ArcVectorT@J@@QBEHPAUIXBuf@@@Z$1 10b4f338 f   LinkManager.obj
 0001:0004e338       __unwindfunclet$?BStore@?$ArcVectorT@VPMSNSAP@@@@QBEHPAUIXBuf@@@Z$1 10b4f338 f   LinkManager.obj
 0001:0004e338       __unwindfunclet$?BStore@?$ArcVectorT@VPMSStatBase@@@@QBEHPAUIXBuf@@@Z$1 10b4f338 f   LinkManager.obj
 0001:0004e340       __unwindfunclet$?BStore@?$ArcVectorT@VPMSRegionInfo@@@@QBEHPAUIXBuf@@@Z$3 10b4f340 f   LinkManager.obj
 0001:0004e340       __unwindfunclet$?BStore@?$ArcVectorT@VPMSStatBase@@@@QBEHPAUIXBuf@@@Z$3 10b4f340 f   LinkManager.obj
 0001:0004e340       __unwindfunclet$?BStore@?$ArcVectorT@J@@QBEHPAUIXBuf@@@Z$3 10b4f340 f   LinkManager.obj
 0001:0004e340       __unwindfunclet$?BStore@?$ArcVectorT@VPMSNSAP@@@@QBEHPAUIXBuf@@@Z$3 10b4f340 f   LinkManager.obj
 0001:0004e348       __ehhandler$?BStore@?$ArcVectorT@VPMSNSAP@@@@QBEHPAUIXBuf@@@Z 10b4f348 f   LinkManager.obj
 0001:0004e348       __ehhandler$?BStore@?$ArcVectorT@VPMSRegionInfo@@@@QBEHPAUIXBuf@@@Z 10b4f348 f   LinkManager.obj
 0001:0004e348       __ehhandler$?BStore@?$ArcVectorT@VPMSStatBase@@@@QBEHPAUIXBuf@@@Z 10b4f348 f   LinkManager.obj
 0001:0004e348       __ehhandler$?BStore@?$ArcVectorT@J@@QBEHPAUIXBuf@@@Z 10b4f348 f   LinkManager.obj
 0001:0004e370       __unwindfunclet$?Pop@GSafeBufQ@@QAEHAAVGBuf@@@Z$0 10b4f370 f   LinkManager.obj
 0001:0004e378       __ehhandler$?Pop@GSafeBufQ@@QAEHAAVGBuf@@@Z 10b4f378 f   LinkManager.obj
 0001:0004e3a0       __ehhandler$??$_Uninit_fill_n@PAVPMSNSAP@@IV1@V?$allocator@VPMSNSAP@@@std@@@std@@YAXPAVPMSNSAP@@IABV1@AAV?$allocator@VPMSNSAP@@@0@U_Nonscalar_ptr_iterator_tag@0@U_Range_checked_iterator_tag@0@@Z 10b4f3a0 f   LinkManager.obj
 0001:0004e3c0       __unwindfunclet$??$_Construct@VPMSNSAP@@V1@@std@@YAXPAVPMSNSAP@@ABV1@@Z$0 10b4f3c0 f   LinkManager.obj
 0001:0004e3c0       __unwindfunclet$??$_Construct@VGBuf@@V1@@std@@YAXPAVGBuf@@ABV1@@Z$0 10b4f3c0 f   LinkManager.obj
 0001:0004e3c0       __unwindfunclet$??$_Construct@VPMSRegionInfo@@V1@@std@@YAXPAVPMSRegionInfo@@ABV1@@Z$0 10b4f3c0 f   LinkManager.obj
 0001:0004e3c0       __unwindfunclet$??$_Construct@VPMSStatBase@@V1@@std@@YAXPAVPMSStatBase@@ABV1@@Z$0 10b4f3c0 f   LinkManager.obj
 0001:0004e3d1       __ehhandler$??$_Construct@VPMSNSAP@@V1@@std@@YAXPAVPMSNSAP@@ABV1@@Z 10b4f3d1 f   LinkManager.obj
 0001:0004e3d1       __ehhandler$??$_Construct@VGBuf@@V1@@std@@YAXPAVGBuf@@ABV1@@Z 10b4f3d1 f   LinkManager.obj
 0001:0004e3d1       __ehhandler$??$_Construct@VPMSStatBase@@V1@@std@@YAXPAVPMSStatBase@@ABV1@@Z 10b4f3d1 f   LinkManager.obj
 0001:0004e3d1       __ehhandler$??$_Construct@VPMSRegionInfo@@V1@@std@@YAXPAVPMSRegionInfo@@ABV1@@Z 10b4f3d1 f   LinkManager.obj
 0001:0004e3f0       __ehhandler$??$_Uninit_copy@PAVPMSNSAP@@PAV1@V?$allocator@VPMSNSAP@@@std@@@std@@YAPAVPMSNSAP@@PAV1@00AAV?$allocator@VPMSNSAP@@@0@U_Nonscalar_ptr_iterator_tag@0@U_Range_checked_iterator_tag@0@@Z 10b4f3f0 f   LinkManager.obj
 0001:0004e410       __unwindfunclet$??0?$list@VGBuf@@V?$allocator@VGBuf@@@std@@@std@@QAE@XZ$0 10b4f410 f   LinkManager.obj
 0001:0004e418       __ehhandler$??0?$list@VGBuf@@V?$allocator@VGBuf@@@std@@@std@@QAE@XZ 10b4f418 f   LinkManager.obj
 0001:0004e440       __unwindfunclet$??1?$list@VGBuf@@V?$allocator@VGBuf@@@std@@@std@@QAE@XZ$0 10b4f440 f   LinkManager.obj
 0001:0004e448       __ehhandler$??1?$list@VGBuf@@V?$allocator@VGBuf@@@std@@@std@@QAE@XZ 10b4f448 f   LinkManager.obj
 0001:0004e470       __unwindfunclet$?front@?$list@VGBuf@@V?$allocator@VGBuf@@@std@@@std@@QAEAAVGBuf@@XZ$0 10b4f470 f   LinkManager.obj
 0001:0004e478       __ehhandler$?front@?$list@VGBuf@@V?$allocator@VGBuf@@@std@@@std@@QAEAAVGBuf@@XZ 10b4f478 f   LinkManager.obj
 0001:0004e4a0       __unwindfunclet$?pop_front@?$list@VGBuf@@V?$allocator@VGBuf@@@std@@@std@@QAEXXZ$0 10b4f4a0 f   LinkManager.obj
 0001:0004e4a8       __ehhandler$?pop_front@?$list@VGBuf@@V?$allocator@VGBuf@@@std@@@std@@QAEXXZ 10b4f4a8 f   LinkManager.obj
 0001:0004e4d0       __unwindfunclet$?erase@?$list@VGBuf@@V?$allocator@VGBuf@@@std@@@std@@QAE?AV?$_Iterator@$00@12@V?$_Const_iterator@$00@12@@Z$0 10b4f4d0 f   LinkManager.obj
 0001:0004e4d8       __unwindfunclet$?erase@?$list@VGBuf@@V?$allocator@VGBuf@@@std@@@std@@QAE?AV?$_Iterator@$00@12@V?$_Const_iterator@$00@12@@Z$1 10b4f4d8 f   LinkManager.obj
 0001:0004e4e0       __unwindfunclet$?erase@?$list@VGBuf@@V?$allocator@VGBuf@@@std@@@std@@QAE?AV?$_Iterator@$00@12@V?$_Const_iterator@$00@12@@Z$3 10b4f4e0 f   LinkManager.obj
 0001:0004e4f9       __ehhandler$?erase@?$list@VGBuf@@V?$allocator@VGBuf@@@std@@@std@@QAE?AV?$_Iterator@$00@12@V?$_Const_iterator@$00@12@@Z 10b4f4f9 f   LinkManager.obj
 0001:0004e520       __ehhandler$?_Buynode@?$list@VGBuf@@V?$allocator@VGBuf@@@std@@@std@@IAEPAU_Node@?$_List_nod@VGBuf@@V?$allocator@VGBuf@@@std@@@2@XZ 10b4f520 f   LinkManager.obj
 0001:0004e540       __unwindfunclet$??0?$_Vector_const_iterator@PAVGSyncObj@@V?$allocator@PAVGSyncObj@@@std@@@std@@QAE@PAPAVGSyncObj@@PBV_Container_base_secure@1@@Z$0 10b4f540 f   LinkManager.obj
 0001:0004e540       __unwindfunclet$??0?$_Vector_const_iterator@JV?$allocator@J@std@@@std@@QAE@PAJPBV_Container_base_secure@1@@Z$0 10b4f540 f   LinkManager.obj
 0001:0004e540       __unwindfunclet$??0?$_Vector_const_iterator@VPMSNSAP@@V?$allocator@VPMSNSAP@@@std@@@std@@QAE@PAVPMSNSAP@@PBV_Container_base_secure@1@@Z$0 10b4f540 f   LinkManager.obj
 0001:0004e540       __unwindfunclet$??0?$_Vector_const_iterator@VPMSStatBase@@V?$allocator@VPMSStatBase@@@std@@@std@@QAE@PAVPMSStatBase@@PBV_Container_base_secure@1@@Z$0 10b4f540 f   LinkManager.obj
 0001:0004e540       __unwindfunclet$??0?$_Const_iterator@$00@?$list@VGBuf@@V?$allocator@VGBuf@@@std@@@std@@QAE@PAU_Node@?$_List_nod@VGBuf@@V?$allocator@VGBuf@@@std@@@2@PBV12@@Z$0 10b4f540 f   LinkManager.obj
 0001:0004e540       __unwindfunclet$??0?$_Vector_const_iterator@PAXV?$allocator@PAX@std@@@std@@QAE@PAPAXPBV_Container_base_secure@1@@Z$0 10b4f540 f   LinkManager.obj
 0001:0004e540       __unwindfunclet$??0?$_Vector_const_iterator@VPMSRegionInfo@@V?$allocator@VPMSRegionInfo@@@std@@@std@@QAE@PAVPMSRegionInfo@@PBV_Container_base_secure@1@@Z$0 10b4f540 f   LinkManager.obj
 0001:0004e548       __ehhandler$??0?$_Vector_const_iterator@PAVGSyncObj@@V?$allocator@PAVGSyncObj@@@std@@@std@@QAE@PAPAVGSyncObj@@PBV_Container_base_secure@1@@Z 10b4f548 f   LinkManager.obj
 0001:0004e548       __ehhandler$??0?$_Vector_const_iterator@VPMSNSAP@@V?$allocator@VPMSNSAP@@@std@@@std@@QAE@PAVPMSNSAP@@PBV_Container_base_secure@1@@Z 10b4f548 f   LinkManager.obj
 0001:0004e548       __ehhandler$??0?$_Vector_const_iterator@PAXV?$allocator@PAX@std@@@std@@QAE@PAPAXPBV_Container_base_secure@1@@Z 10b4f548 f   LinkManager.obj
 0001:0004e548       __ehhandler$??0?$_Vector_const_iterator@VPMSRegionInfo@@V?$allocator@VPMSRegionInfo@@@std@@@std@@QAE@PAVPMSRegionInfo@@PBV_Container_base_secure@1@@Z 10b4f548 f   LinkManager.obj
 0001:0004e548       __ehhandler$??0?$_Vector_const_iterator@JV?$allocator@J@std@@@std@@QAE@PAJPBV_Container_base_secure@1@@Z 10b4f548 f   LinkManager.obj
 0001:0004e548       __ehhandler$??0?$_Const_iterator@$00@?$list@VGBuf@@V?$allocator@VGBuf@@@std@@@std@@QAE@PAU_Node@?$_List_nod@VGBuf@@V?$allocator@VGBuf@@@std@@@2@PBV12@@Z 10b4f548 f   LinkManager.obj
 0001:0004e548       __ehhandler$??0?$_Vector_const_iterator@VPMSStatBase@@V?$allocator@VPMSStatBase@@@std@@@std@@QAE@PAVPMSStatBase@@PBV_Container_base_secure@1@@Z 10b4f548 f   LinkManager.obj
 0001:0004e570       __unwindfunclet$??E?$_Vector_const_iterator@VPMSRegionInfo@@V?$allocator@VPMSRegionInfo@@@std@@@std@@QAE?AV01@H@Z$0 10b4f570 f   LinkManager.obj
 0001:0004e570       __unwindfunclet$??E?$_Vector_const_iterator@VPMSNSAP@@V?$allocator@VPMSNSAP@@@std@@@std@@QAE?AV01@H@Z$0 10b4f570 f   LinkManager.obj
 0001:0004e570       __unwindfunclet$??E?$_Const_iterator@$00@?$list@VGBuf@@V?$allocator@VGBuf@@@std@@@std@@QAE?AV012@H@Z$0 10b4f570 f   LinkManager.obj
 0001:0004e570       __unwindfunclet$??E?$_Vector_const_iterator@VPMSStatBase@@V?$allocator@VPMSStatBase@@@std@@@std@@QAE?AV01@H@Z$0 10b4f570 f   LinkManager.obj
 0001:0004e570       __unwindfunclet$??E?$_Vector_const_iterator@JV?$allocator@J@std@@@std@@QAE?AV01@H@Z$0 10b4f570 f   LinkManager.obj
 0001:0004e578       __unwindfunclet$??E?$_Vector_const_iterator@VPMSRegionInfo@@V?$allocator@VPMSRegionInfo@@@std@@@std@@QAE?AV01@H@Z$1 10b4f578 f   LinkManager.obj
 0001:0004e578       __unwindfunclet$??E?$_Const_iterator@$00@?$list@VGBuf@@V?$allocator@VGBuf@@@std@@@std@@QAE?AV012@H@Z$1 10b4f578 f   LinkManager.obj
 0001:0004e578       __unwindfunclet$??E?$_Vector_const_iterator@VPMSNSAP@@V?$allocator@VPMSNSAP@@@std@@@std@@QAE?AV01@H@Z$1 10b4f578 f   LinkManager.obj
 0001:0004e578       __unwindfunclet$??E?$_Vector_const_iterator@VPMSStatBase@@V?$allocator@VPMSStatBase@@@std@@@std@@QAE?AV01@H@Z$1 10b4f578 f   LinkManager.obj
 0001:0004e578       __unwindfunclet$??E?$_Vector_const_iterator@JV?$allocator@J@std@@@std@@QAE?AV01@H@Z$1 10b4f578 f   LinkManager.obj
 0001:0004e591       __ehhandler$??E?$_Const_iterator@$00@?$list@VGBuf@@V?$allocator@VGBuf@@@std@@@std@@QAE?AV012@H@Z 10b4f591 f   LinkManager.obj
 0001:0004e591       __ehhandler$??E?$_Vector_const_iterator@VPMSRegionInfo@@V?$allocator@VPMSRegionInfo@@@std@@@std@@QAE?AV01@H@Z 10b4f591 f   LinkManager.obj
 0001:0004e591       __ehhandler$??E?$_Vector_const_iterator@VPMSNSAP@@V?$allocator@VPMSNSAP@@@std@@@std@@QAE?AV01@H@Z 10b4f591 f   LinkManager.obj
 0001:0004e591       __ehhandler$??E?$_Vector_const_iterator@JV?$allocator@J@std@@@std@@QAE?AV01@H@Z 10b4f591 f   LinkManager.obj
 0001:0004e591       __ehhandler$??E?$_Vector_const_iterator@VPMSStatBase@@V?$allocator@VPMSStatBase@@@std@@@std@@QAE?AV01@H@Z 10b4f591 f   LinkManager.obj
 0001:0004e5b0       __unwindfunclet$?AddRegionInfo@CPMSRegionInfoList@@UAEXKKPAV?$vector@JV?$allocator@J@std@@@std@@@Z$0 10b4f5b0 f   LinkManagerMsg.obj
 0001:0004e5b8       __unwindfunclet$?AddRegionInfo@CPMSRegionInfoList@@UAEXKKPAV?$vector@JV?$allocator@J@std@@@std@@@Z$1 10b4f5b8 f   LinkManagerMsg.obj
 0001:0004e5c0       __ehhandler$?AddRegionInfo@CPMSRegionInfoList@@UAEXKKPAV?$vector@JV?$allocator@J@std@@@std@@@Z 10b4f5c0 f   LinkManagerMsg.obj
 0001:0004e5db       __unwindfunclet$?AddRegionInfo2@CPMSRegionInfoList@@UAEXKKQAJ@Z$0 10b4f5db f   LinkManagerMsg.obj
 0001:0004e5e3       __ehhandler$?AddRegionInfo2@CPMSRegionInfoList@@UAEXKKQAJ@Z 10b4f5e3 f   LinkManagerMsg.obj
 0001:0004e5fe       __unwindfunclet$?AddRegionInfo238@CPMSRegionInfoList@@UAEXKKQAJ@Z$0 10b4f5fe f   LinkManagerMsg.obj
 0001:0004e606       __ehhandler$?AddRegionInfo238@CPMSRegionInfoList@@UAEXKKQAJ@Z 10b4f606 f   LinkManagerMsg.obj
 0001:0004e621       __unwindfunclet$?AddRegionInfo272@CPMSRegionInfoList@@UAEXKKQAJ@Z$0 10b4f621 f   LinkManagerMsg.obj
 0001:0004e629       __ehhandler$?AddRegionInfo272@CPMSRegionInfoList@@UAEXKKQAJ@Z 10b4f629 f   LinkManagerMsg.obj
 0001:0004e644       __unwindfunclet$?AddRegionInfoPC@CPMSRegionInfoListPC@@UAEXKKPAV?$vector@JV?$allocator@J@std@@@std@@@Z$0 10b4f644 f   LinkManagerMsg.obj
 0001:0004e64c       __unwindfunclet$?AddRegionInfoPC@CPMSRegionInfoListPC@@UAEXKKPAV?$vector@JV?$allocator@J@std@@@std@@@Z$1 10b4f64c f   LinkManagerMsg.obj
 0001:0004e654       __ehhandler$?AddRegionInfoPC@CPMSRegionInfoListPC@@UAEXKKPAV?$vector@JV?$allocator@J@std@@@std@@@Z 10b4f654 f   LinkManagerMsg.obj
 0001:0004e66f       __unwindfunclet$?AddRegionInfoPC238@CPMSRegionInfoListPC@@UAEXKKQAJ@Z$0 10b4f66f f   LinkManagerMsg.obj
 0001:0004e677       __ehhandler$?AddRegionInfoPC238@CPMSRegionInfoListPC@@UAEXKKQAJ@Z 10b4f677 f   LinkManagerMsg.obj
 0001:0004e692       __unwindfunclet$?AddRegionInfoPC272@CPMSRegionInfoListPC@@UAEXKKQAJ@Z$0 10b4f692 f   LinkManagerMsg.obj
 0001:0004e69a       __ehhandler$?AddRegionInfoPC272@CPMSRegionInfoListPC@@UAEXKKQAJ@Z 10b4f69a f   LinkManagerMsg.obj
 0001:0004e6b5       __unwindfunclet$?AddStatInfoList@CPMSStatInfoList@@UAEXKKKKKKPBD@Z$0 10b4f6b5 f   LinkManagerMsg.obj
 0001:0004e6bd       __ehhandler$?AddStatInfoList@CPMSStatInfoList@@UAEXKKKKKKPBD@Z 10b4f6bd f   LinkManagerMsg.obj
 0001:0004e6e2       __unwindfunclet$?AddStatInfoListPC@CPMSStatInfoListPC@@UAEXKKKKKKPBD@Z$0 10b4f6e2 f   LinkManagerMsg.obj
 0001:0004e6ea       __ehhandler$?AddStatInfoListPC@CPMSStatInfoListPC@@UAEXKKKKKKPBD@Z 10b4f6ea f   LinkManagerMsg.obj
 0001:0004e70f       __unwindfunclet$?SendMsg@CLinkManager@@AAEXABVPayloadHA@@@Z$0 10b4f70f f   LinkManagerMsg.obj
 0001:0004e717       __unwindfunclet$?SendMsg@CLinkManager@@AAEXABVPayloadHA@@@Z$1 10b4f717 f   LinkManagerMsg.obj
 0001:0004e71f       __ehhandler$?SendMsg@CLinkManager@@AAEXABVPayloadHA@@@Z 10b4f71f f   LinkManagerMsg.obj
 0001:0004e73a       __unwindfunclet$?OnError@CLinkManager@@EAEHPAVGBufSocket@@JH@Z$0 10b4f73a f   LinkManagerMsg.obj
 0001:0004e742       __ehhandler$?OnError@CLinkManager@@EAEHPAVGBufSocket@@JH@Z 10b4f742 f   LinkManagerMsg.obj
 0001:0004e75d       __unwindfunclet$?OnAnnounceReq@CLinkManager@@AAEXPAVPMSAAnnounceReq@@@Z$0 10b4f75d f   LinkManagerMsg.obj
 0001:0004e765       __unwindfunclet$?OnAnnounceReq@CLinkManager@@AAEXPAVPMSAAnnounceReq@@@Z$1 10b4f765 f   LinkManagerMsg.obj
 0001:0004e76d       __ehhandler$?OnAnnounceReq@CLinkManager@@AAEXPAVPMSAAnnounceReq@@@Z 10b4f76d f   LinkManagerMsg.obj
 0001:0004e788       __unwindfunclet$?OnHeartBeatReq@CLinkManager@@AAEXPAVPMSAHeartBeatReq@@@Z$0 10b4f788 f   LinkManagerMsg.obj
 0001:0004e790       __ehhandler$?OnHeartBeatReq@CLinkManager@@AAEXPAVPMSAHeartBeatReq@@@Z 10b4f790 f   LinkManagerMsg.obj
 0001:0004e7ab       __unwindfunclet$?OnOrderReq@CLinkManager@@AAEXPAVPMSAOrderReq@@@Z$0 10b4f7ab f   LinkManagerMsg.obj
 0001:0004e7b3       __unwindfunclet$?OnOrderReq@CLinkManager@@AAEXPAVPMSAOrderReq@@@Z$1 10b4f7b3 f   LinkManagerMsg.obj
 0001:0004e7bb       __unwindfunclet$?OnOrderReq@CLinkManager@@AAEXPAVPMSAOrderReq@@@Z$2 10b4f7bb f   LinkManagerMsg.obj
 0001:0004e7c6       __ehhandler$?OnOrderReq@CLinkManager@@AAEXPAVPMSAOrderReq@@@Z 10b4f7c6 f   LinkManagerMsg.obj
 0001:0004e7ee       __unwindfunclet$?OnPerformReq@CLinkManager@@AAEXPAVPMSAPerformReq@@@Z$0 10b4f7ee f   LinkManagerMsg.obj
 0001:0004e7f6       __ehhandler$?OnPerformReq@CLinkManager@@AAEXPAVPMSAPerformReq@@@Z 10b4f7f6 f   LinkManagerMsg.obj
 0001:0004e811       __unwindfunclet$?OnRegionInfoReq@CLinkManager@@AAEXPAVPMSARegionInfoReq@@@Z$0 10b4f811 f   LinkManagerMsg.obj
 0001:0004e819       __unwindfunclet$?OnRegionInfoReq@CLinkManager@@AAEXPAVPMSARegionInfoReq@@@Z$1 10b4f819 f   LinkManagerMsg.obj
 0001:0004e821       __ehhandler$?OnRegionInfoReq@CLinkManager@@AAEXPAVPMSARegionInfoReq@@@Z 10b4f821 f   LinkManagerMsg.obj
 0001:0004e83c       __unwindfunclet$?OnStatInfoReq@CLinkManager@@AAEXPAVPMSAStatInfoReq@@@Z$0 10b4f83c f   LinkManagerMsg.obj
 0001:0004e844       __unwindfunclet$?OnStatInfoReq@CLinkManager@@AAEXPAVPMSAStatInfoReq@@@Z$1 10b4f844 f   LinkManagerMsg.obj
 0001:0004e84c       __ehhandler$?OnStatInfoReq@CLinkManager@@AAEXPAVPMSAStatInfoReq@@@Z 10b4f84c f   LinkManagerMsg.obj
 0001:0004e867       __unwindfunclet$?SendWarningMsg@CLinkManager@@QAEHKPBD0KK@Z$0 10b4f867 f   LinkManagerMsg.obj
 0001:0004e86f       __unwindfunclet$?SendWarningMsg@CLinkManager@@QAEHKPBD0KK@Z$1 10b4f86f f   LinkManagerMsg.obj
 0001:0004e877       __ehhandler$?SendWarningMsg@CLinkManager@@QAEHKPBD0KK@Z 10b4f877 f   LinkManagerMsg.obj
 0001:0004e892       __unwindfunclet$?OnRegionInfoPCReq@CLinkManager@@AAEXPAVPMSARegionInfoReq@@@Z$0 10b4f892 f   LinkManagerMsg.obj
 0001:0004e89a       __unwindfunclet$?OnRegionInfoPCReq@CLinkManager@@AAEXPAVPMSARegionInfoReq@@@Z$1 10b4f89a f   LinkManagerMsg.obj
 0001:0004e8a2       __ehhandler$?OnRegionInfoPCReq@CLinkManager@@AAEXPAVPMSARegionInfoReq@@@Z 10b4f8a2 f   LinkManagerMsg.obj
 0001:0004e8bd       __unwindfunclet$?OnStatInfoPCReq@CLinkManager@@AAEXPAVPMSAStatInfoReq@@@Z$0 10b4f8bd f   LinkManagerMsg.obj
 0001:0004e8c5       __unwindfunclet$?OnStatInfoPCReq@CLinkManager@@AAEXPAVPMSAStatInfoReq@@@Z$1 10b4f8c5 f   LinkManagerMsg.obj
 0001:0004e8cd       __ehhandler$?OnStatInfoPCReq@CLinkManager@@AAEXPAVPMSAStatInfoReq@@@Z 10b4f8cd f   LinkManagerMsg.obj
 0001:0004e8f0       __unwindfunclet$??0PMSRegionInfo@@QAE@ABV0@@Z$0 10b4f8f0 f   LinkManagerMsg.obj
 0001:0004e8f0       __unwindfunclet$??0PMSRegionInfo@@QAE@XZ$0 10b4f8f0 f   LinkManagerMsg.obj
 0001:0004e8fb       __ehhandler$??0PMSRegionInfo@@QAE@XZ 10b4f8fb f   LinkManagerMsg.obj
 0001:0004e8fb       __ehhandler$??0PMSRegionInfo@@QAE@ABV0@@Z 10b4f8fb f   LinkManagerMsg.obj
 0001:0004e920       __unwindfunclet$??0PMSStatBase@@QAE@XZ$0 10b4f920 f   LinkManagerMsg.obj
 0001:0004e920       __unwindfunclet$??0PMSStatBase@@QAE@ABV0@@Z$0 10b4f920 f   LinkManagerMsg.obj
 0001:0004e92b       __ehhandler$??0PMSStatBase@@QAE@XZ 10b4f92b f   LinkManagerMsg.obj
 0001:0004e92b       __ehhandler$??0PMSStatBase@@QAE@ABV0@@Z 10b4f92b f   LinkManagerMsg.obj
 0001:0004e950       __unwindfunclet$?AddPerformanceInfo@CPMSPerformanceInfo@@UAEXPAV?$vector@JV?$allocator@J@std@@@std@@@Z$0 10b4f950 f   LinkManagerMsg.obj
 0001:0004e958       __ehhandler$?AddPerformanceInfo@CPMSPerformanceInfo@@UAEXPAV?$vector@JV?$allocator@J@std@@@std@@@Z 10b4f958 f   LinkManagerMsg.obj
 0001:0004e980       __unwindfunclet$?clear@?$basic_string@DU?$char_traits@D@std@@V?$allocator@D@2@@std@@QAEXXZ$0 10b4f980 f   LinkManagerMsg.obj
 0001:0004e988       __unwindfunclet$?clear@?$basic_string@DU?$char_traits@D@std@@V?$allocator@D@2@@std@@QAEXXZ$1 10b4f988 f   LinkManagerMsg.obj
 0001:0004e990       __unwindfunclet$?clear@?$basic_string@DU?$char_traits@D@std@@V?$allocator@D@2@@std@@QAEXXZ$2 10b4f990 f   LinkManagerMsg.obj
 0001:0004e998       __ehhandler$?clear@?$basic_string@DU?$char_traits@D@std@@V?$allocator@D@2@@std@@QAEXXZ 10b4f998 f   LinkManagerMsg.obj
 0001:0004e9c0       __unwindfunclet$?erase@?$basic_string@DU?$char_traits@D@std@@V?$allocator@D@2@@std@@QAE?AV?$_String_iterator@DU?$char_traits@D@std@@V?$allocator@D@2@@2@V?$_String_const_iterator@DU?$char_traits@D@std@@V?$allocator@D@2@@2@0@Z$0 10b4f9c0 f   LinkManagerMsg.obj
 0001:0004e9c8       __unwindfunclet$?erase@?$basic_string@DU?$char_traits@D@std@@V?$allocator@D@2@@std@@QAE?AV?$_String_iterator@DU?$char_traits@D@std@@V?$allocator@D@2@@2@V?$_String_const_iterator@DU?$char_traits@D@std@@V?$allocator@D@2@@2@0@Z$1 10b4f9c8 f   LinkManagerMsg.obj
 0001:0004e9d0       __unwindfunclet$?erase@?$basic_string@DU?$char_traits@D@std@@V?$allocator@D@2@@std@@QAE?AV?$_String_iterator@DU?$char_traits@D@std@@V?$allocator@D@2@@2@V?$_String_const_iterator@DU?$char_traits@D@std@@V?$allocator@D@2@@2@0@Z$2 10b4f9d0 f   LinkManagerMsg.obj
 0001:0004e9d8       __unwindfunclet$?erase@?$basic_string@DU?$char_traits@D@std@@V?$allocator@D@2@@std@@QAE?AV?$_String_iterator@DU?$char_traits@D@std@@V?$allocator@D@2@@2@V?$_String_const_iterator@DU?$char_traits@D@std@@V?$allocator@D@2@@2@0@Z$3 10b4f9d8 f   LinkManagerMsg.obj
 0001:0004e9e0       __unwindfunclet$?erase@?$basic_string@DU?$char_traits@D@std@@V?$allocator@D@2@@std@@QAE?AV?$_String_iterator@DU?$char_traits@D@std@@V?$allocator@D@2@@2@V?$_String_const_iterator@DU?$char_traits@D@std@@V?$allocator@D@2@@2@0@Z$5 10b4f9e0 f   LinkManagerMsg.obj
 0001:0004e9e8       __unwindfunclet$?erase@?$basic_string@DU?$char_traits@D@std@@V?$allocator@D@2@@std@@QAE?AV?$_String_iterator@DU?$char_traits@D@std@@V?$allocator@D@2@@2@V?$_String_const_iterator@DU?$char_traits@D@std@@V?$allocator@D@2@@2@0@Z$7 10b4f9e8 f   LinkManagerMsg.obj
 0001:0004ea01       __ehhandler$?erase@?$basic_string@DU?$char_traits@D@std@@V?$allocator@D@2@@std@@QAE?AV?$_String_iterator@DU?$char_traits@D@std@@V?$allocator@D@2@@2@V?$_String_const_iterator@DU?$char_traits@D@std@@V?$allocator@D@2@@2@0@Z 10b4fa01 f   LinkManagerMsg.obj
 0001:0004ea20       __unwindfunclet$?insert@?$vector@JV?$allocator@J@std@@@std@@QAE?AV?$_Vector_iterator@JV?$allocator@J@std@@@2@V?$_Vector_const_iterator@JV?$allocator@J@std@@@2@ABJ@Z$0 10b4fa20 f   LinkManagerMsg.obj
 0001:0004ea20       __unwindfunclet$?insert@?$vector@VPMSNSAP@@V?$allocator@VPMSNSAP@@@std@@@std@@QAE?AV?$_Vector_iterator@VPMSNSAP@@V?$allocator@VPMSNSAP@@@std@@@2@V?$_Vector_const_iterator@VPMSNSAP@@V?$allocator@VPMSNSAP@@@std@@@2@ABVPMSNSAP@@@Z$0 10b4fa20 f   LinkManagerMsg.obj
 0001:0004ea20       __unwindfunclet$?insert@?$vector@PAXV?$allocator@PAX@std@@@std@@QAE?AV?$_Vector_iterator@PAXV?$allocator@PAX@std@@@2@V?$_Vector_const_iterator@PAXV?$allocator@PAX@std@@@2@ABQAX@Z$0 10b4fa20 f   LinkManagerMsg.obj
 0001:0004ea20       __unwindfunclet$?insert@?$vector@VPMSRegionInfo@@V?$allocator@VPMSRegionInfo@@@std@@@std@@QAE?AV?$_Vector_iterator@VPMSRegionInfo@@V?$allocator@VPMSRegionInfo@@@std@@@2@V?$_Vector_const_iterator@VPMSRegionInfo@@V?$allocator@VPMSRegionInfo@@@std@@@2@ABVPMSRegionInfo@@@Z$0 10b4fa20 f   LinkManagerMsg.obj
 0001:0004ea20       __unwindfunclet$?insert@?$vector@PAVGSyncObj@@V?$allocator@PAVGSyncObj@@@std@@@std@@QAE?AV?$_Vector_iterator@PAVGSyncObj@@V?$allocator@PAVGSyncObj@@@std@@@2@V?$_Vector_const_iterator@PAVGSyncObj@@V?$allocator@PAVGSyncObj@@@std@@@2@ABQAVGSyncObj@@@Z$0 10b4fa20 f   LinkManagerMsg.obj
 0001:0004ea20       __unwindfunclet$?insert@?$vector@VPMSStatBase@@V?$allocator@VPMSStatBase@@@std@@@std@@QAE?AV?$_Vector_iterator@VPMSStatBase@@V?$allocator@VPMSStatBase@@@std@@@2@V?$_Vector_const_iterator@VPMSStatBase@@V?$allocator@VPMSStatBase@@@std@@@2@ABVPMSStatBase@@@Z$0 10b4fa20 f   LinkManagerMsg.obj
 0001:0004ea28       __unwindfunclet$?insert@?$vector@VPMSRegionInfo@@V?$allocator@VPMSRegionInfo@@@std@@@std@@QAE?AV?$_Vector_iterator@VPMSRegionInfo@@V?$allocator@VPMSRegionInfo@@@std@@@2@V?$_Vector_const_iterator@VPMSRegionInfo@@V?$allocator@VPMSRegionInfo@@@std@@@2@ABVPMSRegionInfo@@@Z$1 10b4fa28 f   LinkManagerMsg.obj
 0001:0004ea28       __unwindfunclet$?insert@?$vector@PAVGSyncObj@@V?$allocator@PAVGSyncObj@@@std@@@std@@QAE?AV?$_Vector_iterator@PAVGSyncObj@@V?$allocator@PAVGSyncObj@@@std@@@2@V?$_Vector_const_iterator@PAVGSyncObj@@V?$allocator@PAVGSyncObj@@@std@@@2@ABQAVGSyncObj@@@Z$1 10b4fa28 f   LinkManagerMsg.obj
 0001:0004ea28       __unwindfunclet$?insert@?$vector@JV?$allocator@J@std@@@std@@QAE?AV?$_Vector_iterator@JV?$allocator@J@std@@@2@V?$_Vector_const_iterator@JV?$allocator@J@std@@@2@ABJ@Z$1 10b4fa28 f   LinkManagerMsg.obj
 0001:0004ea28       __unwindfunclet$?insert@?$vector@PAXV?$allocator@PAX@std@@@std@@QAE?AV?$_Vector_iterator@PAXV?$allocator@PAX@std@@@2@V?$_Vector_const_iterator@PAXV?$allocator@PAX@std@@@2@ABQAX@Z$1 10b4fa28 f   LinkManagerMsg.obj
 0001:0004ea28       __unwindfunclet$?insert@?$vector@VPMSNSAP@@V?$allocator@VPMSNSAP@@@std@@@std@@QAE?AV?$_Vector_iterator@VPMSNSAP@@V?$allocator@VPMSNSAP@@@std@@@2@V?$_Vector_const_iterator@VPMSNSAP@@V?$allocator@VPMSNSAP@@@std@@@2@ABVPMSNSAP@@@Z$1 10b4fa28 f   LinkManagerMsg.obj
 0001:0004ea28       __unwindfunclet$?insert@?$vector@VPMSStatBase@@V?$allocator@VPMSStatBase@@@std@@@std@@QAE?AV?$_Vector_iterator@VPMSStatBase@@V?$allocator@VPMSStatBase@@@std@@@2@V?$_Vector_const_iterator@VPMSStatBase@@V?$allocator@VPMSStatBase@@@std@@@2@ABVPMSStatBase@@@Z$1 10b4fa28 f   LinkManagerMsg.obj
 0001:0004ea41       __unwindfunclet$?insert@?$vector@VPMSNSAP@@V?$allocator@VPMSNSAP@@@std@@@std@@QAE?AV?$_Vector_iterator@VPMSNSAP@@V?$allocator@VPMSNSAP@@@std@@@2@V?$_Vector_const_iterator@VPMSNSAP@@V?$allocator@VPMSNSAP@@@std@@@2@ABVPMSNSAP@@@Z$3 10b4fa41 f   LinkManagerMsg.obj
 0001:0004ea41       __unwindfunclet$?insert@?$vector@VPMSRegionInfo@@V?$allocator@VPMSRegionInfo@@@std@@@std@@QAE?AV?$_Vector_iterator@VPMSRegionInfo@@V?$allocator@VPMSRegionInfo@@@std@@@2@V?$_Vector_const_iterator@VPMSRegionInfo@@V?$allocator@VPMSRegionInfo@@@std@@@2@ABVPMSRegionInfo@@@Z$3 10b4fa41 f   LinkManagerMsg.obj
 0001:0004ea41       __unwindfunclet$?insert@?$vector@JV?$allocator@J@std@@@std@@QAE?AV?$_Vector_iterator@JV?$allocator@J@std@@@2@V?$_Vector_const_iterator@JV?$allocator@J@std@@@2@ABJ@Z$3 10b4fa41 f   LinkManagerMsg.obj
 0001:0004ea41       __unwindfunclet$?insert@?$vector@PAXV?$allocator@PAX@std@@@std@@QAE?AV?$_Vector_iterator@PAXV?$allocator@PAX@std@@@2@V?$_Vector_const_iterator@PAXV?$allocator@PAX@std@@@2@ABQAX@Z$3 10b4fa41 f   LinkManagerMsg.obj
 0001:0004ea41       __unwindfunclet$?insert@?$vector@VPMSStatBase@@V?$allocator@VPMSStatBase@@@std@@@std@@QAE?AV?$_Vector_iterator@VPMSStatBase@@V?$allocator@VPMSStatBase@@@std@@@2@V?$_Vector_const_iterator@VPMSStatBase@@V?$allocator@VPMSStatBase@@@std@@@2@ABVPMSStatBase@@@Z$3 10b4fa41 f   LinkManagerMsg.obj
 0001:0004ea41       __unwindfunclet$?insert@?$vector@PAVGSyncObj@@V?$allocator@PAVGSyncObj@@@std@@@std@@QAE?AV?$_Vector_iterator@PAVGSyncObj@@V?$allocator@PAVGSyncObj@@@std@@@2@V?$_Vector_const_iterator@PAVGSyncObj@@V?$allocator@PAVGSyncObj@@@std@@@2@ABQAVGSyncObj@@@Z$3 10b4fa41 f   LinkManagerMsg.obj
 0001:0004ea49       __unwindfunclet$?insert@?$vector@VPMSRegionInfo@@V?$allocator@VPMSRegionInfo@@@std@@@std@@QAE?AV?$_Vector_iterator@VPMSRegionInfo@@V?$allocator@VPMSRegionInfo@@@std@@@2@V?$_Vector_const_iterator@VPMSRegionInfo@@V?$allocator@VPMSRegionInfo@@@std@@@2@ABVPMSRegionInfo@@@Z$4 10b4fa49 f   LinkManagerMsg.obj
 0001:0004ea49       __unwindfunclet$?insert@?$vector@VPMSNSAP@@V?$allocator@VPMSNSAP@@@std@@@std@@QAE?AV?$_Vector_iterator@VPMSNSAP@@V?$allocator@VPMSNSAP@@@std@@@2@V?$_Vector_const_iterator@VPMSNSAP@@V?$allocator@VPMSNSAP@@@std@@@2@ABVPMSNSAP@@@Z$4 10b4fa49 f   LinkManagerMsg.obj
 0001:0004ea49       __unwindfunclet$?insert@?$vector@PAVGSyncObj@@V?$allocator@PAVGSyncObj@@@std@@@std@@QAE?AV?$_Vector_iterator@PAVGSyncObj@@V?$allocator@PAVGSyncObj@@@std@@@2@V?$_Vector_const_iterator@PAVGSyncObj@@V?$allocator@PAVGSyncObj@@@std@@@2@ABQAVGSyncObj@@@Z$4 10b4fa49 f   LinkManagerMsg.obj
 0001:0004ea49       __unwindfunclet$?insert@?$vector@PAXV?$allocator@PAX@std@@@std@@QAE?AV?$_Vector_iterator@PAXV?$allocator@PAX@std@@@2@V?$_Vector_const_iterator@PAXV?$allocator@PAX@std@@@2@ABQAX@Z$4 10b4fa49 f   LinkManagerMsg.obj
 0001:0004ea49       __unwindfunclet$?insert@?$vector@VPMSStatBase@@V?$allocator@VPMSStatBase@@@std@@@std@@QAE?AV?$_Vector_iterator@VPMSStatBase@@V?$allocator@VPMSStatBase@@@std@@@2@V?$_Vector_const_iterator@VPMSStatBase@@V?$allocator@VPMSStatBase@@@std@@@2@ABVPMSStatBase@@@Z$4 10b4fa49 f   LinkManagerMsg.obj
 0001:0004ea49       __unwindfunclet$?insert@?$vector@JV?$allocator@J@std@@@std@@QAE?AV?$_Vector_iterator@JV?$allocator@J@std@@@2@V?$_Vector_const_iterator@JV?$allocator@J@std@@@2@ABJ@Z$4 10b4fa49 f   LinkManagerMsg.obj
 0001:0004ea62       __ehhandler$?insert@?$vector@VPMSNSAP@@V?$allocator@VPMSNSAP@@@std@@@std@@QAE?AV?$_Vector_iterator@VPMSNSAP@@V?$allocator@VPMSNSAP@@@std@@@2@V?$_Vector_const_iterator@VPMSNSAP@@V?$allocator@VPMSNSAP@@@std@@@2@ABVPMSNSAP@@@Z 10b4fa62 f   LinkManagerMsg.obj
 0001:0004ea62       __ehhandler$?insert@?$vector@VPMSStatBase@@V?$allocator@VPMSStatBase@@@std@@@std@@QAE?AV?$_Vector_iterator@VPMSStatBase@@V?$allocator@VPMSStatBase@@@std@@@2@V?$_Vector_const_iterator@VPMSStatBase@@V?$allocator@VPMSStatBase@@@std@@@2@ABVPMSStatBase@@@Z 10b4fa62 f   LinkManagerMsg.obj
 0001:0004ea62       __ehhandler$?insert@?$vector@PAXV?$allocator@PAX@std@@@std@@QAE?AV?$_Vector_iterator@PAXV?$allocator@PAX@std@@@2@V?$_Vector_const_iterator@PAXV?$allocator@PAX@std@@@2@ABQAX@Z 10b4fa62 f   LinkManagerMsg.obj
 0001:0004ea62       __ehhandler$?insert@?$vector@PAVGSyncObj@@V?$allocator@PAVGSyncObj@@@std@@@std@@QAE?AV?$_Vector_iterator@PAVGSyncObj@@V?$allocator@PAVGSyncObj@@@std@@@2@V?$_Vector_const_iterator@PAVGSyncObj@@V?$allocator@PAVGSyncObj@@@std@@@2@ABQAVGSyncObj@@@Z 10b4fa62 f   LinkManagerMsg.obj
 0001:0004ea62       __ehhandler$?insert@?$vector@VPMSRegionInfo@@V?$allocator@VPMSRegionInfo@@@std@@@std@@QAE?AV?$_Vector_iterator@VPMSRegionInfo@@V?$allocator@VPMSRegionInfo@@@std@@@2@V?$_Vector_const_iterator@VPMSRegionInfo@@V?$allocator@VPMSRegionInfo@@@std@@@2@ABVPMSRegionInfo@@@Z 10b4fa62 f   LinkManagerMsg.obj
 0001:0004ea62       __ehhandler$?insert@?$vector@JV?$allocator@J@std@@@std@@QAE?AV?$_Vector_iterator@JV?$allocator@J@std@@@2@V?$_Vector_const_iterator@JV?$allocator@J@std@@@2@ABJ@Z 10b4fa62 f   LinkManagerMsg.obj
 0001:0004ea80       __unwindfunclet$?_Pdif@?$basic_string@DU?$char_traits@D@std@@V?$allocator@D@2@@std@@KAIV?$_String_const_iterator@DU?$char_traits@D@std@@V?$allocator@D@2@@2@0@Z$0 10b4fa80 f   LinkManagerMsg.obj
 0001:0004ea88       __unwindfunclet$?_Pdif@?$basic_string@DU?$char_traits@D@std@@V?$allocator@D@2@@std@@KAIV?$_String_const_iterator@DU?$char_traits@D@std@@V?$allocator@D@2@@2@0@Z$1 10b4fa88 f   LinkManagerMsg.obj
 0001:0004ea90       __ehhandler$?_Pdif@?$basic_string@DU?$char_traits@D@std@@V?$allocator@D@2@@std@@KAIV?$_String_const_iterator@DU?$char_traits@D@std@@V?$allocator@D@2@@2@0@Z 10b4fa90 f   LinkManagerMsg.obj
 0001:0004eab0       __unwindfunclet$?_Insert_n@?$vector@VPMSStatBase@@V?$allocator@VPMSStatBase@@@std@@@std@@IAEXV?$_Vector_const_iterator@VPMSStatBase@@V?$allocator@VPMSStatBase@@@std@@@2@IABVPMSStatBase@@@Z$4 10b4fab0 f   LinkManagerMsg.obj
 0001:0004eab8       __unwindfunclet$?_Insert_n@?$vector@VPMSStatBase@@V?$allocator@VPMSStatBase@@@std@@@std@@IAEXV?$_Vector_const_iterator@VPMSStatBase@@V?$allocator@VPMSStatBase@@@std@@@2@IABVPMSStatBase@@@Z$5 10b4fab8 f   LinkManagerMsg.obj
 0001:0004eac0       __unwindfunclet$?_Insert_n@?$vector@VPMSStatBase@@V?$allocator@VPMSStatBase@@@std@@@std@@IAEXV?$_Vector_const_iterator@VPMSStatBase@@V?$allocator@VPMSStatBase@@@std@@@2@IABVPMSStatBase@@@Z$6 10b4fac0 f   LinkManagerMsg.obj
 0001:0004eacb       __ehhandler$?_Insert_n@?$vector@VPMSStatBase@@V?$allocator@VPMSStatBase@@@std@@@std@@IAEXV?$_Vector_const_iterator@VPMSStatBase@@V?$allocator@VPMSStatBase@@@std@@@2@IABVPMSStatBase@@@Z 10b4facb f   LinkManagerMsg.obj
 0001:0004eb00       __unwindfunclet$?_Insert_n@?$vector@VPMSRegionInfo@@V?$allocator@VPMSRegionInfo@@@std@@@std@@IAEXV?$_Vector_const_iterator@VPMSRegionInfo@@V?$allocator@VPMSRegionInfo@@@std@@@2@IABVPMSRegionInfo@@@Z$4 10b4fb00 f   LinkManagerMsg.obj
 0001:0004eb08       __unwindfunclet$?_Insert_n@?$vector@VPMSRegionInfo@@V?$allocator@VPMSRegionInfo@@@std@@@std@@IAEXV?$_Vector_const_iterator@VPMSRegionInfo@@V?$allocator@VPMSRegionInfo@@@std@@@2@IABVPMSRegionInfo@@@Z$5 10b4fb08 f   LinkManagerMsg.obj
 0001:0004eb10       __unwindfunclet$?_Insert_n@?$vector@VPMSRegionInfo@@V?$allocator@VPMSRegionInfo@@@std@@@std@@IAEXV?$_Vector_const_iterator@VPMSRegionInfo@@V?$allocator@VPMSRegionInfo@@@std@@@2@IABVPMSRegionInfo@@@Z$6 10b4fb10 f   LinkManagerMsg.obj
 0001:0004eb18       __ehhandler$?_Insert_n@?$vector@VPMSRegionInfo@@V?$allocator@VPMSRegionInfo@@@std@@@std@@IAEXV?$_Vector_const_iterator@VPMSRegionInfo@@V?$allocator@VPMSRegionInfo@@@std@@@2@IABVPMSRegionInfo@@@Z 10b4fb18 f   LinkManagerMsg.obj
 0001:0004eb40       __unwindfunclet$??H?$_Vector_iterator@JV?$allocator@J@std@@@std@@QBE?AV01@H@Z$0 10b4fb40 f   LinkManagerMsg.obj
 0001:0004eb40       __unwindfunclet$??H?$_Vector_iterator@VPMSNSAP@@V?$allocator@VPMSNSAP@@@std@@@std@@QBE?AV01@H@Z$0 10b4fb40 f   LinkManagerMsg.obj
 0001:0004eb40       __unwindfunclet$??H?$_Vector_iterator@VPMSRegionInfo@@V?$allocator@VPMSRegionInfo@@@std@@@std@@QBE?AV01@H@Z$0 10b4fb40 f   LinkManagerMsg.obj
 0001:0004eb40       __unwindfunclet$??H?$_Vector_iterator@PAVGSyncObj@@V?$allocator@PAVGSyncObj@@@std@@@std@@QBE?AV01@H@Z$0 10b4fb40 f   LinkManagerMsg.obj
 0001:0004eb40       __unwindfunclet$??H?$_Vector_iterator@VPMSStatBase@@V?$allocator@VPMSStatBase@@@std@@@std@@QBE?AV01@H@Z$0 10b4fb40 f   LinkManagerMsg.obj
 0001:0004eb40       __unwindfunclet$??G?$_Vector_iterator@JV?$allocator@J@std@@@std@@QBE?AV01@H@Z$0 10b4fb40 f   LinkManagerMsg.obj
 0001:0004eb40       __unwindfunclet$??H?$_Vector_iterator@PAXV?$allocator@PAX@std@@@std@@QBE?AV01@H@Z$0 10b4fb40 f   LinkManagerMsg.obj
 0001:0004eb48       __unwindfunclet$??H?$_Vector_iterator@VPMSStatBase@@V?$allocator@VPMSStatBase@@@std@@@std@@QBE?AV01@H@Z$1 10b4fb48 f   LinkManagerMsg.obj
 0001:0004eb48       __unwindfunclet$??H?$_Vector_iterator@VPMSNSAP@@V?$allocator@VPMSNSAP@@@std@@@std@@QBE?AV01@H@Z$1 10b4fb48 f   LinkManagerMsg.obj
 0001:0004eb48       __unwindfunclet$??H?$_Vector_iterator@PAVGSyncObj@@V?$allocator@PAVGSyncObj@@@std@@@std@@QBE?AV01@H@Z$1 10b4fb48 f   LinkManagerMsg.obj
 0001:0004eb48       __unwindfunclet$??H?$_Vector_iterator@JV?$allocator@J@std@@@std@@QBE?AV01@H@Z$1 10b4fb48 f   LinkManagerMsg.obj
 0001:0004eb48       __unwindfunclet$??G?$_Vector_iterator@JV?$allocator@J@std@@@std@@QBE?AV01@H@Z$1 10b4fb48 f   LinkManagerMsg.obj
 0001:0004eb48       __unwindfunclet$??H?$_Vector_iterator@VPMSRegionInfo@@V?$allocator@VPMSRegionInfo@@@std@@@std@@QBE?AV01@H@Z$1 10b4fb48 f   LinkManagerMsg.obj
 0001:0004eb48       __unwindfunclet$??H?$_Vector_iterator@PAXV?$allocator@PAX@std@@@std@@QBE?AV01@H@Z$1 10b4fb48 f   LinkManagerMsg.obj
 0001:0004eb61       __ehhandler$??H?$_Vector_iterator@JV?$allocator@J@std@@@std@@QBE?AV01@H@Z 10b4fb61 f   LinkManagerMsg.obj
 0001:0004eb61       __ehhandler$??H?$_Vector_iterator@PAVGSyncObj@@V?$allocator@PAVGSyncObj@@@std@@@std@@QBE?AV01@H@Z 10b4fb61 f   LinkManagerMsg.obj
 0001:0004eb61       __ehhandler$??H?$_Vector_iterator@PAXV?$allocator@PAX@std@@@std@@QBE?AV01@H@Z 10b4fb61 f   LinkManagerMsg.obj
 0001:0004eb61       __ehhandler$??H?$_Vector_iterator@VPMSNSAP@@V?$allocator@VPMSNSAP@@@std@@@std@@QBE?AV01@H@Z 10b4fb61 f   LinkManagerMsg.obj
 0001:0004eb61       __ehhandler$??G?$_Vector_iterator@JV?$allocator@J@std@@@std@@QBE?AV01@H@Z 10b4fb61 f   LinkManagerMsg.obj
 0001:0004eb61       __ehhandler$??H?$_Vector_iterator@VPMSStatBase@@V?$allocator@VPMSStatBase@@@std@@@std@@QBE?AV01@H@Z 10b4fb61 f   LinkManagerMsg.obj
 0001:0004eb61       __ehhandler$??H?$_Vector_iterator@VPMSRegionInfo@@V?$allocator@VPMSRegionInfo@@@std@@@std@@QBE?AV01@H@Z 10b4fb61 f   LinkManagerMsg.obj
 0001:0004eb80       __unwindfunclet$??0?$_String_const_iterator@DU?$char_traits@D@std@@V?$allocator@D@2@@std@@QAE@PBDPBV_Container_base_secure@1@@Z$0 10b4fb80 f   LinkManagerMsg.obj
 0001:0004eb88       __ehhandler$??0?$_String_const_iterator@DU?$char_traits@D@std@@V?$allocator@D@2@@std@@QAE@PBDPBV_Container_base_secure@1@@Z 10b4fb88 f   LinkManagerMsg.obj
 0001:0004ebb0       __unwindfunclet$??$assign@V?$_Vector_iterator@JV?$allocator@J@std@@@std@@@?$vector@JV?$allocator@J@std@@@std@@QAEXV?$_Vector_iterator@JV?$allocator@J@std@@@1@0@Z$0 10b4fbb0 f   LinkManagerMsg.obj
 0001:0004ebb8       __unwindfunclet$??$assign@V?$_Vector_iterator@JV?$allocator@J@std@@@std@@@?$vector@JV?$allocator@J@std@@@std@@QAEXV?$_Vector_iterator@JV?$allocator@J@std@@@1@0@Z$1 10b4fbb8 f   LinkManagerMsg.obj
 0001:0004ebc0       __unwindfunclet$??$assign@V?$_Vector_iterator@JV?$allocator@J@std@@@std@@@?$vector@JV?$allocator@J@std@@@std@@QAEXV?$_Vector_iterator@JV?$allocator@J@std@@@1@0@Z$2 10b4fbc0 f   LinkManagerMsg.obj
 0001:0004ebc8       __ehhandler$??$assign@V?$_Vector_iterator@JV?$allocator@J@std@@@std@@@?$vector@JV?$allocator@J@std@@@std@@QAEXV?$_Vector_iterator@JV?$allocator@J@std@@@1@0@Z 10b4fbc8 f   LinkManagerMsg.obj
 0001:0004ebf0       __unwindfunclet$??$?0VPMSAAnnounceAns@@@PayloadHA@@QAE@IABVPMSAAnnounceAns@@@Z$0 10b4fbf0 f   LinkManagerMsg.obj
 0001:0004ebf0       __unwindfunclet$??$?0VPMSAHeartBeatAns@@@PayloadHA@@QAE@IABVPMSAHeartBeatAns@@@Z$0 10b4fbf0 f   LinkManagerMsg.obj
 0001:0004ebfb       __ehhandler$??$?0VPMSAHeartBeatAns@@@PayloadHA@@QAE@IABVPMSAHeartBeatAns@@@Z 10b4fbfb f   LinkManagerMsg.obj
 0001:0004ebfb       __ehhandler$??$?0VPMSAAnnounceAns@@@PayloadHA@@QAE@IABVPMSAAnnounceAns@@@Z 10b4fbfb f   LinkManagerMsg.obj
 0001:0004ec20       __unwindfunclet$?BCopy@?$ArcVectorT@J@@QAEXABV1@@Z$0 10b4fc20 f   LinkManagerMsg.obj
 0001:0004ec28       __unwindfunclet$?BCopy@?$ArcVectorT@J@@QAEXABV1@@Z$1 10b4fc28 f   LinkManagerMsg.obj
 0001:0004ec30       __unwindfunclet$?BCopy@?$ArcVectorT@J@@QAEXABV1@@Z$2 10b4fc30 f   LinkManagerMsg.obj
 0001:0004ec38       __ehhandler$?BCopy@?$ArcVectorT@J@@QAEXABV1@@Z 10b4fc38 f   LinkManagerMsg.obj
 0001:0004ec60       __unwindfunclet$?back@?$vector@JV?$allocator@J@std@@@std@@QAEAAJXZ$0 10b4fc60 f   LinkManagerMsg.obj
 0001:0004ec68       __unwindfunclet$?back@?$vector@JV?$allocator@J@std@@@std@@QAEAAJXZ$1 10b4fc68 f   LinkManagerMsg.obj
 0001:0004ec70       __ehhandler$?back@?$vector@JV?$allocator@J@std@@@std@@QAEAAJXZ 10b4fc70 f   LinkManagerMsg.obj
 0001:0004ec90       __unwindfunclet$?Push@GSafeBufQ@@QAEXABVGBuf@@@Z$0 10b4fc90 f   LinkManagerMsg.obj
 0001:0004ec98       __ehhandler$?Push@GSafeBufQ@@QAEXABVGBuf@@@Z 10b4fc98 f   LinkManagerMsg.obj
 0001:0004ecc0       __unwindfunclet$?_Insert_n@?$vector@PAVGSyncObj@@V?$allocator@PAVGSyncObj@@@std@@@std@@IAEXV?$_Vector_const_iterator@PAVGSyncObj@@V?$allocator@PAVGSyncObj@@@std@@@2@IABQAVGSyncObj@@@Z$4 10b4fcc0 f   LinkManagerMsg.obj
 0001:0004ecc0       __unwindfunclet$?_Insert_n@?$vector@PAXV?$allocator@PAX@std@@@std@@IAEXV?$_Vector_const_iterator@PAXV?$allocator@PAX@std@@@2@IABQAX@Z$4 10b4fcc0 f   LinkManagerMsg.obj
 0001:0004ecc0       __unwindfunclet$?_Insert_n@?$vector@JV?$allocator@J@std@@@std@@IAEXV?$_Vector_const_iterator@JV?$allocator@J@std@@@2@IABJ@Z$4 10b4fcc0 f   LinkManagerMsg.obj
 0001:0004ecc8       __ehhandler$?_Insert_n@?$vector@PAVGSyncObj@@V?$allocator@PAVGSyncObj@@@std@@@std@@IAEXV?$_Vector_const_iterator@PAVGSyncObj@@V?$allocator@PAVGSyncObj@@@std@@@2@IABQAVGSyncObj@@@Z 10b4fcc8 f   LinkManagerMsg.obj
 0001:0004ecc8       __ehhandler$?_Insert_n@?$vector@PAXV?$allocator@PAX@std@@@std@@IAEXV?$_Vector_const_iterator@PAXV?$allocator@PAX@std@@@2@IABQAX@Z 10b4fcc8 f   LinkManagerMsg.obj
 0001:0004ecc8       __ehhandler$?_Insert_n@?$vector@JV?$allocator@J@std@@@std@@IAEXV?$_Vector_const_iterator@JV?$allocator@J@std@@@2@IABJ@Z 10b4fcc8 f   LinkManagerMsg.obj
 0001:0004ecf0       __unwindfunclet$??$_Assign@V?$_Vector_iterator@JV?$allocator@J@std@@@std@@@?$vector@JV?$allocator@J@std@@@std@@QAEXV?$_Vector_iterator@JV?$allocator@J@std@@@1@0Uinput_iterator_tag@1@@Z$0 10b4fcf0 f   LinkManagerMsg.obj
 0001:0004ecf8       __unwindfunclet$??$_Assign@V?$_Vector_iterator@JV?$allocator@J@std@@@std@@@?$vector@JV?$allocator@J@std@@@std@@QAEXV?$_Vector_iterator@JV?$allocator@J@std@@@1@0Uinput_iterator_tag@1@@Z$1 10b4fcf8 f   LinkManagerMsg.obj
 0001:0004ed00       __unwindfunclet$??$_Assign@V?$_Vector_iterator@JV?$allocator@J@std@@@std@@@?$vector@JV?$allocator@J@std@@@std@@QAEXV?$_Vector_iterator@JV?$allocator@J@std@@@1@0Uinput_iterator_tag@1@@Z$2 10b4fd00 f   LinkManagerMsg.obj
 0001:0004ed08       __unwindfunclet$??$_Assign@V?$_Vector_iterator@JV?$allocator@J@std@@@std@@@?$vector@JV?$allocator@J@std@@@std@@QAEXV?$_Vector_iterator@JV?$allocator@J@std@@@1@0Uinput_iterator_tag@1@@Z$3 10b4fd08 f   LinkManagerMsg.obj
 0001:0004ed10       __unwindfunclet$??$_Assign@V?$_Vector_iterator@JV?$allocator@J@std@@@std@@@?$vector@JV?$allocator@J@std@@@std@@QAEXV?$_Vector_iterator@JV?$allocator@J@std@@@1@0Uinput_iterator_tag@1@@Z$4 10b4fd10 f   LinkManagerMsg.obj
 0001:0004ed18       __unwindfunclet$??$_Assign@V?$_Vector_iterator@JV?$allocator@J@std@@@std@@@?$vector@JV?$allocator@J@std@@@std@@QAEXV?$_Vector_iterator@JV?$allocator@J@std@@@1@0Uinput_iterator_tag@1@@Z$7 10b4fd18 f   LinkManagerMsg.obj
 0001:0004ed20       __unwindfunclet$??$_Assign@V?$_Vector_iterator@JV?$allocator@J@std@@@std@@@?$vector@JV?$allocator@J@std@@@std@@QAEXV?$_Vector_iterator@JV?$allocator@J@std@@@1@0Uinput_iterator_tag@1@@Z$8 10b4fd20 f   LinkManagerMsg.obj
 0001:0004ed28       __unwindfunclet$??$_Assign@V?$_Vector_iterator@JV?$allocator@J@std@@@std@@@?$vector@JV?$allocator@J@std@@@std@@QAEXV?$_Vector_iterator@JV?$allocator@J@std@@@1@0Uinput_iterator_tag@1@@Z$9 10b4fd28 f   LinkManagerMsg.obj
 0001:0004ed30       __ehhandler$??$_Assign@V?$_Vector_iterator@JV?$allocator@J@std@@@std@@@?$vector@JV?$allocator@J@std@@@std@@QAEXV?$_Vector_iterator@JV?$allocator@J@std@@@1@0Uinput_iterator_tag@1@@Z 10b4fd30 f   LinkManagerMsg.obj
 0001:0004ed50       __unwindfunclet$??$_Assign@PAJ@?$vector@JV?$allocator@J@std@@@std@@QAEXPAJ0Uinput_iterator_tag@1@@Z$0 10b4fd50 f   LinkManagerMsg.obj
 0001:0004ed58       __unwindfunclet$??$_Assign@PAJ@?$vector@JV?$allocator@J@std@@@std@@QAEXPAJ0Uinput_iterator_tag@1@@Z$1 10b4fd58 f   LinkManagerMsg.obj
 0001:0004ed60       __unwindfunclet$??$_Assign@PAJ@?$vector@JV?$allocator@J@std@@@std@@QAEXPAJ0Uinput_iterator_tag@1@@Z$2 10b4fd60 f   LinkManagerMsg.obj
 0001:0004ed68       __unwindfunclet$??$_Assign@PAJ@?$vector@JV?$allocator@J@std@@@std@@QAEXPAJ0Uinput_iterator_tag@1@@Z$5 10b4fd68 f   LinkManagerMsg.obj
 0001:0004ed70       __ehhandler$??$_Assign@PAJ@?$vector@JV?$allocator@J@std@@@std@@QAEXPAJ0Uinput_iterator_tag@1@@Z 10b4fd70 f   LinkManagerMsg.obj
 0001:0004ed90       __ehhandler$??$_Uninit_fill_n@PAVPMSStatBase@@IV1@V?$allocator@VPMSStatBase@@@std@@@std@@YAXPAVPMSStatBase@@IABV1@AAV?$allocator@VPMSStatBase@@@0@U_Nonscalar_ptr_iterator_tag@0@U_Range_checked_iterator_tag@0@@Z 10b4fd90 f   LinkManagerMsg.obj
 0001:0004edb0       __ehhandler$??$_Uninit_fill_n@PAVPMSRegionInfo@@IV1@V?$allocator@VPMSRegionInfo@@@std@@@std@@YAXPAVPMSRegionInfo@@IABV1@AAV?$allocator@VPMSRegionInfo@@@0@U_Nonscalar_ptr_iterator_tag@0@U_Range_checked_iterator_tag@0@@Z 10b4fdb0 f   LinkManagerMsg.obj
 0001:0004edd0       __unwindfunclet$??$insert@V?$_Vector_iterator@JV?$allocator@J@std@@@std@@@?$vector@JV?$allocator@J@std@@@std@@QAEXV?$_Vector_const_iterator@JV?$allocator@J@std@@@1@V?$_Vector_iterator@JV?$allocator@J@std@@@1@1@Z$0 10b4fdd0 f   LinkManagerMsg.obj
 0001:0004edd8       __unwindfunclet$??$insert@V?$_Vector_iterator@JV?$allocator@J@std@@@std@@@?$vector@JV?$allocator@J@std@@@std@@QAEXV?$_Vector_const_iterator@JV?$allocator@J@std@@@1@V?$_Vector_iterator@JV?$allocator@J@std@@@1@1@Z$1 10b4fdd8 f   LinkManagerMsg.obj
 0001:0004ede0       __unwindfunclet$??$insert@V?$_Vector_iterator@JV?$allocator@J@std@@@std@@@?$vector@JV?$allocator@J@std@@@std@@QAEXV?$_Vector_const_iterator@JV?$allocator@J@std@@@1@V?$_Vector_iterator@JV?$allocator@J@std@@@1@1@Z$2 10b4fde0 f   LinkManagerMsg.obj
 0001:0004ede8       __unwindfunclet$??$insert@V?$_Vector_iterator@JV?$allocator@J@std@@@std@@@?$vector@JV?$allocator@J@std@@@std@@QAEXV?$_Vector_const_iterator@JV?$allocator@J@std@@@1@V?$_Vector_iterator@JV?$allocator@J@std@@@1@1@Z$3 10b4fde8 f   LinkManagerMsg.obj
 0001:0004edf0       __unwindfunclet$??$insert@V?$_Vector_iterator@JV?$allocator@J@std@@@std@@@?$vector@JV?$allocator@J@std@@@std@@QAEXV?$_Vector_const_iterator@JV?$allocator@J@std@@@1@V?$_Vector_iterator@JV?$allocator@J@std@@@1@1@Z$4 10b4fdf0 f   LinkManagerMsg.obj
 0001:0004edf8       __ehhandler$??$insert@V?$_Vector_iterator@JV?$allocator@J@std@@@std@@@?$vector@JV?$allocator@J@std@@@std@@QAEXV?$_Vector_const_iterator@JV?$allocator@J@std@@@1@V?$_Vector_iterator@JV?$allocator@J@std@@@1@1@Z 10b4fdf8 f   LinkManagerMsg.obj
 0001:0004ee20       __unwindfunclet$??$insert@PAJ@?$vector@JV?$allocator@J@std@@@std@@QAEXV?$_Vector_const_iterator@JV?$allocator@J@std@@@1@PAJ1@Z$0 10b4fe20 f   LinkManagerMsg.obj
 0001:0004ee28       __ehhandler$??$insert@PAJ@?$vector@JV?$allocator@J@std@@@std@@QAEXV?$_Vector_const_iterator@JV?$allocator@J@std@@@1@PAJ1@Z 10b4fe28 f   LinkManagerMsg.obj
 0001:0004ee50       __unwindfunclet$?push_back@?$list@VGBuf@@V?$allocator@VGBuf@@@std@@@std@@QAEXABVGBuf@@@Z$0 10b4fe50 f   LinkManagerMsg.obj
 0001:0004ee58       __ehhandler$?push_back@?$list@VGBuf@@V?$allocator@VGBuf@@@std@@@std@@QAEXABVGBuf@@@Z 10b4fe58 f   LinkManagerMsg.obj
 0001:0004ee80       __unwindfunclet$??$_Insert@V?$_Vector_iterator@JV?$allocator@J@std@@@std@@@?$vector@JV?$allocator@J@std@@@std@@QAEXV?$_Vector_const_iterator@JV?$allocator@J@std@@@1@V?$_Vector_iterator@JV?$allocator@J@std@@@1@1Uforward_iterator_tag@1@@Z$2 10b4fe80 f   LinkManagerMsg.obj
 0001:0004ee88       __unwindfunclet$??$_Insert@V?$_Vector_iterator@JV?$allocator@J@std@@@std@@@?$vector@JV?$allocator@J@std@@@std@@QAEXV?$_Vector_const_iterator@JV?$allocator@J@std@@@1@V?$_Vector_iterator@JV?$allocator@J@std@@@1@1Uforward_iterator_tag@1@@Z$3 10b4fe88 f   LinkManagerMsg.obj
 0001:0004ee90       __unwindfunclet$??$_Insert@V?$_Vector_iterator@JV?$allocator@J@std@@@std@@@?$vector@JV?$allocator@J@std@@@std@@QAEXV?$_Vector_const_iterator@JV?$allocator@J@std@@@1@V?$_Vector_iterator@JV?$allocator@J@std@@@1@1Uforward_iterator_tag@1@@Z$4 10b4fe90 f   LinkManagerMsg.obj
 0001:0004ee98       __unwindfunclet$??$_Insert@V?$_Vector_iterator@JV?$allocator@J@std@@@std@@@?$vector@JV?$allocator@J@std@@@std@@QAEXV?$_Vector_const_iterator@JV?$allocator@J@std@@@1@V?$_Vector_iterator@JV?$allocator@J@std@@@1@1Uforward_iterator_tag@1@@Z$5 10b4fe98 f   LinkManagerMsg.obj
 0001:0004eea0       __unwindfunclet$??$_Insert@V?$_Vector_iterator@JV?$allocator@J@std@@@std@@@?$vector@JV?$allocator@J@std@@@std@@QAEXV?$_Vector_const_iterator@JV?$allocator@J@std@@@1@V?$_Vector_iterator@JV?$allocator@J@std@@@1@1Uforward_iterator_tag@1@@Z$7 10b4fea0 f   LinkManagerMsg.obj
 0001:0004eea8       __unwindfunclet$??$_Insert@V?$_Vector_iterator@JV?$allocator@J@std@@@std@@@?$vector@JV?$allocator@J@std@@@std@@QAEXV?$_Vector_const_iterator@JV?$allocator@J@std@@@1@V?$_Vector_iterator@JV?$allocator@J@std@@@1@1Uforward_iterator_tag@1@@Z$9 10b4fea8 f   LinkManagerMsg.obj
 0001:0004eeb0       __unwindfunclet$??$_Insert@V?$_Vector_iterator@JV?$allocator@J@std@@@std@@@?$vector@JV?$allocator@J@std@@@std@@QAEXV?$_Vector_const_iterator@JV?$allocator@J@std@@@1@V?$_Vector_iterator@JV?$allocator@J@std@@@1@1Uforward_iterator_tag@1@@Z$11 10b4feb0 f   LinkManagerMsg.obj
 0001:0004eeb8       __ehhandler$??$_Insert@V?$_Vector_iterator@JV?$allocator@J@std@@@std@@@?$vector@JV?$allocator@J@std@@@std@@QAEXV?$_Vector_const_iterator@JV?$allocator@J@std@@@1@V?$_Vector_iterator@JV?$allocator@J@std@@@1@1Uforward_iterator_tag@1@@Z 10b4feb8 f   LinkManagerMsg.obj
 0001:0004eee0       __unwindfunclet$??$_Insert@PAJ@?$vector@JV?$allocator@J@std@@@std@@QAEXV?$_Vector_const_iterator@JV?$allocator@J@std@@@1@PAJ1Uforward_iterator_tag@1@@Z$2 10b4fee0 f   LinkManagerMsg.obj
 0001:0004eee8       __ehhandler$??$_Insert@PAJ@?$vector@JV?$allocator@J@std@@@std@@QAEXV?$_Vector_const_iterator@JV?$allocator@J@std@@@1@PAJ1Uforward_iterator_tag@1@@Z 10b4fee8 f   LinkManagerMsg.obj
 0001:0004ef10       __ehhandler$??$_Uninit_copy@PAVPMSStatBase@@PAV1@V?$allocator@VPMSStatBase@@@std@@@std@@YAPAVPMSStatBase@@PAV1@00AAV?$allocator@VPMSStatBase@@@0@U_Nonscalar_ptr_iterator_tag@0@U_Range_checked_iterator_tag@0@@Z 10b4ff10 f   LinkManagerMsg.obj
 0001:0004ef30       __ehhandler$??$_Uninit_copy@PAVPMSRegionInfo@@PAV1@V?$allocator@VPMSRegionInfo@@@std@@@std@@YAPAVPMSRegionInfo@@PAV1@00AAV?$allocator@VPMSRegionInfo@@@0@U_Nonscalar_ptr_iterator_tag@0@U_Range_checked_iterator_tag@0@@Z 10b4ff30 f   LinkManagerMsg.obj
 0001:0004ef50       __unwindfunclet$??$_Debug_range2@V?$_Vector_iterator@JV?$allocator@J@std@@@std@@@std@@YAXV?$_Vector_iterator@JV?$allocator@J@std@@@0@0PB_WIUrandom_access_iterator_tag@0@@Z$0 10b4ff50 f   LinkManagerMsg.obj
 0001:0004ef50       __unwindfunclet$??$_Debug_range2@V?$_Vector_iterator@PAVGSyncObj@@V?$allocator@PAVGSyncObj@@@std@@@std@@@std@@YAXV?$_Vector_iterator@PAVGSyncObj@@V?$allocator@PAVGSyncObj@@@std@@@0@0PB_WIUrandom_access_iterator_tag@0@@Z$0 10b4ff50 f   LinkManagerMsg.obj
 0001:0004ef50       __unwindfunclet$??$_Distance2@V?$_Vector_iterator@JV?$allocator@J@std@@@std@@I@std@@YAXV?$_Vector_iterator@JV?$allocator@J@std@@@0@0AAIUrandom_access_iterator_tag@0@@Z$0 10b4ff50 f   LinkManagerMsg.obj
 0001:0004ef50       __unwindfunclet$??$_Debug_range2@V?$_Vector_iterator@PAXV?$allocator@PAX@std@@@std@@@std@@YAXV?$_Vector_iterator@PAXV?$allocator@PAX@std@@@0@0PB_WIUrandom_access_iterator_tag@0@@Z$0 10b4ff50 f   LinkManagerMsg.obj
 0001:0004ef58       __unwindfunclet$??$_Debug_range2@V?$_Vector_iterator@PAXV?$allocator@PAX@std@@@std@@@std@@YAXV?$_Vector_iterator@PAXV?$allocator@PAX@std@@@0@0PB_WIUrandom_access_iterator_tag@0@@Z$1 10b4ff58 f   LinkManagerMsg.obj
 0001:0004ef58       __unwindfunclet$??$_Distance2@V?$_Vector_iterator@JV?$allocator@J@std@@@std@@I@std@@YAXV?$_Vector_iterator@JV?$allocator@J@std@@@0@0AAIUrandom_access_iterator_tag@0@@Z$1 10b4ff58 f   LinkManagerMsg.obj
 0001:0004ef58       __unwindfunclet$??$_Debug_range2@V?$_Vector_iterator@PAVGSyncObj@@V?$allocator@PAVGSyncObj@@@std@@@std@@@std@@YAXV?$_Vector_iterator@PAVGSyncObj@@V?$allocator@PAVGSyncObj@@@std@@@0@0PB_WIUrandom_access_iterator_tag@0@@Z$1 10b4ff58 f   LinkManagerMsg.obj
 0001:0004ef58       __unwindfunclet$??$_Debug_range2@V?$_Vector_iterator@JV?$allocator@J@std@@@std@@@std@@YAXV?$_Vector_iterator@JV?$allocator@J@std@@@0@0PB_WIUrandom_access_iterator_tag@0@@Z$1 10b4ff58 f   LinkManagerMsg.obj
 0001:0004ef60       __ehhandler$??$_Debug_range2@V?$_Vector_iterator@JV?$allocator@J@std@@@std@@@std@@YAXV?$_Vector_iterator@JV?$allocator@J@std@@@0@0PB_WIUrandom_access_iterator_tag@0@@Z 10b4ff60 f   LinkManagerMsg.obj
 0001:0004ef60       __ehhandler$??$_Debug_range2@V?$_Vector_iterator@PAXV?$allocator@PAX@std@@@std@@@std@@YAXV?$_Vector_iterator@PAXV?$allocator@PAX@std@@@0@0PB_WIUrandom_access_iterator_tag@0@@Z 10b4ff60 f   LinkManagerMsg.obj
 0001:0004ef60       __ehhandler$??$_Distance2@V?$_Vector_iterator@JV?$allocator@J@std@@@std@@I@std@@YAXV?$_Vector_iterator@JV?$allocator@J@std@@@0@0AAIUrandom_access_iterator_tag@0@@Z 10b4ff60 f   LinkManagerMsg.obj
 0001:0004ef60       __ehhandler$??$_Debug_range2@V?$_Vector_iterator@PAVGSyncObj@@V?$allocator@PAVGSyncObj@@@std@@@std@@@std@@YAXV?$_Vector_iterator@PAVGSyncObj@@V?$allocator@PAVGSyncObj@@@std@@@0@0PB_WIUrandom_access_iterator_tag@0@@Z 10b4ff60 f   LinkManagerMsg.obj
 0001:0004ef80       __unwindfunclet$??$_Ucopy@V?$_Vector_iterator@JV?$allocator@J@std@@@std@@@?$vector@JV?$allocator@J@std@@@std@@IAEPAJV?$_Vector_iterator@JV?$allocator@J@std@@@1@0PAJ@Z$0 10b4ff80 f   LinkManagerMsg.obj
 0001:0004ef80       __unwindfunclet$??$unchecked_uninitialized_copy@V?$_Vector_iterator@JV?$allocator@J@std@@@std@@PAJV?$allocator@J@2@@stdext@@YAPAJV?$_Vector_iterator@JV?$allocator@J@std@@@std@@0PAJAAV?$allocator@J@2@@Z$0 10b4ff80 f   LinkManagerMsg.obj
 0001:0004ef80       __unwindfunclet$??$_Uninit_copy@V?$_Vector_iterator@JV?$allocator@J@std@@@std@@PAJV?$allocator@J@2@@std@@YAPAJV?$_Vector_iterator@JV?$allocator@J@std@@@0@0PAJAAV?$allocator@J@0@U_Scalar_ptr_iterator_tag@0@U_Range_checked_iterator_tag@0@@Z$0 10b4ff80 f   LinkManagerMsg.obj
 0001:0004ef88       __unwindfunclet$??$_Ucopy@V?$_Vector_iterator@JV?$allocator@J@std@@@std@@@?$vector@JV?$allocator@J@std@@@std@@IAEPAJV?$_Vector_iterator@JV?$allocator@J@std@@@1@0PAJ@Z$1 10b4ff88 f   LinkManagerMsg.obj
 0001:0004ef88       __unwindfunclet$??$unchecked_uninitialized_copy@V?$_Vector_iterator@JV?$allocator@J@std@@@std@@PAJV?$allocator@J@2@@stdext@@YAPAJV?$_Vector_iterator@JV?$allocator@J@std@@@std@@0PAJAAV?$allocator@J@2@@Z$1 10b4ff88 f   LinkManagerMsg.obj
 0001:0004ef88       __unwindfunclet$??$_Uninit_copy@V?$_Vector_iterator@JV?$allocator@J@std@@@std@@PAJV?$allocator@J@2@@std@@YAPAJV?$_Vector_iterator@JV?$allocator@J@std@@@0@0PAJAAV?$allocator@J@0@U_Scalar_ptr_iterator_tag@0@U_Range_checked_iterator_tag@0@@Z$1 10b4ff88 f   LinkManagerMsg.obj
 0001:0004ef90       __unwindfunclet$??$unchecked_uninitialized_copy@V?$_Vector_iterator@JV?$allocator@J@std@@@std@@PAJV?$allocator@J@2@@stdext@@YAPAJV?$_Vector_iterator@JV?$allocator@J@std@@@std@@0PAJAAV?$allocator@J@2@@Z$2 10b4ff90 f   LinkManagerMsg.obj
 0001:0004ef90       __unwindfunclet$??$_Uninit_copy@V?$_Vector_iterator@JV?$allocator@J@std@@@std@@PAJV?$allocator@J@2@@std@@YAPAJV?$_Vector_iterator@JV?$allocator@J@std@@@0@0PAJAAV?$allocator@J@0@U_Scalar_ptr_iterator_tag@0@U_Range_checked_iterator_tag@0@@Z$2 10b4ff90 f   LinkManagerMsg.obj
 0001:0004ef90       __unwindfunclet$??$_Ucopy@V?$_Vector_iterator@JV?$allocator@J@std@@@std@@@?$vector@JV?$allocator@J@std@@@std@@IAEPAJV?$_Vector_iterator@JV?$allocator@J@std@@@1@0PAJ@Z$2 10b4ff90 f   LinkManagerMsg.obj
 0001:0004ef98       __ehhandler$??$unchecked_uninitialized_copy@V?$_Vector_iterator@JV?$allocator@J@std@@@std@@PAJV?$allocator@J@2@@stdext@@YAPAJV?$_Vector_iterator@JV?$allocator@J@std@@@std@@0PAJAAV?$allocator@J@2@@Z 10b4ff98 f   LinkManagerMsg.obj
 0001:0004ef98       __ehhandler$??$_Ucopy@V?$_Vector_iterator@JV?$allocator@J@std@@@std@@@?$vector@JV?$allocator@J@std@@@std@@IAEPAJV?$_Vector_iterator@JV?$allocator@J@std@@@1@0PAJ@Z 10b4ff98 f   LinkManagerMsg.obj
 0001:0004ef98       __ehhandler$??$_Uninit_copy@V?$_Vector_iterator@JV?$allocator@J@std@@@std@@PAJV?$allocator@J@2@@std@@YAPAJV?$_Vector_iterator@JV?$allocator@J@std@@@0@0PAJAAV?$allocator@J@0@U_Scalar_ptr_iterator_tag@0@U_Range_checked_iterator_tag@0@@Z 10b4ff98 f   LinkManagerMsg.obj
 0001:0004efc0       __unwindfunclet$?_Insert@?$list@VGBuf@@V?$allocator@VGBuf@@@std@@@std@@QAEXV?$_Const_iterator@$00@12@ABVGBuf@@@Z$0 10b4ffc0 f   LinkManagerMsg.obj
 0001:0004efc8       __ehhandler$?_Insert@?$list@VGBuf@@V?$allocator@VGBuf@@@std@@@std@@QAEXV?$_Const_iterator@$00@12@ABVGBuf@@@Z 10b4ffc8 f   LinkManagerMsg.obj
 0001:0004eff0       __ehhandler$?_Buynode@?$list@VGBuf@@V?$allocator@VGBuf@@@std@@@std@@IAEPAU_Node@?$_List_nod@VGBuf@@V?$allocator@VGBuf@@@std@@@2@PAU342@0ABVGBuf@@@Z 10b4fff0 f   LinkManagerMsg.obj
 0001:0004f010       __unwindfunclet$?_Incsize@?$list@VGBuf@@V?$allocator@VGBuf@@@std@@@std@@IAEXI@Z$0 10b50010 f   LinkManagerMsg.obj
 0001:0004f018       __ehhandler$?_Incsize@?$list@VGBuf@@V?$allocator@VGBuf@@@std@@@std@@IAEXI@Z 10b50018 f   LinkManagerMsg.obj
 0001:0004f040       __unwindfunclet$?BLoad@@YAHAAV?$basic_string@DU?$char_traits@D@std@@V?$allocator@D@2@@std@@PAUIXBuf@@@Z$0 10b50040 f   GAdlUtl.obj
 0001:0004f048       __ehhandler$?BLoad@@YAHAAV?$basic_string@DU?$char_traits@D@std@@V?$allocator@D@2@@std@@PAUIXBuf@@@Z 10b50048 f   GAdlUtl.obj
 0001:0004f063       __unwindfunclet$?MLoad@@YAHAAV?$basic_string@DU?$char_traits@D@std@@V?$allocator@D@2@@std@@PAUIXBuf@@@Z$0 10b50063 f   GAdlUtl.obj
 0001:0004f06b       __ehhandler$?MLoad@@YAHAAV?$basic_string@DU?$char_traits@D@std@@V?$allocator@D@2@@std@@PAUIXBuf@@@Z 10b5006b f   GAdlUtl.obj
 0001:0004f086       __unwindfunclet$?BLoad@@YAHAAV?$basic_string@_WU?$char_traits@_W@std@@V?$allocator@_W@2@@std@@PAUIXBuf@@@Z$0 10b50086 f   GAdlUtl.obj
 0001:0004f08e       __ehhandler$?BLoad@@YAHAAV?$basic_string@_WU?$char_traits@_W@std@@V?$allocator@_W@2@@std@@PAUIXBuf@@@Z 10b5008e f   GAdlUtl.obj
 0001:0004f0a9       __unwindfunclet$?BLoad@@YAHAAVastring@@PAUIXBuf@@@Z$0 10b500a9 f   GAdlUtl.obj
 0001:0004f0b1       __ehhandler$?BLoad@@YAHAAVastring@@PAUIXBuf@@@Z 10b500b1 f   GAdlUtl.obj
 0001:0004f0cc       __unwindfunclet$?MLoad@@YAHAAVastring@@PAUIXBuf@@@Z$0 10b500cc f   GAdlUtl.obj
 0001:0004f0d4       __ehhandler$?MLoad@@YAHAAVastring@@PAUIXBuf@@@Z 10b500d4 f   GAdlUtl.obj
 0001:0004f0f0       __ehhandler$?_Copy@?$basic_string@_WU?$char_traits@_W@std@@V?$allocator@_W@2@@std@@IAEXII@Z 10b500f0 f   GAdlUtl.obj
 0001:0004f110       __unwindfunclet$??0GSemaphore@@QAE@JJPBDPAU_SECURITY_ATTRIBUTES@@@Z$0 10b50110 f   GKernelObj.obj
 0001:0004f118       __ehhandler$??0GSemaphore@@QAE@JJPBDPAU_SECURITY_ATTRIBUTES@@@Z 10b50118 f   GKernelObj.obj
 0001:0004f133       __unwindfunclet$??0GSemaphore@@QAE@PBDKH@Z$0 10b50133 f   GKernelObj.obj
 0001:0004f13b       __ehhandler$??0GSemaphore@@QAE@PBDKH@Z 10b5013b f   GKernelObj.obj
 0001:0004f156       __unwindfunclet$??0GMutex@@QAE@HPBDPAU_SECURITY_ATTRIBUTES@@@Z$0 10b50156 f   GKernelObj.obj
 0001:0004f15e       __ehhandler$??0GMutex@@QAE@HPBDPAU_SECURITY_ATTRIBUTES@@@Z 10b5015e f   GKernelObj.obj
 0001:0004f179       __unwindfunclet$??0GMutex@@QAE@PBDKH@Z$0 10b50179 f   GKernelObj.obj
 0001:0004f181       __ehhandler$??0GMutex@@QAE@PBDKH@Z 10b50181 f   GKernelObj.obj
 0001:0004f19c       __unwindfunclet$??0GEvent@@QAE@HHPBDPAU_SECURITY_ATTRIBUTES@@@Z$0 10b5019c f   GKernelObj.obj
 0001:0004f1a4       __ehhandler$??0GEvent@@QAE@HHPBDPAU_SECURITY_ATTRIBUTES@@@Z 10b501a4 f   GKernelObj.obj
 0001:0004f1bf       __unwindfunclet$??0GEvent@@QAE@PBDKH@Z$0 10b501bf f   GKernelObj.obj
 0001:0004f1c7       __ehhandler$??0GEvent@@QAE@PBDKH@Z 10b501c7 f   GKernelObj.obj
 0001:0004f1e2       __unwindfunclet$??0GMultiLock@@QAE@PAPAVGSyncObj@@KH@Z$0 10b501e2 f   GKernelObj.obj
 0001:0004f1ea       __ehhandler$??0GMultiLock@@QAE@PAPAVGSyncObj@@KH@Z 10b501ea f   GKernelObj.obj
 0001:0004f205       __unwindfunclet$??1GMultiLock@@QAE@XZ$0 10b50205 f   GKernelObj.obj
 0001:0004f20d       __ehhandler$??1GMultiLock@@QAE@XZ 10b5020d f   GKernelObj.obj
 0001:0004f228       __unwindfunclet$??0GSelector@@QAE@PAPAVGSyncObj@@KH@Z$0 10b50228 f   GKernelObj.obj
 0001:0004f233       __ehhandler$??0GSelector@@QAE@PAPAVGSyncObj@@KH@Z 10b50233 f   GKernelObj.obj
 0001:0004f24e       __unwindfunclet$?Add@GWaitCollection@@QAEHPAX@Z$0 10b5024e f   GKernelObj.obj
 0001:0004f256       __unwindfunclet$?Add@GWaitCollection@@QAEHPAX@Z$2 10b50256 f   GKernelObj.obj
 0001:0004f25e       __unwindfunclet$?Add@GWaitCollection@@QAEHPAX@Z$3 10b5025e f   GKernelObj.obj
 0001:0004f266       __ehhandler$?Add@GWaitCollection@@QAEHPAX@Z 10b50266 f   GKernelObj.obj
 0001:0004f281       __unwindfunclet$?Remove@GWaitCollection@@QAEHPAX@Z$0 10b50281 f   GKernelObj.obj
 0001:0004f289       __unwindfunclet$?Remove@GWaitCollection@@QAEHPAX@Z$2 10b50289 f   GKernelObj.obj
 0001:0004f291       __unwindfunclet$?Remove@GWaitCollection@@QAEHPAX@Z$3 10b50291 f   GKernelObj.obj
 0001:0004f299       __ehhandler$?Remove@GWaitCollection@@QAEHPAX@Z 10b50299 f   GKernelObj.obj
 0001:0004f2b4       __unwindfunclet$?GetHandleArray@GWaitCollection@@QBEPBQAXXZ$0 10b502b4 f   GKernelObj.obj
 0001:0004f2bc       __ehhandler$?GetHandleArray@GWaitCollection@@QBEPBQAXXZ 10b502bc f   GKernelObj.obj
 0001:0004f2e0       __unwindfunclet$?isexist@?$pvector@VGSyncObj@@@@QBE_NPBVGSyncObj@@@Z$0 10b502e0 f   GKernelObj.obj
 0001:0004f2e8       __unwindfunclet$?isexist@?$pvector@VGSyncObj@@@@QBE_NPBVGSyncObj@@@Z$1 10b502e8 f   GKernelObj.obj
 0001:0004f2f0       __ehhandler$?isexist@?$pvector@VGSyncObj@@@@QBE_NPBVGSyncObj@@@Z 10b502f0 f   GKernelObj.obj
 0001:0004f310       __unwindfunclet$?remove@?$pvector@VGSyncObj@@@@QAEXPBVGSyncObj@@@Z$0 10b50310 f   GKernelObj.obj
 0001:0004f318       __unwindfunclet$?remove@?$pvector@VGSyncObj@@@@QAEXPBVGSyncObj@@@Z$1 10b50318 f   GKernelObj.obj
 0001:0004f320       __unwindfunclet$?remove@?$pvector@VGSyncObj@@@@QAEXPBVGSyncObj@@@Z$2 10b50320 f   GKernelObj.obj
 0001:0004f328       __ehhandler$?remove@?$pvector@VGSyncObj@@@@QAEXPBVGSyncObj@@@Z 10b50328 f   GKernelObj.obj
 0001:0004f350       __unwindfunclet$?find@?$pvector@VGSyncObj@@@@QAE?AV?$_Vector_iterator@PAVGSyncObj@@V?$allocator@PAVGSyncObj@@@std@@@std@@PBVGSyncObj@@@Z$0 10b50350 f   GKernelObj.obj
 0001:0004f358       __ehhandler$?find@?$pvector@VGSyncObj@@@@QAE?AV?$_Vector_iterator@PAVGSyncObj@@V?$allocator@PAVGSyncObj@@@std@@@std@@PBVGSyncObj@@@Z 10b50358 f   GKernelObj.obj
 0001:0004f380       __unwindfunclet$?find@?$pvector@VGSyncObj@@@@QBE?AV?$_Vector_const_iterator@PAVGSyncObj@@V?$allocator@PAVGSyncObj@@@std@@@std@@PBVGSyncObj@@@Z$0 10b50380 f   GKernelObj.obj
 0001:0004f388       __ehhandler$?find@?$pvector@VGSyncObj@@@@QBE?AV?$_Vector_const_iterator@PAVGSyncObj@@V?$allocator@PAVGSyncObj@@@std@@@std@@PBVGSyncObj@@@Z 10b50388 f   GKernelObj.obj
 0001:0004f3b0       __unwindfunclet$??$find@V?$_Vector_iterator@PAXV?$allocator@PAX@std@@@std@@PAX@std@@YA?AV?$_Vector_iterator@PAXV?$allocator@PAX@std@@@0@V10@0ABQAX@Z$0 10b503b0 f   GKernelObj.obj
 0001:0004f3b0       __unwindfunclet$??$find@V?$_Vector_iterator@PAVGSyncObj@@V?$allocator@PAVGSyncObj@@@std@@@std@@PBVGSyncObj@@@std@@YA?AV?$_Vector_iterator@PAVGSyncObj@@V?$allocator@PAVGSyncObj@@@std@@@0@V10@0ABQBVGSyncObj@@@Z$0 10b503b0 f   GKernelObj.obj
 0001:0004f3b8       __unwindfunclet$??$find@V?$_Vector_iterator@PAVGSyncObj@@V?$allocator@PAVGSyncObj@@@std@@@std@@PBVGSyncObj@@@std@@YA?AV?$_Vector_iterator@PAVGSyncObj@@V?$allocator@PAVGSyncObj@@@std@@@0@V10@0ABQBVGSyncObj@@@Z$1 10b503b8 f   GKernelObj.obj
 0001:0004f3b8       __unwindfunclet$??$find@V?$_Vector_iterator@PAXV?$allocator@PAX@std@@@std@@PAX@std@@YA?AV?$_Vector_iterator@PAXV?$allocator@PAX@std@@@0@V10@0ABQAX@Z$1 10b503b8 f   GKernelObj.obj
 0001:0004f3c0       __unwindfunclet$??$find@V?$_Vector_iterator@PAVGSyncObj@@V?$allocator@PAVGSyncObj@@@std@@@std@@PBVGSyncObj@@@std@@YA?AV?$_Vector_iterator@PAVGSyncObj@@V?$allocator@PAVGSyncObj@@@std@@@0@V10@0ABQBVGSyncObj@@@Z$2 10b503c0 f   GKernelObj.obj
 0001:0004f3c0       __unwindfunclet$??$find@V?$_Vector_iterator@PAXV?$allocator@PAX@std@@@std@@PAX@std@@YA?AV?$_Vector_iterator@PAXV?$allocator@PAX@std@@@0@V10@0ABQAX@Z$2 10b503c0 f   GKernelObj.obj
 0001:0004f3c8       __unwindfunclet$??$find@V?$_Vector_iterator@PAXV?$allocator@PAX@std@@@std@@PAX@std@@YA?AV?$_Vector_iterator@PAXV?$allocator@PAX@std@@@0@V10@0ABQAX@Z$4 10b503c8 f   GKernelObj.obj
 0001:0004f3c8       __unwindfunclet$??$find@V?$_Vector_iterator@PAVGSyncObj@@V?$allocator@PAVGSyncObj@@@std@@@std@@PBVGSyncObj@@@std@@YA?AV?$_Vector_iterator@PAVGSyncObj@@V?$allocator@PAVGSyncObj@@@std@@@0@V10@0ABQBVGSyncObj@@@Z$4 10b503c8 f   GKernelObj.obj
 0001:0004f3d0       __unwindfunclet$??$find@V?$_Vector_iterator@PAXV?$allocator@PAX@std@@@std@@PAX@std@@YA?AV?$_Vector_iterator@PAXV?$allocator@PAX@std@@@0@V10@0ABQAX@Z$5 10b503d0 f   GKernelObj.obj
 0001:0004f3d0       __unwindfunclet$??$find@V?$_Vector_iterator@PAVGSyncObj@@V?$allocator@PAVGSyncObj@@@std@@@std@@PBVGSyncObj@@@std@@YA?AV?$_Vector_iterator@PAVGSyncObj@@V?$allocator@PAVGSyncObj@@@std@@@0@V10@0ABQBVGSyncObj@@@Z$5 10b503d0 f   GKernelObj.obj
 0001:0004f3e9       __ehhandler$??$find@V?$_Vector_iterator@PAXV?$allocator@PAX@std@@@std@@PAX@std@@YA?AV?$_Vector_iterator@PAXV?$allocator@PAX@std@@@0@V10@0ABQAX@Z 10b503e9 f   GKernelObj.obj
 0001:0004f3e9       __ehhandler$??$find@V?$_Vector_iterator@PAVGSyncObj@@V?$allocator@PAVGSyncObj@@@std@@@std@@PBVGSyncObj@@@std@@YA?AV?$_Vector_iterator@PAVGSyncObj@@V?$allocator@PAVGSyncObj@@@std@@@0@V10@0ABQBVGSyncObj@@@Z 10b503e9 f   GKernelObj.obj
 0001:0004f410       __unwindfunclet$??$find@V?$_Vector_const_iterator@PAVGSyncObj@@V?$allocator@PAVGSyncObj@@@std@@@std@@PBVGSyncObj@@@std@@YA?AV?$_Vector_const_iterator@PAVGSyncObj@@V?$allocator@PAVGSyncObj@@@std@@@0@V10@0ABQBVGSyncObj@@@Z$0 10b50410 f   GKernelObj.obj
 0001:0004f418       __unwindfunclet$??$find@V?$_Vector_const_iterator@PAVGSyncObj@@V?$allocator@PAVGSyncObj@@@std@@@std@@PBVGSyncObj@@@std@@YA?AV?$_Vector_const_iterator@PAVGSyncObj@@V?$allocator@PAVGSyncObj@@@std@@@0@V10@0ABQBVGSyncObj@@@Z$1 10b50418 f   GKernelObj.obj
 0001:0004f420       __unwindfunclet$??$find@V?$_Vector_const_iterator@PAVGSyncObj@@V?$allocator@PAVGSyncObj@@@std@@@std@@PBVGSyncObj@@@std@@YA?AV?$_Vector_const_iterator@PAVGSyncObj@@V?$allocator@PAVGSyncObj@@@std@@@0@V10@0ABQBVGSyncObj@@@Z$2 10b50420 f   GKernelObj.obj
 0001:0004f428       __unwindfunclet$??$find@V?$_Vector_const_iterator@PAVGSyncObj@@V?$allocator@PAVGSyncObj@@@std@@@std@@PBVGSyncObj@@@std@@YA?AV?$_Vector_const_iterator@PAVGSyncObj@@V?$allocator@PAVGSyncObj@@@std@@@0@V10@0ABQBVGSyncObj@@@Z$4 10b50428 f   GKernelObj.obj
 0001:0004f430       __unwindfunclet$??$find@V?$_Vector_const_iterator@PAVGSyncObj@@V?$allocator@PAVGSyncObj@@@std@@@std@@PBVGSyncObj@@@std@@YA?AV?$_Vector_const_iterator@PAVGSyncObj@@V?$allocator@PAVGSyncObj@@@std@@@0@V10@0ABQBVGSyncObj@@@Z$5 10b50430 f   GKernelObj.obj
 0001:0004f449       __ehhandler$??$find@V?$_Vector_const_iterator@PAVGSyncObj@@V?$allocator@PAVGSyncObj@@@std@@@std@@PBVGSyncObj@@@std@@YA?AV?$_Vector_const_iterator@PAVGSyncObj@@V?$allocator@PAVGSyncObj@@@std@@@0@V10@0ABQBVGSyncObj@@@Z 10b50449 f   GKernelObj.obj
 0001:0004f470       __unwindfunclet$??$_Find@V?$_Vector_iterator@PAVGSyncObj@@V?$allocator@PAVGSyncObj@@@std@@@std@@PBVGSyncObj@@@std@@YA?AV?$_Vector_iterator@PAVGSyncObj@@V?$allocator@PAVGSyncObj@@@std@@@0@V10@0ABQBVGSyncObj@@@Z$0 10b50470 f   GKernelObj.obj
 0001:0004f470       __unwindfunclet$??$_Find@V?$_Vector_iterator@PAXV?$allocator@PAX@std@@@std@@PAX@std@@YA?AV?$_Vector_iterator@PAXV?$allocator@PAX@std@@@0@V10@0ABQAX@Z$0 10b50470 f   GKernelObj.obj
 0001:0004f478       __unwindfunclet$??$_Find@V?$_Vector_iterator@PAVGSyncObj@@V?$allocator@PAVGSyncObj@@@std@@@std@@PBVGSyncObj@@@std@@YA?AV?$_Vector_iterator@PAVGSyncObj@@V?$allocator@PAVGSyncObj@@@std@@@0@V10@0ABQBVGSyncObj@@@Z$1 10b50478 f   GKernelObj.obj
 0001:0004f478       __unwindfunclet$??$_Find@V?$_Vector_iterator@PAXV?$allocator@PAX@std@@@std@@PAX@std@@YA?AV?$_Vector_iterator@PAXV?$allocator@PAX@std@@@0@V10@0ABQAX@Z$1 10b50478 f   GKernelObj.obj
 0001:0004f480       __unwindfunclet$??$_Find@V?$_Vector_iterator@PAXV?$allocator@PAX@std@@@std@@PAX@std@@YA?AV?$_Vector_iterator@PAXV?$allocator@PAX@std@@@0@V10@0ABQAX@Z$2 10b50480 f   GKernelObj.obj
 0001:0004f480       __unwindfunclet$??$_Find@V?$_Vector_iterator@PAVGSyncObj@@V?$allocator@PAVGSyncObj@@@std@@@std@@PBVGSyncObj@@@std@@YA?AV?$_Vector_iterator@PAVGSyncObj@@V?$allocator@PAVGSyncObj@@@std@@@0@V10@0ABQBVGSyncObj@@@Z$2 10b50480 f   GKernelObj.obj
 0001:0004f488       __unwindfunclet$??$_Find@V?$_Vector_iterator@PAXV?$allocator@PAX@std@@@std@@PAX@std@@YA?AV?$_Vector_iterator@PAXV?$allocator@PAX@std@@@0@V10@0ABQAX@Z$4 10b50488 f   GKernelObj.obj
 0001:0004f488       __unwindfunclet$??$_Find@V?$_Vector_iterator@PAVGSyncObj@@V?$allocator@PAVGSyncObj@@@std@@@std@@PBVGSyncObj@@@std@@YA?AV?$_Vector_iterator@PAVGSyncObj@@V?$allocator@PAVGSyncObj@@@std@@@0@V10@0ABQBVGSyncObj@@@Z$4 10b50488 f   GKernelObj.obj
 0001:0004f4a1       __ehhandler$??$_Find@V?$_Vector_iterator@PAVGSyncObj@@V?$allocator@PAVGSyncObj@@@std@@@std@@PBVGSyncObj@@@std@@YA?AV?$_Vector_iterator@PAVGSyncObj@@V?$allocator@PAVGSyncObj@@@std@@@0@V10@0ABQBVGSyncObj@@@Z 10b504a1 f   GKernelObj.obj
 0001:0004f4a1       __ehhandler$??$_Find@V?$_Vector_iterator@PAXV?$allocator@PAX@std@@@std@@PAX@std@@YA?AV?$_Vector_iterator@PAXV?$allocator@PAX@std@@@0@V10@0ABQAX@Z 10b504a1 f   GKernelObj.obj
 0001:0004f4c0       __unwindfunclet$??$_Find@V?$_Vector_const_iterator@PAVGSyncObj@@V?$allocator@PAVGSyncObj@@@std@@@std@@PBVGSyncObj@@@std@@YA?AV?$_Vector_const_iterator@PAVGSyncObj@@V?$allocator@PAVGSyncObj@@@std@@@0@V10@0ABQBVGSyncObj@@@Z$0 10b504c0 f   GKernelObj.obj
 0001:0004f4c8       __unwindfunclet$??$_Find@V?$_Vector_const_iterator@PAVGSyncObj@@V?$allocator@PAVGSyncObj@@@std@@@std@@PBVGSyncObj@@@std@@YA?AV?$_Vector_const_iterator@PAVGSyncObj@@V?$allocator@PAVGSyncObj@@@std@@@0@V10@0ABQBVGSyncObj@@@Z$1 10b504c8 f   GKernelObj.obj
 0001:0004f4d0       __unwindfunclet$??$_Find@V?$_Vector_const_iterator@PAVGSyncObj@@V?$allocator@PAVGSyncObj@@@std@@@std@@PBVGSyncObj@@@std@@YA?AV?$_Vector_const_iterator@PAVGSyncObj@@V?$allocator@PAVGSyncObj@@@std@@@0@V10@0ABQBVGSyncObj@@@Z$2 10b504d0 f   GKernelObj.obj
 0001:0004f4d8       __unwindfunclet$??$_Find@V?$_Vector_const_iterator@PAVGSyncObj@@V?$allocator@PAVGSyncObj@@@std@@@std@@PBVGSyncObj@@@std@@YA?AV?$_Vector_const_iterator@PAVGSyncObj@@V?$allocator@PAVGSyncObj@@@std@@@0@V10@0ABQBVGSyncObj@@@Z$4 10b504d8 f   GKernelObj.obj
 0001:0004f4f1       __ehhandler$??$_Find@V?$_Vector_const_iterator@PAVGSyncObj@@V?$allocator@PAVGSyncObj@@@std@@@std@@PBVGSyncObj@@@std@@YA?AV?$_Vector_const_iterator@PAVGSyncObj@@V?$allocator@PAVGSyncObj@@@std@@@0@V10@0ABQBVGSyncObj@@@Z 10b504f1 f   GKernelObj.obj
 0001:0004f510       __unwindfunclet$??$_Distance@V?$_Vector_iterator@JV?$allocator@J@std@@@std@@I@std@@YAXV?$_Vector_iterator@JV?$allocator@J@std@@@0@0AAI@Z$0 10b50510 f   GKernelObj.obj
 0001:0004f510       __unwindfunclet$??$_Debug_range@V?$_Vector_iterator@JV?$allocator@J@std@@@std@@@std@@YAXV?$_Vector_iterator@JV?$allocator@J@std@@@0@0PB_WI@Z$0 10b50510 f   GKernelObj.obj
 0001:0004f510       __unwindfunclet$??$_Debug_range@V?$_Vector_iterator@PAXV?$allocator@PAX@std@@@std@@@std@@YAXV?$_Vector_iterator@PAXV?$allocator@PAX@std@@@0@0PB_WI@Z$0 10b50510 f   GKernelObj.obj
 0001:0004f510       __unwindfunclet$??$_Debug_range@V?$_Vector_iterator@PAVGSyncObj@@V?$allocator@PAVGSyncObj@@@std@@@std@@@std@@YAXV?$_Vector_iterator@PAVGSyncObj@@V?$allocator@PAVGSyncObj@@@std@@@0@0PB_WI@Z$0 10b50510 f   GKernelObj.obj
 0001:0004f518       __unwindfunclet$??$_Debug_range@V?$_Vector_iterator@PAVGSyncObj@@V?$allocator@PAVGSyncObj@@@std@@@std@@@std@@YAXV?$_Vector_iterator@PAVGSyncObj@@V?$allocator@PAVGSyncObj@@@std@@@0@0PB_WI@Z$1 10b50518 f   GKernelObj.obj
 0001:0004f518       __unwindfunclet$??$_Distance@V?$_Vector_iterator@JV?$allocator@J@std@@@std@@I@std@@YAXV?$_Vector_iterator@JV?$allocator@J@std@@@0@0AAI@Z$1 10b50518 f   GKernelObj.obj
 0001:0004f518       __unwindfunclet$??$_Debug_range@V?$_Vector_iterator@PAXV?$allocator@PAX@std@@@std@@@std@@YAXV?$_Vector_iterator@PAXV?$allocator@PAX@std@@@0@0PB_WI@Z$1 10b50518 f   GKernelObj.obj
 0001:0004f518       __unwindfunclet$??$_Debug_range@V?$_Vector_iterator@JV?$allocator@J@std@@@std@@@std@@YAXV?$_Vector_iterator@JV?$allocator@J@std@@@0@0PB_WI@Z$1 10b50518 f   GKernelObj.obj
 0001:0004f520       __unwindfunclet$??$_Debug_range@V?$_Vector_iterator@PAXV?$allocator@PAX@std@@@std@@@std@@YAXV?$_Vector_iterator@PAXV?$allocator@PAX@std@@@0@0PB_WI@Z$2 10b50520 f   GKernelObj.obj
 0001:0004f520       __unwindfunclet$??$_Debug_range@V?$_Vector_iterator@PAVGSyncObj@@V?$allocator@PAVGSyncObj@@@std@@@std@@@std@@YAXV?$_Vector_iterator@PAVGSyncObj@@V?$allocator@PAVGSyncObj@@@std@@@0@0PB_WI@Z$2 10b50520 f   GKernelObj.obj
 0001:0004f520       __unwindfunclet$??$_Debug_range@V?$_Vector_iterator@JV?$allocator@J@std@@@std@@@std@@YAXV?$_Vector_iterator@JV?$allocator@J@std@@@0@0PB_WI@Z$2 10b50520 f   GKernelObj.obj
 0001:0004f520       __unwindfunclet$??$_Distance@V?$_Vector_iterator@JV?$allocator@J@std@@@std@@I@std@@YAXV?$_Vector_iterator@JV?$allocator@J@std@@@0@0AAI@Z$2 10b50520 f   GKernelObj.obj
 0001:0004f528       __ehhandler$??$_Distance@V?$_Vector_iterator@JV?$allocator@J@std@@@std@@I@std@@YAXV?$_Vector_iterator@JV?$allocator@J@std@@@0@0AAI@Z 10b50528 f   GKernelObj.obj
 0001:0004f528       __ehhandler$??$_Debug_range@V?$_Vector_iterator@PAVGSyncObj@@V?$allocator@PAVGSyncObj@@@std@@@std@@@std@@YAXV?$_Vector_iterator@PAVGSyncObj@@V?$allocator@PAVGSyncObj@@@std@@@0@0PB_WI@Z 10b50528 f   GKernelObj.obj
 0001:0004f528       __ehhandler$??$_Debug_range@V?$_Vector_iterator@JV?$allocator@J@std@@@std@@@std@@YAXV?$_Vector_iterator@JV?$allocator@J@std@@@0@0PB_WI@Z 10b50528 f   GKernelObj.obj
 0001:0004f528       __ehhandler$??$_Debug_range@V?$_Vector_iterator@PAXV?$allocator@PAX@std@@@std@@@std@@YAXV?$_Vector_iterator@PAXV?$allocator@PAX@std@@@0@0PB_WI@Z 10b50528 f   GKernelObj.obj
 0001:0004f550       __unwindfunclet$??$_Debug_range@V?$_Vector_const_iterator@PAVGSyncObj@@V?$allocator@PAVGSyncObj@@@std@@@std@@@std@@YAXV?$_Vector_const_iterator@PAVGSyncObj@@V?$allocator@PAVGSyncObj@@@std@@@0@0PB_WI@Z$0 10b50550 f   GKernelObj.obj
 0001:0004f558       __unwindfunclet$??$_Debug_range@V?$_Vector_const_iterator@PAVGSyncObj@@V?$allocator@PAVGSyncObj@@@std@@@std@@@std@@YAXV?$_Vector_const_iterator@PAVGSyncObj@@V?$allocator@PAVGSyncObj@@@std@@@0@0PB_WI@Z$1 10b50558 f   GKernelObj.obj
 0001:0004f560       __unwindfunclet$??$_Debug_range@V?$_Vector_const_iterator@PAVGSyncObj@@V?$allocator@PAVGSyncObj@@@std@@@std@@@std@@YAXV?$_Vector_const_iterator@PAVGSyncObj@@V?$allocator@PAVGSyncObj@@@std@@@0@0PB_WI@Z$2 10b50560 f   GKernelObj.obj
 0001:0004f568       __ehhandler$??$_Debug_range@V?$_Vector_const_iterator@PAVGSyncObj@@V?$allocator@PAVGSyncObj@@@std@@@std@@@std@@YAXV?$_Vector_const_iterator@PAVGSyncObj@@V?$allocator@PAVGSyncObj@@@std@@@0@0PB_WI@Z 10b50568 f   GKernelObj.obj
 0001:0004f590       __unwindfunclet$??$_Debug_range2@V?$_Vector_const_iterator@PAVGSyncObj@@V?$allocator@PAVGSyncObj@@@std@@@std@@@std@@YAXV?$_Vector_const_iterator@PAVGSyncObj@@V?$allocator@PAVGSyncObj@@@std@@@0@0PB_WIUrandom_access_iterator_tag@0@@Z$0 10b50590 f   GKernelObj.obj
 0001:0004f598       __unwindfunclet$??$_Debug_range2@V?$_Vector_const_iterator@PAVGSyncObj@@V?$allocator@PAVGSyncObj@@@std@@@std@@@std@@YAXV?$_Vector_const_iterator@PAVGSyncObj@@V?$allocator@PAVGSyncObj@@@std@@@0@0PB_WIUrandom_access_iterator_tag@0@@Z$1 10b50598 f   GKernelObj.obj
 0001:0004f5a0       __ehhandler$??$_Debug_range2@V?$_Vector_const_iterator@PAVGSyncObj@@V?$allocator@PAVGSyncObj@@@std@@@std@@@std@@YAXV?$_Vector_const_iterator@PAVGSyncObj@@V?$allocator@PAVGSyncObj@@@std@@@0@0PB_WIUrandom_access_iterator_tag@0@@Z 10b505a0 f   GKernelObj.obj
 0001:0004f5c0       __unwindfunclet$??1?$pvector@VGSyncObj@@@@UAE@XZ$0 10b505c0 f   GKernelObj.obj
 0001:0004f5cb       __ehhandler$??1?$pvector@VGSyncObj@@@@UAE@XZ 10b505cb f   GKernelObj.obj
 0001:0004f5f0       __unwindfunclet$?erase@?$vector@JV?$allocator@J@std@@@std@@QAE?AV?$_Vector_iterator@JV?$allocator@J@std@@@2@V?$_Vector_const_iterator@JV?$allocator@J@std@@@2@0@Z$0 10b505f0 f   GKernelObj.obj
 0001:0004f5f0       __unwindfunclet$?erase@?$vector@PAVGSyncObj@@V?$allocator@PAVGSyncObj@@@std@@@std@@QAE?AV?$_Vector_iterator@PAVGSyncObj@@V?$allocator@PAVGSyncObj@@@std@@@2@V?$_Vector_const_iterator@PAVGSyncObj@@V?$allocator@PAVGSyncObj@@@std@@@2@0@Z$0 10b505f0 f   GKernelObj.obj
 0001:0004f5f0       __unwindfunclet$?erase@?$vector@VPMSNSAP@@V?$allocator@VPMSNSAP@@@std@@@std@@QAE?AV?$_Vector_iterator@VPMSNSAP@@V?$allocator@VPMSNSAP@@@std@@@2@V?$_Vector_const_iterator@VPMSNSAP@@V?$allocator@VPMSNSAP@@@std@@@2@0@Z$0 10b505f0 f   GKernelObj.obj
 0001:0004f5f8       __unwindfunclet$?erase@?$vector@PAVGSyncObj@@V?$allocator@PAVGSyncObj@@@std@@@std@@QAE?AV?$_Vector_iterator@PAVGSyncObj@@V?$allocator@PAVGSyncObj@@@std@@@2@V?$_Vector_const_iterator@PAVGSyncObj@@V?$allocator@PAVGSyncObj@@@std@@@2@0@Z$1 10b505f8 f   GKernelObj.obj
 0001:0004f5f8       __unwindfunclet$?erase@?$vector@VPMSNSAP@@V?$allocator@VPMSNSAP@@@std@@@std@@QAE?AV?$_Vector_iterator@VPMSNSAP@@V?$allocator@VPMSNSAP@@@std@@@2@V?$_Vector_const_iterator@VPMSNSAP@@V?$allocator@VPMSNSAP@@@std@@@2@0@Z$1 10b505f8 f   GKernelObj.obj
 0001:0004f5f8       __unwindfunclet$?erase@?$vector@JV?$allocator@J@std@@@std@@QAE?AV?$_Vector_iterator@JV?$allocator@J@std@@@2@V?$_Vector_const_iterator@JV?$allocator@J@std@@@2@0@Z$1 10b505f8 f   GKernelObj.obj
 0001:0004f600       __unwindfunclet$?erase@?$vector@PAVGSyncObj@@V?$allocator@PAVGSyncObj@@@std@@@std@@QAE?AV?$_Vector_iterator@PAVGSyncObj@@V?$allocator@PAVGSyncObj@@@std@@@2@V?$_Vector_const_iterator@PAVGSyncObj@@V?$allocator@PAVGSyncObj@@@std@@@2@0@Z$3 10b50600 f   GKernelObj.obj
 0001:0004f600       __unwindfunclet$?erase@?$vector@VPMSNSAP@@V?$allocator@VPMSNSAP@@@std@@@std@@QAE?AV?$_Vector_iterator@VPMSNSAP@@V?$allocator@VPMSNSAP@@@std@@@2@V?$_Vector_const_iterator@VPMSNSAP@@V?$allocator@VPMSNSAP@@@std@@@2@0@Z$3 10b50600 f   GKernelObj.obj
 0001:0004f600       __unwindfunclet$?erase@?$vector@JV?$allocator@J@std@@@std@@QAE?AV?$_Vector_iterator@JV?$allocator@J@std@@@2@V?$_Vector_const_iterator@JV?$allocator@J@std@@@2@0@Z$3 10b50600 f   GKernelObj.obj
 0001:0004f608       __unwindfunclet$?erase@?$vector@VPMSNSAP@@V?$allocator@VPMSNSAP@@@std@@@std@@QAE?AV?$_Vector_iterator@VPMSNSAP@@V?$allocator@VPMSNSAP@@@std@@@2@V?$_Vector_const_iterator@VPMSNSAP@@V?$allocator@VPMSNSAP@@@std@@@2@0@Z$5 10b50608 f   GKernelObj.obj
 0001:0004f608       __unwindfunclet$?erase@?$vector@JV?$allocator@J@std@@@std@@QAE?AV?$_Vector_iterator@JV?$allocator@J@std@@@2@V?$_Vector_const_iterator@JV?$allocator@J@std@@@2@0@Z$5 10b50608 f   GKernelObj.obj
 0001:0004f608       __unwindfunclet$?erase@?$vector@PAVGSyncObj@@V?$allocator@PAVGSyncObj@@@std@@@std@@QAE?AV?$_Vector_iterator@PAVGSyncObj@@V?$allocator@PAVGSyncObj@@@std@@@2@V?$_Vector_const_iterator@PAVGSyncObj@@V?$allocator@PAVGSyncObj@@@std@@@2@0@Z$5 10b50608 f   GKernelObj.obj
 0001:0004f610       __unwindfunclet$?erase@?$vector@VPMSNSAP@@V?$allocator@VPMSNSAP@@@std@@@std@@QAE?AV?$_Vector_iterator@VPMSNSAP@@V?$allocator@VPMSNSAP@@@std@@@2@V?$_Vector_const_iterator@VPMSNSAP@@V?$allocator@VPMSNSAP@@@std@@@2@0@Z$6 10b50610 f   GKernelObj.obj
 0001:0004f610       __unwindfunclet$?erase@?$vector@PAVGSyncObj@@V?$allocator@PAVGSyncObj@@@std@@@std@@QAE?AV?$_Vector_iterator@PAVGSyncObj@@V?$allocator@PAVGSyncObj@@@std@@@2@V?$_Vector_const_iterator@PAVGSyncObj@@V?$allocator@PAVGSyncObj@@@std@@@2@0@Z$6 10b50610 f   GKernelObj.obj
 0001:0004f610       __unwindfunclet$?erase@?$vector@JV?$allocator@J@std@@@std@@QAE?AV?$_Vector_iterator@JV?$allocator@J@std@@@2@V?$_Vector_const_iterator@JV?$allocator@J@std@@@2@0@Z$6 10b50610 f   GKernelObj.obj
 0001:0004f629       __ehhandler$?erase@?$vector@JV?$allocator@J@std@@@std@@QAE?AV?$_Vector_iterator@JV?$allocator@J@std@@@2@V?$_Vector_const_iterator@JV?$allocator@J@std@@@2@0@Z 10b50629 f   GKernelObj.obj
 0001:0004f629       __ehhandler$?erase@?$vector@PAVGSyncObj@@V?$allocator@PAVGSyncObj@@@std@@@std@@QAE?AV?$_Vector_iterator@PAVGSyncObj@@V?$allocator@PAVGSyncObj@@@std@@@2@V?$_Vector_const_iterator@PAVGSyncObj@@V?$allocator@PAVGSyncObj@@@std@@@2@0@Z 10b50629 f   GKernelObj.obj
 0001:0004f629       __ehhandler$?erase@?$vector@VPMSNSAP@@V?$allocator@VPMSNSAP@@@std@@@std@@QAE?AV?$_Vector_iterator@VPMSNSAP@@V?$allocator@VPMSNSAP@@@std@@@2@V?$_Vector_const_iterator@VPMSNSAP@@V?$allocator@VPMSNSAP@@@std@@@2@0@Z 10b50629 f   GKernelObj.obj
 0001:0004f650       __unwindfunclet$?_Make_iter@?$list@VGBuf@@V?$allocator@VGBuf@@@std@@@std@@QBE?AV?$_Iterator@$00@12@V?$_Const_iterator@$00@12@@Z$0 10b50650 f   GKernelObj.obj
 0001:0004f650       __unwindfunclet$?_Make_iter@?$vector@PAVGSyncObj@@V?$allocator@PAVGSyncObj@@@std@@@std@@QBE?AV?$_Vector_iterator@PAVGSyncObj@@V?$allocator@PAVGSyncObj@@@std@@@2@V?$_Vector_const_iterator@PAVGSyncObj@@V?$allocator@PAVGSyncObj@@@std@@@2@@Z$0 10b50650 f   GKernelObj.obj
 0001:0004f650       __unwindfunclet$?erase@?$vector@PAVGSyncObj@@V?$allocator@PAVGSyncObj@@@std@@@std@@QAE?AV?$_Vector_iterator@PAVGSyncObj@@V?$allocator@PAVGSyncObj@@@std@@@2@V?$_Vector_const_iterator@PAVGSyncObj@@V?$allocator@PAVGSyncObj@@@std@@@2@@Z$0 10b50650 f   GKernelObj.obj
 0001:0004f650       __unwindfunclet$?_Make_iter@?$vector@VPMSNSAP@@V?$allocator@VPMSNSAP@@@std@@@std@@QBE?AV?$_Vector_iterator@VPMSNSAP@@V?$allocator@VPMSNSAP@@@std@@@2@V?$_Vector_const_iterator@VPMSNSAP@@V?$allocator@VPMSNSAP@@@std@@@2@@Z$0 10b50650 f   GKernelObj.obj
 0001:0004f650       __unwindfunclet$?erase@?$vector@PAXV?$allocator@PAX@std@@@std@@QAE?AV?$_Vector_iterator@PAXV?$allocator@PAX@std@@@2@V?$_Vector_const_iterator@PAXV?$allocator@PAX@std@@@2@@Z$0 10b50650 f   GKernelObj.obj
 0001:0004f650       __unwindfunclet$?_Make_iter@?$vector@JV?$allocator@J@std@@@std@@QBE?AV?$_Vector_iterator@JV?$allocator@J@std@@@2@V?$_Vector_const_iterator@JV?$allocator@J@std@@@2@@Z$0 10b50650 f   GKernelObj.obj
 0001:0004f658       __unwindfunclet$?erase@?$vector@PAVGSyncObj@@V?$allocator@PAVGSyncObj@@@std@@@std@@QAE?AV?$_Vector_iterator@PAVGSyncObj@@V?$allocator@PAVGSyncObj@@@std@@@2@V?$_Vector_const_iterator@PAVGSyncObj@@V?$allocator@PAVGSyncObj@@@std@@@2@@Z$1 10b50658 f   GKernelObj.obj
 0001:0004f658       __unwindfunclet$?_Make_iter@?$list@VGBuf@@V?$allocator@VGBuf@@@std@@@std@@QBE?AV?$_Iterator@$00@12@V?$_Const_iterator@$00@12@@Z$1 10b50658 f   GKernelObj.obj
 0001:0004f658       __unwindfunclet$?_Make_iter@?$vector@JV?$allocator@J@std@@@std@@QBE?AV?$_Vector_iterator@JV?$allocator@J@std@@@2@V?$_Vector_const_iterator@JV?$allocator@J@std@@@2@@Z$1 10b50658 f   GKernelObj.obj
 0001:0004f658       __unwindfunclet$?erase@?$vector@PAXV?$allocator@PAX@std@@@std@@QAE?AV?$_Vector_iterator@PAXV?$allocator@PAX@std@@@2@V?$_Vector_const_iterator@PAXV?$allocator@PAX@std@@@2@@Z$1 10b50658 f   GKernelObj.obj
 0001:0004f658       __unwindfunclet$?_Make_iter@?$vector@PAVGSyncObj@@V?$allocator@PAVGSyncObj@@@std@@@std@@QBE?AV?$_Vector_iterator@PAVGSyncObj@@V?$allocator@PAVGSyncObj@@@std@@@2@V?$_Vector_const_iterator@PAVGSyncObj@@V?$allocator@PAVGSyncObj@@@std@@@2@@Z$1 10b50658 f   GKernelObj.obj
 0001:0004f658       __unwindfunclet$?_Make_iter@?$vector@VPMSNSAP@@V?$allocator@VPMSNSAP@@@std@@@std@@QBE?AV?$_Vector_iterator@VPMSNSAP@@V?$allocator@VPMSNSAP@@@std@@@2@V?$_Vector_const_iterator@VPMSNSAP@@V?$allocator@VPMSNSAP@@@std@@@2@@Z$1 10b50658 f   GKernelObj.obj
 0001:0004f671       __ehhandler$?erase@?$vector@PAVGSyncObj@@V?$allocator@PAVGSyncObj@@@std@@@std@@QAE?AV?$_Vector_iterator@PAVGSyncObj@@V?$allocator@PAVGSyncObj@@@std@@@2@V?$_Vector_const_iterator@PAVGSyncObj@@V?$allocator@PAVGSyncObj@@@std@@@2@@Z 10b50671 f   GKernelObj.obj
 0001:0004f671       __ehhandler$?_Make_iter@?$list@VGBuf@@V?$allocator@VGBuf@@@std@@@std@@QBE?AV?$_Iterator@$00@12@V?$_Const_iterator@$00@12@@Z 10b50671 f   GKernelObj.obj
 0001:0004f671       __ehhandler$?_Make_iter@?$vector@VPMSNSAP@@V?$allocator@VPMSNSAP@@@std@@@std@@QBE?AV?$_Vector_iterator@VPMSNSAP@@V?$allocator@VPMSNSAP@@@std@@@2@V?$_Vector_const_iterator@VPMSNSAP@@V?$allocator@VPMSNSAP@@@std@@@2@@Z 10b50671 f   GKernelObj.obj
 0001:0004f671       __ehhandler$?_Make_iter@?$vector@JV?$allocator@J@std@@@std@@QBE?AV?$_Vector_iterator@JV?$allocator@J@std@@@2@V?$_Vector_const_iterator@JV?$allocator@J@std@@@2@@Z 10b50671 f   GKernelObj.obj
 0001:0004f671       __ehhandler$?erase@?$vector@PAXV?$allocator@PAX@std@@@std@@QAE?AV?$_Vector_iterator@PAXV?$allocator@PAX@std@@@2@V?$_Vector_const_iterator@PAXV?$allocator@PAX@std@@@2@@Z 10b50671 f   GKernelObj.obj
 0001:0004f671       __ehhandler$?_Make_iter@?$vector@PAVGSyncObj@@V?$allocator@PAVGSyncObj@@@std@@@std@@QBE?AV?$_Vector_iterator@PAVGSyncObj@@V?$allocator@PAVGSyncObj@@@std@@@2@V?$_Vector_const_iterator@PAVGSyncObj@@V?$allocator@PAVGSyncObj@@@std@@@2@@Z 10b50671 f   GKernelObj.obj
 0001:0004f690       __unwindfunclet$?Create@GSocket@@UAEHJHV?$basic_string@DU?$char_traits@D@std@@V?$allocator@D@2@@std@@@Z$0 10b50690 f   GSocket.obj
 0001:0004f698       __ehhandler$?Create@GSocket@@UAEHJHV?$basic_string@DU?$char_traits@D@std@@V?$allocator@D@2@@std@@@Z 10b50698 f   GSocket.obj
 0001:0004f6b3       __unwindfunclet$?Create@GSocket@@UAEHJHV?$basic_string@_WU?$char_traits@_W@std@@V?$allocator@_W@2@@std@@@Z$0 10b506b3 f   GSocket.obj
 0001:0004f6bb       __ehhandler$?Create@GSocket@@UAEHJHV?$basic_string@_WU?$char_traits@_W@std@@V?$allocator@_W@2@@std@@@Z 10b506bb f   GSocket.obj
 0001:0004f6d6       __unwindfunclet$?GetPeerName@GSocket@@QAEHAAV?$basic_string@_WU?$char_traits@_W@std@@V?$allocator@_W@2@@std@@AAJ@Z$0 10b506d6 f   GSocket.obj
 0001:0004f6de       __ehhandler$?GetPeerName@GSocket@@QAEHAAV?$basic_string@_WU?$char_traits@_W@std@@V?$allocator@_W@2@@std@@AAJ@Z 10b506de f   GSocket.obj
 0001:0004f703       __unwindfunclet$?GetSockName@GSocket@@QAEHAAV?$basic_string@_WU?$char_traits@_W@std@@V?$allocator@_W@2@@std@@AAJ@Z$0 10b50703 f   GSocket.obj
 0001:0004f70b       __ehhandler$?GetSockName@GSocket@@QAEHAAV?$basic_string@_WU?$char_traits@_W@std@@V?$allocator@_W@2@@std@@AAJ@Z 10b5070b f   GSocket.obj
 0001:0004f730       __unwindfunclet$?Bind@GSocket@@QAEHJV?$basic_string@DU?$char_traits@D@std@@V?$allocator@D@2@@std@@@Z$0 10b50730 f   GSocket.obj
 0001:0004f738       __ehhandler$?Bind@GSocket@@QAEHJV?$basic_string@DU?$char_traits@D@std@@V?$allocator@D@2@@std@@@Z 10b50738 f   GSocket.obj
 0001:0004f75d       __unwindfunclet$?Bind@GSocket@@QAEHJV?$basic_string@_WU?$char_traits@_W@std@@V?$allocator@_W@2@@std@@@Z$0 10b5075d f   GSocket.obj
 0001:0004f765       __ehhandler$?Bind@GSocket@@QAEHJV?$basic_string@_WU?$char_traits@_W@std@@V?$allocator@_W@2@@std@@@Z 10b50765 f   GSocket.obj
 0001:0004f78a       __unwindfunclet$?Connect@GSocket@@QAEHV?$basic_string@DU?$char_traits@D@std@@V?$allocator@D@2@@std@@J@Z$0 10b5078a f   GSocket.obj
 0001:0004f792       __ehhandler$?Connect@GSocket@@QAEHV?$basic_string@DU?$char_traits@D@std@@V?$allocator@D@2@@std@@J@Z 10b50792 f   GSocket.obj
 0001:0004f7b7       __unwindfunclet$?Connect@GSocket@@QAEHV?$basic_string@_WU?$char_traits@_W@std@@V?$allocator@_W@2@@std@@J@Z$0 10b507b7 f   GSocket.obj
 0001:0004f7bf       __ehhandler$?Connect@GSocket@@QAEHV?$basic_string@_WU?$char_traits@_W@std@@V?$allocator@_W@2@@std@@J@Z 10b507bf f   GSocket.obj
 0001:0004f7e4       __unwindfunclet$?SendTo@GSocket@@QAEHPBXHJV?$basic_string@DU?$char_traits@D@std@@V?$allocator@D@2@@std@@H@Z$0 10b507e4 f   GSocket.obj
 0001:0004f7ec       __ehhandler$?SendTo@GSocket@@QAEHPBXHJV?$basic_string@DU?$char_traits@D@std@@V?$allocator@D@2@@std@@H@Z 10b507ec f   GSocket.obj
 0001:0004f811       __unwindfunclet$?SendTo@GSocket@@QAEHPBXHJV?$basic_string@_WU?$char_traits@_W@std@@V?$allocator@_W@2@@std@@H@Z$0 10b50811 f   GSocket.obj
 0001:0004f819       __ehhandler$?SendTo@GSocket@@QAEHPBXHJV?$basic_string@_WU?$char_traits@_W@std@@V?$allocator@_W@2@@std@@H@Z 10b50819 f   GSocket.obj
 0001:0004f83e       __unwindfunclet$?GetHostAddr@GSocket@@QAEHV?$basic_string@_WU?$char_traits@_W@std@@V?$allocator@_W@2@@std@@PAUsockaddr_in@@HH@Z$0 10b5083e f   GSocket.obj
 0001:0004f846       __unwindfunclet$?GetHostAddr@GSocket@@QAEHV?$basic_string@_WU?$char_traits@_W@std@@V?$allocator@_W@2@@std@@PAUsockaddr_in@@HH@Z$1 10b50846 f   GSocket.obj
 0001:0004f84e       __ehhandler$?GetHostAddr@GSocket@@QAEHV?$basic_string@_WU?$char_traits@_W@std@@V?$allocator@_W@2@@std@@PAUsockaddr_in@@HH@Z 10b5084e f   GSocket.obj
 0001:0004f873       __unwindfunclet$?GetHostAddr@GSocket@@QAEHV?$basic_string@DU?$char_traits@D@std@@V?$allocator@D@2@@std@@PAUsockaddr_in@@HH@Z$0 10b50873 f   GSocket.obj
 0001:0004f87b       __unwindfunclet$?GetHostAddr@GSocket@@QAEHV?$basic_string@DU?$char_traits@D@std@@V?$allocator@D@2@@std@@PAUsockaddr_in@@HH@Z$1 10b5087b f   GSocket.obj
 0001:0004f883       __ehhandler$?GetHostAddr@GSocket@@QAEHV?$basic_string@DU?$char_traits@D@std@@V?$allocator@D@2@@std@@PAUsockaddr_in@@HH@Z 10b50883 f   GSocket.obj
 0001:0004f8b0       __unwindfunclet$?str2wstr@@YAHAAV?$basic_string@_WU?$char_traits@_W@std@@V?$allocator@_W@2@@std@@V?$basic_string@DU?$char_traits@D@std@@V?$allocator@D@2@@2@@Z$0 10b508b0 f   GSocket.obj
 0001:0004f8b8       __unwindfunclet$?str2wstr@@YAHAAV?$basic_string@_WU?$char_traits@_W@std@@V?$allocator@_W@2@@std@@V?$basic_string@DU?$char_traits@D@std@@V?$allocator@D@2@@2@@Z$1 10b508b8 f   GSocket.obj
 0001:0004f8c0       __ehhandler$?str2wstr@@YAHAAV?$basic_string@_WU?$char_traits@_W@std@@V?$allocator@_W@2@@std@@V?$basic_string@DU?$char_traits@D@std@@V?$allocator@D@2@@2@@Z 10b508c0 f   GSocket.obj
 0001:0004f8e0       __unwindfunclet$?wstr2str@@YAHAAV?$basic_string@DU?$char_traits@D@std@@V?$allocator@D@2@@std@@V?$basic_string@_WU?$char_traits@_W@std@@V?$allocator@_W@2@@2@@Z$0 10b508e0 f   GSocket.obj
 0001:0004f8e8       __unwindfunclet$?wstr2str@@YAHAAV?$basic_string@DU?$char_traits@D@std@@V?$allocator@D@2@@std@@V?$basic_string@_WU?$char_traits@_W@std@@V?$allocator@_W@2@@2@@Z$1 10b508e8 f   GSocket.obj
 0001:0004f8f0       __ehhandler$?wstr2str@@YAHAAV?$basic_string@DU?$char_traits@D@std@@V?$allocator@D@2@@std@@V?$basic_string@_WU?$char_traits@_W@std@@V?$allocator@_W@2@@2@@Z 10b508f0 f   GSocket.obj
 0001:0004f910       __unwindfunclet$?TrySend@@YAHIAAV?$basic_string@DU?$char_traits@D@std@@V?$allocator@D@2@@std@@@Z$0 10b50910 f   GSocketUtl.obj
 0001:0004f918       __ehhandler$?TrySend@@YAHIAAV?$basic_string@DU?$char_traits@D@std@@V?$allocator@D@2@@std@@@Z 10b50918 f   GSocketUtl.obj
 0001:0004f933       __unwindfunclet$??0GTxtSocket@@QAE@XZ$0 10b50933 f   GSocketUtl.obj
 0001:0004f93b       __unwindfunclet$??0GTxtSocket@@QAE@XZ$1 10b5093b f   GSocketUtl.obj
 0001:0004f946       __ehhandler$??0GTxtSocket@@QAE@XZ 10b50946 f   GSocketUtl.obj
 0001:0004f961       __unwindfunclet$??1GTxtSocket@@UAE@XZ$0 10b50961 f   GSocketUtl.obj
 0001:0004f969       __unwindfunclet$??1GTxtSocket@@UAE@XZ$1 10b50969 f   GSocketUtl.obj
 0001:0004f974       __ehhandler$??1GTxtSocket@@UAE@XZ 10b50974 f   GSocketUtl.obj
 0001:0004f98f       __unwindfunclet$?DoSend@GTxtSocket@@UAEHV?$basic_string@DU?$char_traits@D@std@@V?$allocator@D@2@@std@@@Z$0 10b5098f f   GSocketUtl.obj
 0001:0004f997       __ehhandler$?DoSend@GTxtSocket@@UAEHV?$basic_string@DU?$char_traits@D@std@@V?$allocator@D@2@@std@@@Z 10b50997 f   GSocketUtl.obj
 0001:0004f9b2       __unwindfunclet$??0GBufSocket@@QAE@XZ$0 10b509b2 f   GSocketUtl.obj
 0001:0004f9ba       __unwindfunclet$??0GBufSocket@@QAE@XZ$1 10b509ba f   GSocketUtl.obj
 0001:0004f9c5       __ehhandler$??0GBufSocket@@QAE@XZ 10b509c5 f   GSocketUtl.obj
 0001:0004f9e0       __unwindfunclet$??1GBufSocket@@UAE@XZ$0 10b509e0 f   GSocketUtl.obj
 0001:0004f9e8       __unwindfunclet$??1GBufSocket@@UAE@XZ$1 10b509e8 f   GSocketUtl.obj
 0001:0004f9f3       __ehhandler$??1GBufSocket@@UAE@XZ 10b509f3 f   GSocketUtl.obj
 0001:0004fa10       __unwindfunclet$?Pop@GBufQ@@QAE?AVGBuf@@XZ$0 10b50a10 f   GSocketUtl.obj
 0001:0004fa18       __unwindfunclet$?Pop@GBufQ@@QAE?AVGBuf@@XZ$1 10b50a18 f   GSocketUtl.obj
 0001:0004fa31       __ehhandler$?Pop@GBufQ@@QAE?AVGBuf@@XZ 10b50a31 f   GSocketUtl.obj
 0001:0004fa50       __unwindfunclet$?format@@YA?AV?$basic_string@DU?$char_traits@D@std@@V?$allocator@D@2@@std@@PBDZZ$0 10b50a50 f   GString.obj
 0001:0004fa58       __unwindfunclet$?format@@YA?AV?$basic_string@DU?$char_traits@D@std@@V?$allocator@D@2@@std@@PBDZZ$1 10b50a58 f   GString.obj
 0001:0004fa71       __ehhandler$?format@@YA?AV?$basic_string@DU?$char_traits@D@std@@V?$allocator@D@2@@std@@PBDZZ 10b50a71 f   GString.obj
 0001:0004fa96       __unwindfunclet$?format@@YA?AV?$basic_string@_WU?$char_traits@_W@std@@V?$allocator@_W@2@@std@@PB_WZZ$0 10b50a96 f   GString.obj
 0001:0004fa9e       __unwindfunclet$?format@@YA?AV?$basic_string@_WU?$char_traits@_W@std@@V?$allocator@_W@2@@std@@PB_WZZ$1 10b50a9e f   GString.obj
 0001:0004fab7       __ehhandler$?format@@YA?AV?$basic_string@_WU?$char_traits@_W@std@@V?$allocator@_W@2@@std@@PB_WZZ 10b50ab7 f   GString.obj
 0001:0004fadc       __unwindfunclet$?trimleft@@YAAAV?$basic_string@DU?$char_traits@D@std@@V?$allocator@D@2@@std@@AAV12@@Z$0 10b50adc f   GString.obj
 0001:0004fae4       __ehhandler$?trimleft@@YAAAV?$basic_string@DU?$char_traits@D@std@@V?$allocator@D@2@@std@@AAV12@@Z 10b50ae4 f   GString.obj
 0001:0004faff       __unwindfunclet$?stricmp@@YAHABV?$basic_string@DU?$char_traits@D@std@@V?$allocator@D@2@@std@@0@Z$0 10b50aff f   GString.obj
 0001:0004fb07       __unwindfunclet$?stricmp@@YAHABV?$basic_string@DU?$char_traits@D@std@@V?$allocator@D@2@@std@@0@Z$1 10b50b07 f   GString.obj
 0001:0004fb0f       __ehhandler$?stricmp@@YAHABV?$basic_string@DU?$char_traits@D@std@@V?$allocator@D@2@@std@@0@Z 10b50b0f f   GString.obj
 0001:0004fb34       __unwindfunclet$?strncmp@@YAHABV?$basic_string@DU?$char_traits@D@std@@V?$allocator@D@2@@std@@0I@Z$0 10b50b34 f   GString.obj
 0001:0004fb3c       __unwindfunclet$?strncmp@@YAHABV?$basic_string@DU?$char_traits@D@std@@V?$allocator@D@2@@std@@0I@Z$1 10b50b3c f   GString.obj
 0001:0004fb44       __ehhandler$?strncmp@@YAHABV?$basic_string@DU?$char_traits@D@std@@V?$allocator@D@2@@std@@0I@Z 10b50b44 f   GString.obj
 0001:0004fb69       __unwindfunclet$?strnicmp@@YAHABV?$basic_string@DU?$char_traits@D@std@@V?$allocator@D@2@@std@@0I@Z$0 10b50b69 f   GString.obj
 0001:0004fb71       __unwindfunclet$?strnicmp@@YAHABV?$basic_string@DU?$char_traits@D@std@@V?$allocator@D@2@@std@@0I@Z$1 10b50b71 f   GString.obj
 0001:0004fb79       __unwindfunclet$?strnicmp@@YAHABV?$basic_string@DU?$char_traits@D@std@@V?$allocator@D@2@@std@@0I@Z$2 10b50b79 f   GString.obj
 0001:0004fb84       __unwindfunclet$?strnicmp@@YAHABV?$basic_string@DU?$char_traits@D@std@@V?$allocator@D@2@@std@@0I@Z$3 10b50b84 f   GString.obj
